	.text
	.file	"llvm-link"
	.section	.text.startup,"ax",@progbits
	.p2align	4, 0x90         # -- Begin function _GLOBAL__sub_I_tritri.cpp
	.type	_GLOBAL__sub_I_tritri.cpp,@function
_GLOBAL__sub_I_tritri.cpp:              # @_GLOBAL__sub_I_tritri.cpp
	.cfi_startproc
# %bb.0:
	pushq	%rbp
	.cfi_def_cfa_offset 16
	.cfi_offset %rbp, -16
	movq	%rsp, %rbp
	.cfi_def_cfa_register %rbp
	callq	__cxx_global_var_init
	popq	%rbp
	.cfi_def_cfa %rsp, 8
	retq
.Lfunc_end0:
	.size	_GLOBAL__sub_I_tritri.cpp, .Lfunc_end0-_GLOBAL__sub_I_tritri.cpp
	.cfi_endproc
                                        # -- End function
	.p2align	4, 0x90         # -- Begin function __cxx_global_var_init
	.type	__cxx_global_var_init,@function
__cxx_global_var_init:                  # @__cxx_global_var_init
	.cfi_startproc
# %bb.0:
	pushq	%rbp
	.cfi_def_cfa_offset 16
	.cfi_offset %rbp, -16
	movq	%rsp, %rbp
	.cfi_def_cfa_register %rbp
	subq	$16, %rsp
	movabsq	$_ZStL8__ioinit, %rdi
	callq	_ZNSt8ios_base4InitC1Ev
	movabsq	$_ZNSt8ios_base4InitD1Ev, %rdi
	movabsq	$_ZStL8__ioinit, %rsi
	movabsq	$__dso_handle, %rdx
	callq	__cxa_atexit
	movl	%eax, -4(%rbp)          # 4-byte Spill
	addq	$16, %rsp
	popq	%rbp
	.cfi_def_cfa %rsp, 8
	retq
.Lfunc_end1:
	.size	__cxx_global_var_init, .Lfunc_end1-__cxx_global_var_init
	.cfi_endproc
                                        # -- End function
	.section	.rodata.cst16,"aM",@progbits,16
	.p2align	4               # -- Begin function _Z16coplanar_tri_triPfS_S_S_S_S_S_
.LCPI2_0:
	.quad	9223372036854775807     # double NaN
	.quad	9223372036854775807     # double NaN
	.text
	.globl	_Z16coplanar_tri_triPfS_S_S_S_S_S_
	.p2align	4, 0x90
	.type	_Z16coplanar_tri_triPfS_S_S_S_S_S_,@function
_Z16coplanar_tri_triPfS_S_S_S_S_S_:     # @_Z16coplanar_tri_triPfS_S_S_S_S_S_
	.cfi_startproc
# %bb.0:
	pushq	%rbp
	.cfi_def_cfa_offset 16
	.cfi_offset %rbp, -16
	movq	%rsp, %rbp
	.cfi_def_cfa_register %rbp
	subq	$608, %rsp              # imm = 0x260
	movq	16(%rbp), %rax
	movss	(%rdi), %xmm0           # xmm0 = mem[0],zero,zero,zero
	cvtss2sd	%xmm0, %xmm0
	movaps	.LCPI2_0(%rip), %xmm1   # xmm1 = [NaN,NaN]
	pand	%xmm1, %xmm0
	cvtsd2ss	%xmm0, %xmm0
	movss	%xmm0, -12(%rbp)
	movss	4(%rdi), %xmm0          # xmm0 = mem[0],zero,zero,zero
	cvtss2sd	%xmm0, %xmm0
	movaps	.LCPI2_0(%rip), %xmm1   # xmm1 = [NaN,NaN]
	pand	%xmm1, %xmm0
	cvtsd2ss	%xmm0, %xmm0
	movss	%xmm0, -8(%rbp)
	movss	8(%rdi), %xmm0          # xmm0 = mem[0],zero,zero,zero
	cvtss2sd	%xmm0, %xmm0
	movaps	.LCPI2_0(%rip), %xmm1   # xmm1 = [NaN,NaN]
	pand	%xmm1, %xmm0
	cvtsd2ss	%xmm0, %xmm0
	movss	%xmm0, -4(%rbp)
	movss	-12(%rbp), %xmm0        # xmm0 = mem[0],zero,zero,zero
	ucomiss	-8(%rbp), %xmm0
	seta	%r10b
	xorb	$-1, %r10b
	testb	$1, %r10b
	movb	$1, %r10b
                                        # implicit-def: $r11w
	movq	%rax, -24(%rbp)         # 8-byte Spill
	movq	%r9, -32(%rbp)          # 8-byte Spill
	movq	%r8, -40(%rbp)          # 8-byte Spill
	movq	%rcx, -48(%rbp)         # 8-byte Spill
	movq	%rdx, -56(%rbp)         # 8-byte Spill
	movq	%rsi, -64(%rbp)         # 8-byte Spill
	movw	%r11w, -66(%rbp)        # 2-byte Spill
	movb	%r10b, -67(%rbp)        # 1-byte Spill
	jne	.LBB2_7
	jmp	.LBB2_11
.LBB2_1:
	movss	-12(%rbp), %xmm0        # xmm0 = mem[0],zero,zero,zero
	ucomiss	-4(%rbp), %xmm0
	seta	%al
	xorb	$-1, %al
	testb	$1, %al
	movb	$1, %al
	movb	%al, -68(%rbp)          # 1-byte Spill
	jne	.LBB2_4
.LBB2_2:                                # %Flow152
	movb	-68(%rbp), %al          # 1-byte Reload
	xorl	%ecx, %ecx
	movw	%cx, %dx
	testb	$1, %al
	movw	$1, %si
	movw	%si, -70(%rbp)          # 2-byte Spill
	movw	%dx, -72(%rbp)          # 2-byte Spill
	jne	.LBB2_3
	jmp	.LBB2_6
.LBB2_3:
	movw	$1, %ax
	movw	$2, %cx
	movw	%cx, -70(%rbp)          # 2-byte Spill
	movw	%ax, -72(%rbp)          # 2-byte Spill
	jmp	.LBB2_6
.LBB2_4:
	xorl	%eax, %eax
	movb	%al, %cl
	movb	%cl, -68(%rbp)          # 1-byte Spill
	jmp	.LBB2_2
.LBB2_5:                                # %Flow154
	movw	-74(%rbp), %ax          # 2-byte Reload
	movw	-76(%rbp), %cx          # 2-byte Reload
	movw	%ax, -78(%rbp)          # 2-byte Spill
	movw	%cx, -80(%rbp)          # 2-byte Spill
	jmp	.LBB2_13
.LBB2_6:
	movw	-72(%rbp), %ax          # 2-byte Reload
	movw	-70(%rbp), %cx          # 2-byte Reload
	movw	%ax, -76(%rbp)          # 2-byte Spill
	movw	%cx, -74(%rbp)          # 2-byte Spill
	jmp	.LBB2_5
.LBB2_7:
	movss	-4(%rbp), %xmm0         # xmm0 = mem[0],zero,zero,zero
	ucomiss	-8(%rbp), %xmm0
	seta	%al
	xorb	$-1, %al
	testb	$1, %al
	movb	$1, %al
	movb	%al, -81(%rbp)          # 1-byte Spill
	jne	.LBB2_10
.LBB2_8:                                # %Flow151
	movb	-81(%rbp), %al          # 1-byte Reload
	testb	$1, %al
	movw	$2, %cx
	movw	%cx, -84(%rbp)          # 2-byte Spill
	jne	.LBB2_9
	jmp	.LBB2_12
.LBB2_9:
	movw	$1, %ax
	movw	%ax, -84(%rbp)          # 2-byte Spill
	jmp	.LBB2_12
.LBB2_10:
	xorl	%eax, %eax
	movb	%al, %cl
	movb	%cl, -81(%rbp)          # 1-byte Spill
	jmp	.LBB2_8
.LBB2_11:                               # %Flow153
	movb	-67(%rbp), %al          # 1-byte Reload
	movw	-66(%rbp), %cx          # 2-byte Reload
	xorl	%edx, %edx
	movw	%dx, %si
	testb	$1, %al
	movw	%si, -76(%rbp)          # 2-byte Spill
	movw	%cx, -74(%rbp)          # 2-byte Spill
	jne	.LBB2_1
	jmp	.LBB2_5
.LBB2_12:
	movw	-84(%rbp), %ax          # 2-byte Reload
	xorl	%ecx, %ecx
	movb	%cl, %dl
	movw	%ax, -66(%rbp)          # 2-byte Spill
	movb	%dl, -67(%rbp)          # 1-byte Spill
	jmp	.LBB2_11
.LBB2_13:
	movw	-80(%rbp), %ax          # 2-byte Reload
	movw	-78(%rbp), %cx          # 2-byte Reload
	movswq	%ax, %rdx
	movq	-56(%rbp), %rsi         # 8-byte Reload
	movss	(%rsi,%rdx,4), %xmm0    # xmm0 = mem[0],zero,zero,zero
	movswq	%ax, %rdx
	movq	-64(%rbp), %rdi         # 8-byte Reload
	subss	(%rdi,%rdx,4), %xmm0
	movswq	%cx, %rdx
	movss	(%rsi,%rdx,4), %xmm1    # xmm1 = mem[0],zero,zero,zero
	movswq	%cx, %rdx
	subss	(%rdi,%rdx,4), %xmm1
	movswq	%ax, %rdx
	movq	-40(%rbp), %r8          # 8-byte Reload
	movss	(%r8,%rdx,4), %xmm2     # xmm2 = mem[0],zero,zero,zero
	movswq	%ax, %rdx
	movq	-32(%rbp), %r9          # 8-byte Reload
	subss	(%r9,%rdx,4), %xmm2
	movswq	%cx, %rdx
	movss	(%r8,%rdx,4), %xmm3     # xmm3 = mem[0],zero,zero,zero
	movswq	%cx, %rdx
	subss	(%r9,%rdx,4), %xmm3
	movswq	%ax, %rdx
	movss	(%rdi,%rdx,4), %xmm4    # xmm4 = mem[0],zero,zero,zero
	movswq	%ax, %rdx
	subss	(%r8,%rdx,4), %xmm4
	movswq	%cx, %rdx
	movss	(%rdi,%rdx,4), %xmm5    # xmm5 = mem[0],zero,zero,zero
	movswq	%cx, %rdx
	subss	(%r8,%rdx,4), %xmm5
	movaps	%xmm1, %xmm6
	mulss	%xmm2, %xmm6
	movaps	%xmm0, %xmm7
	mulss	%xmm3, %xmm7
	subss	%xmm7, %xmm6
	mulss	%xmm4, %xmm3
	mulss	%xmm5, %xmm2
	subss	%xmm2, %xmm3
	movw	%ax, -86(%rbp)          # 2-byte Spill
	movw	%cx, -88(%rbp)          # 2-byte Spill
	movss	%xmm0, -92(%rbp)        # 4-byte Spill
	movss	%xmm1, -96(%rbp)        # 4-byte Spill
	movss	%xmm4, -100(%rbp)       # 4-byte Spill
	movss	%xmm5, -104(%rbp)       # 4-byte Spill
	movss	%xmm6, -108(%rbp)       # 4-byte Spill
	movss	%xmm3, -112(%rbp)       # 4-byte Spill
# %bb.14:
	jmp	.LBB2_15
.LBB2_15:
	xorl	%eax, %eax
	movb	%al, %cl
	xorps	%xmm0, %xmm0
	movss	-108(%rbp), %xmm1       # 4-byte Reload
                                        # xmm1 = mem[0],zero,zero,zero
	ucomiss	%xmm0, %xmm1
	seta	%dl
	movb	%dl, %sil
	xorb	$-1, %sil
	testb	$1, %dl
	movb	%cl, -113(%rbp)         # 1-byte Spill
	movb	%sil, -114(%rbp)        # 1-byte Spill
	jne	.LBB2_16
	jmp	.LBB2_17
.LBB2_16:
	xorl	%eax, %eax
	movb	%al, %cl
	xorps	%xmm0, %xmm0
	movss	-112(%rbp), %xmm1       # 4-byte Reload
                                        # xmm1 = mem[0],zero,zero,zero
	ucomiss	%xmm0, %xmm1
	setae	%dl
	movb	%dl, %sil
	xorb	$-1, %sil
	testb	$1, %dl
	movb	%cl, -115(%rbp)         # 1-byte Spill
	movb	%sil, -116(%rbp)        # 1-byte Spill
	jne	.LBB2_18
	jmp	.LBB2_19
.LBB2_17:                               # %Flow136
	movb	-114(%rbp), %al         # 1-byte Reload
	movb	-113(%rbp), %cl         # 1-byte Reload
	xorl	%edx, %edx
	movb	%dl, %sil
	testb	$1, %al
	movb	%sil, -117(%rbp)        # 1-byte Spill
	movb	%cl, -118(%rbp)         # 1-byte Spill
	jne	.LBB2_20
	jmp	.LBB2_21
.LBB2_18:
	movss	-108(%rbp), %xmm0       # 4-byte Reload
                                        # xmm0 = mem[0],zero,zero,zero
	movss	-112(%rbp), %xmm1       # 4-byte Reload
                                        # xmm1 = mem[0],zero,zero,zero
	ucomiss	%xmm1, %xmm0
	setae	%al
	xorb	$-1, %al
	movb	$1, %cl
	movb	%cl, -115(%rbp)         # 1-byte Spill
	movb	%al, -116(%rbp)         # 1-byte Spill
.LBB2_19:                               # %Flow137
	movb	-116(%rbp), %al         # 1-byte Reload
	movb	-115(%rbp), %cl         # 1-byte Reload
	movb	%cl, -113(%rbp)         # 1-byte Spill
	movb	%al, -114(%rbp)         # 1-byte Spill
	jmp	.LBB2_17
.LBB2_20:
	xorl	%eax, %eax
	movb	%al, %cl
	xorps	%xmm0, %xmm0
	movss	-108(%rbp), %xmm1       # 4-byte Reload
                                        # xmm1 = mem[0],zero,zero,zero
	ucomiss	%xmm1, %xmm0
	seta	%dl
	movb	%dl, %sil
	xorb	$-1, %sil
	testb	$1, %dl
	movb	%sil, -119(%rbp)        # 1-byte Spill
	movb	%cl, -120(%rbp)         # 1-byte Spill
	jne	.LBB2_22
	jmp	.LBB2_23
.LBB2_21:                               # %Flow138
	movb	-118(%rbp), %al         # 1-byte Reload
	movb	-117(%rbp), %cl         # 1-byte Reload
	xorl	%edx, %edx
	movb	%dl, %sil
	testb	$1, %al
	movb	%sil, -121(%rbp)        # 1-byte Spill
	movb	%cl, -122(%rbp)         # 1-byte Spill
	jne	.LBB2_26
	jmp	.LBB2_27
.LBB2_22:
	xorl	%eax, %eax
	movb	%al, %cl
	xorps	%xmm0, %xmm0
	movss	-112(%rbp), %xmm1       # 4-byte Reload
                                        # xmm1 = mem[0],zero,zero,zero
	ucomiss	%xmm1, %xmm0
	setae	%dl
	movb	%dl, %sil
	xorb	$-1, %sil
	testb	$1, %dl
	movb	%sil, -123(%rbp)        # 1-byte Spill
	movb	%cl, -124(%rbp)         # 1-byte Spill
	jne	.LBB2_24
	jmp	.LBB2_25
.LBB2_23:                               # %Flow139
	movb	-120(%rbp), %al         # 1-byte Reload
	movb	-119(%rbp), %cl         # 1-byte Reload
	movb	%cl, -117(%rbp)         # 1-byte Spill
	movb	%al, -118(%rbp)         # 1-byte Spill
	jmp	.LBB2_21
.LBB2_24:
	movss	-112(%rbp), %xmm0       # 4-byte Reload
                                        # xmm0 = mem[0],zero,zero,zero
	movss	-108(%rbp), %xmm1       # 4-byte Reload
                                        # xmm1 = mem[0],zero,zero,zero
	ucomiss	%xmm1, %xmm0
	setae	%al
	movb	$1, %cl
	movb	%cl, -123(%rbp)         # 1-byte Spill
	movb	%al, -124(%rbp)         # 1-byte Spill
.LBB2_25:                               # %Flow140
	movb	-124(%rbp), %al         # 1-byte Reload
	movb	-123(%rbp), %cl         # 1-byte Reload
	movb	%cl, -119(%rbp)         # 1-byte Spill
	movb	%al, -120(%rbp)         # 1-byte Spill
	jmp	.LBB2_23
.LBB2_26:
	movss	-92(%rbp), %xmm0        # 4-byte Reload
                                        # xmm0 = mem[0],zero,zero,zero
	movss	-104(%rbp), %xmm1       # 4-byte Reload
                                        # xmm1 = mem[0],zero,zero,zero
	mulss	%xmm1, %xmm0
	movss	-96(%rbp), %xmm2        # 4-byte Reload
                                        # xmm2 = mem[0],zero,zero,zero
	movss	-100(%rbp), %xmm3       # 4-byte Reload
                                        # xmm3 = mem[0],zero,zero,zero
	mulss	%xmm3, %xmm2
	subss	%xmm2, %xmm0
	movss	%xmm0, -128(%rbp)       # 4-byte Spill
	jmp	.LBB2_28
.LBB2_27:                               # %Flow141
	movb	-122(%rbp), %al         # 1-byte Reload
	movb	-121(%rbp), %cl         # 1-byte Reload
	testb	$1, %al
	movl	$1, %edx
	movb	%cl, -129(%rbp)         # 1-byte Spill
	movl	%edx, -136(%rbp)        # 4-byte Spill
	jne	.LBB2_47
	jmp	.LBB2_48
.LBB2_28:
	jmp	.LBB2_29
.LBB2_29:
	xorl	%eax, %eax
	movb	%al, %cl
	xorps	%xmm0, %xmm0
	movss	-108(%rbp), %xmm1       # 4-byte Reload
                                        # xmm1 = mem[0],zero,zero,zero
	ucomiss	%xmm0, %xmm1
	seta	%dl
	xorb	$-1, %dl
	testb	$1, %dl
	movb	$1, %dl
	movb	%cl, -137(%rbp)         # 1-byte Spill
	movb	%dl, -138(%rbp)         # 1-byte Spill
	jne	.LBB2_37
	jmp	.LBB2_38
.LBB2_30:                               # %Flow145
	xorl	%eax, %eax
	movb	%al, %cl
	movb	-139(%rbp), %dl         # 1-byte Reload
	movb	%dl, -137(%rbp)         # 1-byte Spill
	movb	%cl, -138(%rbp)         # 1-byte Spill
	jmp	.LBB2_38
.LBB2_31:
	xorl	%eax, %eax
	movb	%al, %cl
	xorps	%xmm0, %xmm0
	movss	-128(%rbp), %xmm1       # 4-byte Reload
                                        # xmm1 = mem[0],zero,zero,zero
	ucomiss	%xmm0, %xmm1
	setae	%dl
	movb	%dl, %sil
	xorb	$-1, %sil
	testb	$1, %dl
	movb	%cl, -140(%rbp)         # 1-byte Spill
	movb	%sil, -141(%rbp)        # 1-byte Spill
	jne	.LBB2_33
	jmp	.LBB2_35
.LBB2_32:                               # %Flow146
	movb	-142(%rbp), %al         # 1-byte Reload
	movb	-143(%rbp), %cl         # 1-byte Reload
	xorl	%edx, %edx
	movb	%dl, %sil
	testb	$1, %al
	movb	%cl, -144(%rbp)         # 1-byte Spill
	movb	%sil, -145(%rbp)        # 1-byte Spill
	jne	.LBB2_45
	jmp	.LBB2_46
.LBB2_33:
	movss	-108(%rbp), %xmm0       # 4-byte Reload
                                        # xmm0 = mem[0],zero,zero,zero
	movss	-128(%rbp), %xmm1       # 4-byte Reload
                                        # xmm1 = mem[0],zero,zero,zero
	ucomiss	%xmm1, %xmm0
	setae	%al
	xorb	$-1, %al
	movb	$1, %cl
	movb	%cl, -140(%rbp)         # 1-byte Spill
	movb	%al, -141(%rbp)         # 1-byte Spill
	jmp	.LBB2_35
.LBB2_34:
	movl	$1, %eax
	movl	%eax, -152(%rbp)        # 4-byte Spill
	jmp	.LBB2_357
.LBB2_35:                               # %Flow147
	movb	-141(%rbp), %al         # 1-byte Reload
	movb	-140(%rbp), %cl         # 1-byte Reload
	testb	$1, %al
	movb	-153(%rbp), %al         # 1-byte Reload
	movb	%cl, -154(%rbp)         # 1-byte Spill
	movb	%al, -155(%rbp)         # 1-byte Spill
	jne	.LBB2_36
	jmp	.LBB2_44
.LBB2_36:
	xorl	%eax, %eax
	movb	%al, %cl
	movb	$1, %dl
	movb	%cl, -154(%rbp)         # 1-byte Spill
	movb	%dl, -155(%rbp)         # 1-byte Spill
	jmp	.LBB2_44
.LBB2_37:
	xorl	%eax, %eax
	movb	%al, %cl
	xorps	%xmm0, %xmm0
	movss	-128(%rbp), %xmm1       # 4-byte Reload
                                        # xmm1 = mem[0],zero,zero,zero
	ucomiss	%xmm1, %xmm0
	setae	%dl
	movb	%dl, %sil
	xorb	$-1, %sil
	testb	$1, %dl
	movb	%cl, -156(%rbp)         # 1-byte Spill
	movb	%sil, -157(%rbp)        # 1-byte Spill
	jne	.LBB2_39
	jmp	.LBB2_42
.LBB2_38:                               # %Flow142
	movb	-138(%rbp), %al         # 1-byte Reload
	movb	-137(%rbp), %cl         # 1-byte Reload
	xorl	%edx, %edx
	movb	%dl, %sil
	testb	$1, %al
	movb	%cl, %al
	movb	%cl, -153(%rbp)         # 1-byte Spill
	movb	%sil, -143(%rbp)        # 1-byte Spill
	movb	%al, -142(%rbp)         # 1-byte Spill
	jne	.LBB2_31
	jmp	.LBB2_32
.LBB2_39:
	movss	-128(%rbp), %xmm0       # 4-byte Reload
                                        # xmm0 = mem[0],zero,zero,zero
	movss	-108(%rbp), %xmm1       # 4-byte Reload
                                        # xmm1 = mem[0],zero,zero,zero
	ucomiss	%xmm1, %xmm0
	setae	%al
	xorb	$-1, %al
	movb	$1, %cl
	movb	%cl, -156(%rbp)         # 1-byte Spill
	movb	%al, -157(%rbp)         # 1-byte Spill
	jmp	.LBB2_42
.LBB2_40:                               # %Flow144
	movb	-158(%rbp), %al         # 1-byte Reload
	movb	-159(%rbp), %cl         # 1-byte Reload
	testb	$1, %al
	movb	%cl, -139(%rbp)         # 1-byte Spill
	jne	.LBB2_41
	jmp	.LBB2_30
.LBB2_41:
	jmp	.LBB2_30
.LBB2_42:                               # %Flow143
	movb	-157(%rbp), %al         # 1-byte Reload
	movb	-156(%rbp), %cl         # 1-byte Reload
	xorl	%edx, %edx
	movb	%dl, %sil
	testb	$1, %al
	movb	%sil, -159(%rbp)        # 1-byte Spill
	movb	%cl, -158(%rbp)         # 1-byte Spill
	jne	.LBB2_43
	jmp	.LBB2_40
.LBB2_43:
	xorl	%eax, %eax
	movb	%al, %cl
	movb	$1, %dl
	movb	%dl, -159(%rbp)         # 1-byte Spill
	movb	%cl, -158(%rbp)         # 1-byte Spill
	jmp	.LBB2_40
.LBB2_44:                               # %Flow148
	movb	-155(%rbp), %al         # 1-byte Reload
	movb	-154(%rbp), %cl         # 1-byte Reload
	movb	%cl, -143(%rbp)         # 1-byte Spill
	movb	%al, -142(%rbp)         # 1-byte Spill
	jmp	.LBB2_32
.LBB2_45:
	movb	$1, %al
	movb	%al, -145(%rbp)         # 1-byte Spill
	jmp	.LBB2_46
.LBB2_46:                               # %Flow149
	movb	-145(%rbp), %al         # 1-byte Reload
	movb	-144(%rbp), %cl         # 1-byte Reload
	movb	%cl, -121(%rbp)         # 1-byte Spill
	movb	%al, -122(%rbp)         # 1-byte Spill
	jmp	.LBB2_27
.LBB2_47:
	movw	-86(%rbp), %ax          # 2-byte Reload
	movswq	%ax, %rcx
	movq	-32(%rbp), %rdx         # 8-byte Reload
	movss	(%rdx,%rcx,4), %xmm0    # xmm0 = mem[0],zero,zero,zero
	movswq	%ax, %rcx
	movq	-24(%rbp), %rsi         # 8-byte Reload
	subss	(%rsi,%rcx,4), %xmm0
	movw	-88(%rbp), %di          # 2-byte Reload
	movswq	%di, %rcx
	movss	(%rdx,%rcx,4), %xmm1    # xmm1 = mem[0],zero,zero,zero
	movswq	%di, %rcx
	subss	(%rsi,%rcx,4), %xmm1
	movswq	%ax, %rcx
	movq	-64(%rbp), %r8          # 8-byte Reload
	movss	(%r8,%rcx,4), %xmm2     # xmm2 = mem[0],zero,zero,zero
	movswq	%ax, %rcx
	subss	(%rdx,%rcx,4), %xmm2
	movswq	%di, %rcx
	movss	(%r8,%rcx,4), %xmm3     # xmm3 = mem[0],zero,zero,zero
	movswq	%di, %rcx
	subss	(%rdx,%rcx,4), %xmm3
	movss	-96(%rbp), %xmm4        # 4-byte Reload
                                        # xmm4 = mem[0],zero,zero,zero
	mulss	%xmm0, %xmm4
	movss	-92(%rbp), %xmm5        # 4-byte Reload
                                        # xmm5 = mem[0],zero,zero,zero
	mulss	%xmm1, %xmm5
	subss	%xmm5, %xmm4
	mulss	%xmm2, %xmm1
	mulss	%xmm3, %xmm0
	subss	%xmm0, %xmm1
	movss	%xmm2, -164(%rbp)       # 4-byte Spill
	movss	%xmm3, -168(%rbp)       # 4-byte Spill
	movss	%xmm4, -172(%rbp)       # 4-byte Spill
	movss	%xmm1, -176(%rbp)       # 4-byte Spill
	jmp	.LBB2_49
.LBB2_48:                               # %Flow150
	movl	-136(%rbp), %eax        # 4-byte Reload
	movb	-129(%rbp), %cl         # 1-byte Reload
	testb	$1, %cl
	movl	%eax, -152(%rbp)        # 4-byte Spill
	jne	.LBB2_34
	jmp	.LBB2_357
.LBB2_49:
	jmp	.LBB2_50
.LBB2_50:
	xorl	%eax, %eax
	movb	%al, %cl
	xorps	%xmm0, %xmm0
	movss	-172(%rbp), %xmm1       # 4-byte Reload
                                        # xmm1 = mem[0],zero,zero,zero
	ucomiss	%xmm0, %xmm1
	seta	%dl
	movb	%dl, %sil
	xorb	$-1, %sil
	testb	$1, %dl
	movb	%cl, -177(%rbp)         # 1-byte Spill
	movb	%sil, -178(%rbp)        # 1-byte Spill
	jne	.LBB2_51
	jmp	.LBB2_52
.LBB2_51:
	xorl	%eax, %eax
	movb	%al, %cl
	xorps	%xmm0, %xmm0
	movss	-176(%rbp), %xmm1       # 4-byte Reload
                                        # xmm1 = mem[0],zero,zero,zero
	ucomiss	%xmm0, %xmm1
	setae	%dl
	movb	%dl, %sil
	xorb	$-1, %sil
	testb	$1, %dl
	movb	%cl, -179(%rbp)         # 1-byte Spill
	movb	%sil, -180(%rbp)        # 1-byte Spill
	jne	.LBB2_53
	jmp	.LBB2_54
.LBB2_52:                               # %Flow120
	movb	-178(%rbp), %al         # 1-byte Reload
	movb	-177(%rbp), %cl         # 1-byte Reload
	xorl	%edx, %edx
	movb	%dl, %sil
	testb	$1, %al
	movb	%sil, -181(%rbp)        # 1-byte Spill
	movb	%cl, -182(%rbp)         # 1-byte Spill
	jne	.LBB2_55
	jmp	.LBB2_56
.LBB2_53:
	movss	-172(%rbp), %xmm0       # 4-byte Reload
                                        # xmm0 = mem[0],zero,zero,zero
	movss	-176(%rbp), %xmm1       # 4-byte Reload
                                        # xmm1 = mem[0],zero,zero,zero
	ucomiss	%xmm1, %xmm0
	setae	%al
	xorb	$-1, %al
	movb	$1, %cl
	movb	%cl, -179(%rbp)         # 1-byte Spill
	movb	%al, -180(%rbp)         # 1-byte Spill
.LBB2_54:                               # %Flow121
	movb	-180(%rbp), %al         # 1-byte Reload
	movb	-179(%rbp), %cl         # 1-byte Reload
	movb	%cl, -177(%rbp)         # 1-byte Spill
	movb	%al, -178(%rbp)         # 1-byte Spill
	jmp	.LBB2_52
.LBB2_55:
	xorl	%eax, %eax
	movb	%al, %cl
	xorps	%xmm0, %xmm0
	movss	-172(%rbp), %xmm1       # 4-byte Reload
                                        # xmm1 = mem[0],zero,zero,zero
	ucomiss	%xmm1, %xmm0
	seta	%dl
	movb	%dl, %sil
	xorb	$-1, %sil
	testb	$1, %dl
	movb	%sil, -183(%rbp)        # 1-byte Spill
	movb	%cl, -184(%rbp)         # 1-byte Spill
	jne	.LBB2_57
	jmp	.LBB2_58
.LBB2_56:                               # %Flow122
	movb	-182(%rbp), %al         # 1-byte Reload
	movb	-181(%rbp), %cl         # 1-byte Reload
	xorl	%edx, %edx
	movb	%dl, %sil
	testb	$1, %al
	movb	%sil, -185(%rbp)        # 1-byte Spill
	movb	%cl, -186(%rbp)         # 1-byte Spill
	jne	.LBB2_61
	jmp	.LBB2_62
.LBB2_57:
	xorl	%eax, %eax
	movb	%al, %cl
	xorps	%xmm0, %xmm0
	movss	-176(%rbp), %xmm1       # 4-byte Reload
                                        # xmm1 = mem[0],zero,zero,zero
	ucomiss	%xmm1, %xmm0
	setae	%dl
	movb	%dl, %sil
	xorb	$-1, %sil
	testb	$1, %dl
	movb	%sil, -187(%rbp)        # 1-byte Spill
	movb	%cl, -188(%rbp)         # 1-byte Spill
	jne	.LBB2_59
	jmp	.LBB2_60
.LBB2_58:                               # %Flow123
	movb	-184(%rbp), %al         # 1-byte Reload
	movb	-183(%rbp), %cl         # 1-byte Reload
	movb	%cl, -181(%rbp)         # 1-byte Spill
	movb	%al, -182(%rbp)         # 1-byte Spill
	jmp	.LBB2_56
.LBB2_59:
	movss	-176(%rbp), %xmm0       # 4-byte Reload
                                        # xmm0 = mem[0],zero,zero,zero
	movss	-172(%rbp), %xmm1       # 4-byte Reload
                                        # xmm1 = mem[0],zero,zero,zero
	ucomiss	%xmm1, %xmm0
	setae	%al
	movb	$1, %cl
	movb	%cl, -187(%rbp)         # 1-byte Spill
	movb	%al, -188(%rbp)         # 1-byte Spill
.LBB2_60:                               # %Flow124
	movb	-188(%rbp), %al         # 1-byte Reload
	movb	-187(%rbp), %cl         # 1-byte Reload
	movb	%cl, -183(%rbp)         # 1-byte Spill
	movb	%al, -184(%rbp)         # 1-byte Spill
	jmp	.LBB2_58
.LBB2_61:
	movss	-92(%rbp), %xmm0        # 4-byte Reload
                                        # xmm0 = mem[0],zero,zero,zero
	movss	-168(%rbp), %xmm1       # 4-byte Reload
                                        # xmm1 = mem[0],zero,zero,zero
	mulss	%xmm1, %xmm0
	movss	-96(%rbp), %xmm2        # 4-byte Reload
                                        # xmm2 = mem[0],zero,zero,zero
	movss	-164(%rbp), %xmm3       # 4-byte Reload
                                        # xmm3 = mem[0],zero,zero,zero
	mulss	%xmm3, %xmm2
	subss	%xmm2, %xmm0
	movss	%xmm0, -192(%rbp)       # 4-byte Spill
	jmp	.LBB2_63
.LBB2_62:                               # %Flow125
	movb	-186(%rbp), %al         # 1-byte Reload
	movb	-185(%rbp), %cl         # 1-byte Reload
	testb	$1, %al
	movl	$1, %edx
	movb	%cl, -193(%rbp)         # 1-byte Spill
	movl	%edx, -200(%rbp)        # 4-byte Spill
	jne	.LBB2_82
	jmp	.LBB2_83
.LBB2_63:
	jmp	.LBB2_64
.LBB2_64:
	xorl	%eax, %eax
	movb	%al, %cl
	xorps	%xmm0, %xmm0
	movss	-172(%rbp), %xmm1       # 4-byte Reload
                                        # xmm1 = mem[0],zero,zero,zero
	ucomiss	%xmm0, %xmm1
	seta	%dl
	xorb	$-1, %dl
	testb	$1, %dl
	movb	$1, %dl
	movb	%cl, -201(%rbp)         # 1-byte Spill
	movb	%dl, -202(%rbp)         # 1-byte Spill
	jne	.LBB2_72
	jmp	.LBB2_73
.LBB2_65:                               # %Flow129
	xorl	%eax, %eax
	movb	%al, %cl
	movb	-203(%rbp), %dl         # 1-byte Reload
	movb	%dl, -201(%rbp)         # 1-byte Spill
	movb	%cl, -202(%rbp)         # 1-byte Spill
	jmp	.LBB2_73
.LBB2_66:
	xorl	%eax, %eax
	movb	%al, %cl
	xorps	%xmm0, %xmm0
	movss	-192(%rbp), %xmm1       # 4-byte Reload
                                        # xmm1 = mem[0],zero,zero,zero
	ucomiss	%xmm0, %xmm1
	setae	%dl
	movb	%dl, %sil
	xorb	$-1, %sil
	testb	$1, %dl
	movb	%cl, -204(%rbp)         # 1-byte Spill
	movb	%sil, -205(%rbp)        # 1-byte Spill
	jne	.LBB2_68
	jmp	.LBB2_70
.LBB2_67:                               # %Flow130
	movb	-206(%rbp), %al         # 1-byte Reload
	movb	-207(%rbp), %cl         # 1-byte Reload
	xorl	%edx, %edx
	movb	%dl, %sil
	testb	$1, %al
	movb	%cl, -208(%rbp)         # 1-byte Spill
	movb	%sil, -209(%rbp)        # 1-byte Spill
	jne	.LBB2_80
	jmp	.LBB2_81
.LBB2_68:
	movss	-172(%rbp), %xmm0       # 4-byte Reload
                                        # xmm0 = mem[0],zero,zero,zero
	movss	-192(%rbp), %xmm1       # 4-byte Reload
                                        # xmm1 = mem[0],zero,zero,zero
	ucomiss	%xmm1, %xmm0
	setae	%al
	xorb	$-1, %al
	movb	$1, %cl
	movb	%cl, -204(%rbp)         # 1-byte Spill
	movb	%al, -205(%rbp)         # 1-byte Spill
	jmp	.LBB2_70
.LBB2_69:
	movl	$1, %eax
	movl	%eax, -216(%rbp)        # 4-byte Spill
	jmp	.LBB2_356
.LBB2_70:                               # %Flow131
	movb	-205(%rbp), %al         # 1-byte Reload
	movb	-204(%rbp), %cl         # 1-byte Reload
	testb	$1, %al
	movb	-217(%rbp), %al         # 1-byte Reload
	movb	%cl, -218(%rbp)         # 1-byte Spill
	movb	%al, -219(%rbp)         # 1-byte Spill
	jne	.LBB2_71
	jmp	.LBB2_79
.LBB2_71:
	xorl	%eax, %eax
	movb	%al, %cl
	movb	$1, %dl
	movb	%cl, -218(%rbp)         # 1-byte Spill
	movb	%dl, -219(%rbp)         # 1-byte Spill
	jmp	.LBB2_79
.LBB2_72:
	xorl	%eax, %eax
	movb	%al, %cl
	xorps	%xmm0, %xmm0
	movss	-192(%rbp), %xmm1       # 4-byte Reload
                                        # xmm1 = mem[0],zero,zero,zero
	ucomiss	%xmm1, %xmm0
	setae	%dl
	movb	%dl, %sil
	xorb	$-1, %sil
	testb	$1, %dl
	movb	%cl, -220(%rbp)         # 1-byte Spill
	movb	%sil, -221(%rbp)        # 1-byte Spill
	jne	.LBB2_74
	jmp	.LBB2_77
.LBB2_73:                               # %Flow126
	movb	-202(%rbp), %al         # 1-byte Reload
	movb	-201(%rbp), %cl         # 1-byte Reload
	xorl	%edx, %edx
	movb	%dl, %sil
	testb	$1, %al
	movb	%cl, %al
	movb	%cl, -217(%rbp)         # 1-byte Spill
	movb	%sil, -207(%rbp)        # 1-byte Spill
	movb	%al, -206(%rbp)         # 1-byte Spill
	jne	.LBB2_66
	jmp	.LBB2_67
.LBB2_74:
	movss	-192(%rbp), %xmm0       # 4-byte Reload
                                        # xmm0 = mem[0],zero,zero,zero
	movss	-172(%rbp), %xmm1       # 4-byte Reload
                                        # xmm1 = mem[0],zero,zero,zero
	ucomiss	%xmm1, %xmm0
	setae	%al
	xorb	$-1, %al
	movb	$1, %cl
	movb	%cl, -220(%rbp)         # 1-byte Spill
	movb	%al, -221(%rbp)         # 1-byte Spill
	jmp	.LBB2_77
.LBB2_75:                               # %Flow128
	movb	-222(%rbp), %al         # 1-byte Reload
	movb	-223(%rbp), %cl         # 1-byte Reload
	testb	$1, %al
	movb	%cl, -203(%rbp)         # 1-byte Spill
	jne	.LBB2_76
	jmp	.LBB2_65
.LBB2_76:
	jmp	.LBB2_65
.LBB2_77:                               # %Flow127
	movb	-221(%rbp), %al         # 1-byte Reload
	movb	-220(%rbp), %cl         # 1-byte Reload
	xorl	%edx, %edx
	movb	%dl, %sil
	testb	$1, %al
	movb	%sil, -223(%rbp)        # 1-byte Spill
	movb	%cl, -222(%rbp)         # 1-byte Spill
	jne	.LBB2_78
	jmp	.LBB2_75
.LBB2_78:
	xorl	%eax, %eax
	movb	%al, %cl
	movb	$1, %dl
	movb	%dl, -223(%rbp)         # 1-byte Spill
	movb	%cl, -222(%rbp)         # 1-byte Spill
	jmp	.LBB2_75
.LBB2_79:                               # %Flow132
	movb	-219(%rbp), %al         # 1-byte Reload
	movb	-218(%rbp), %cl         # 1-byte Reload
	movb	%cl, -207(%rbp)         # 1-byte Spill
	movb	%al, -206(%rbp)         # 1-byte Spill
	jmp	.LBB2_67
.LBB2_80:
	movb	$1, %al
	movb	%al, -209(%rbp)         # 1-byte Spill
	jmp	.LBB2_81
.LBB2_81:                               # %Flow133
	movb	-209(%rbp), %al         # 1-byte Reload
	movb	-208(%rbp), %cl         # 1-byte Reload
	movb	%cl, -185(%rbp)         # 1-byte Spill
	movb	%al, -186(%rbp)         # 1-byte Spill
	jmp	.LBB2_62
.LBB2_82:
	movw	-86(%rbp), %ax          # 2-byte Reload
	movswq	%ax, %rcx
	movq	-24(%rbp), %rdx         # 8-byte Reload
	movss	(%rdx,%rcx,4), %xmm0    # xmm0 = mem[0],zero,zero,zero
	movswq	%ax, %rcx
	movq	-40(%rbp), %rsi         # 8-byte Reload
	subss	(%rsi,%rcx,4), %xmm0
	movw	-88(%rbp), %di          # 2-byte Reload
	movswq	%di, %rcx
	movss	(%rdx,%rcx,4), %xmm1    # xmm1 = mem[0],zero,zero,zero
	movswq	%di, %rcx
	subss	(%rsi,%rcx,4), %xmm1
	movswq	%ax, %rcx
	movq	-64(%rbp), %r8          # 8-byte Reload
	movss	(%r8,%rcx,4), %xmm2     # xmm2 = mem[0],zero,zero,zero
	movswq	%ax, %rcx
	subss	(%rdx,%rcx,4), %xmm2
	movswq	%di, %rcx
	movss	(%r8,%rcx,4), %xmm3     # xmm3 = mem[0],zero,zero,zero
	movswq	%di, %rcx
	subss	(%rdx,%rcx,4), %xmm3
	movss	-96(%rbp), %xmm4        # 4-byte Reload
                                        # xmm4 = mem[0],zero,zero,zero
	mulss	%xmm0, %xmm4
	movss	-92(%rbp), %xmm5        # 4-byte Reload
                                        # xmm5 = mem[0],zero,zero,zero
	mulss	%xmm1, %xmm5
	subss	%xmm5, %xmm4
	mulss	%xmm2, %xmm1
	mulss	%xmm3, %xmm0
	subss	%xmm0, %xmm1
	movss	%xmm2, -228(%rbp)       # 4-byte Spill
	movss	%xmm3, -232(%rbp)       # 4-byte Spill
	movss	%xmm4, -236(%rbp)       # 4-byte Spill
	movss	%xmm1, -240(%rbp)       # 4-byte Spill
	jmp	.LBB2_84
.LBB2_83:                               # %Flow134
	movl	-200(%rbp), %eax        # 4-byte Reload
	movb	-193(%rbp), %cl         # 1-byte Reload
	testb	$1, %cl
	movl	%eax, -216(%rbp)        # 4-byte Spill
	jne	.LBB2_69
	jmp	.LBB2_356
.LBB2_84:
	jmp	.LBB2_85
.LBB2_85:
	xorl	%eax, %eax
	movb	%al, %cl
	xorps	%xmm0, %xmm0
	movss	-236(%rbp), %xmm1       # 4-byte Reload
                                        # xmm1 = mem[0],zero,zero,zero
	ucomiss	%xmm0, %xmm1
	seta	%dl
	movb	%dl, %sil
	xorb	$-1, %sil
	testb	$1, %dl
	movb	%cl, -241(%rbp)         # 1-byte Spill
	movb	%sil, -242(%rbp)        # 1-byte Spill
	jne	.LBB2_86
	jmp	.LBB2_87
.LBB2_86:
	xorl	%eax, %eax
	movb	%al, %cl
	xorps	%xmm0, %xmm0
	movss	-240(%rbp), %xmm1       # 4-byte Reload
                                        # xmm1 = mem[0],zero,zero,zero
	ucomiss	%xmm0, %xmm1
	setae	%dl
	movb	%dl, %sil
	xorb	$-1, %sil
	testb	$1, %dl
	movb	%cl, -243(%rbp)         # 1-byte Spill
	movb	%sil, -244(%rbp)        # 1-byte Spill
	jne	.LBB2_88
	jmp	.LBB2_89
.LBB2_87:                               # %Flow104
	movb	-242(%rbp), %al         # 1-byte Reload
	movb	-241(%rbp), %cl         # 1-byte Reload
	xorl	%edx, %edx
	movb	%dl, %sil
	testb	$1, %al
	movb	%sil, -245(%rbp)        # 1-byte Spill
	movb	%cl, -246(%rbp)         # 1-byte Spill
	jne	.LBB2_90
	jmp	.LBB2_91
.LBB2_88:
	movss	-236(%rbp), %xmm0       # 4-byte Reload
                                        # xmm0 = mem[0],zero,zero,zero
	movss	-240(%rbp), %xmm1       # 4-byte Reload
                                        # xmm1 = mem[0],zero,zero,zero
	ucomiss	%xmm1, %xmm0
	setae	%al
	xorb	$-1, %al
	movb	$1, %cl
	movb	%cl, -243(%rbp)         # 1-byte Spill
	movb	%al, -244(%rbp)         # 1-byte Spill
.LBB2_89:                               # %Flow105
	movb	-244(%rbp), %al         # 1-byte Reload
	movb	-243(%rbp), %cl         # 1-byte Reload
	movb	%cl, -241(%rbp)         # 1-byte Spill
	movb	%al, -242(%rbp)         # 1-byte Spill
	jmp	.LBB2_87
.LBB2_90:
	xorl	%eax, %eax
	movb	%al, %cl
	xorps	%xmm0, %xmm0
	movss	-236(%rbp), %xmm1       # 4-byte Reload
                                        # xmm1 = mem[0],zero,zero,zero
	ucomiss	%xmm1, %xmm0
	seta	%dl
	movb	%dl, %sil
	xorb	$-1, %sil
	testb	$1, %dl
	movb	%sil, -247(%rbp)        # 1-byte Spill
	movb	%cl, -248(%rbp)         # 1-byte Spill
	jne	.LBB2_92
	jmp	.LBB2_93
.LBB2_91:                               # %Flow106
	movb	-246(%rbp), %al         # 1-byte Reload
	movb	-245(%rbp), %cl         # 1-byte Reload
	xorl	%edx, %edx
	movb	%dl, %sil
	testb	$1, %al
	movb	%sil, -249(%rbp)        # 1-byte Spill
	movb	%cl, -250(%rbp)         # 1-byte Spill
	jne	.LBB2_96
	jmp	.LBB2_97
.LBB2_92:
	xorl	%eax, %eax
	movb	%al, %cl
	xorps	%xmm0, %xmm0
	movss	-240(%rbp), %xmm1       # 4-byte Reload
                                        # xmm1 = mem[0],zero,zero,zero
	ucomiss	%xmm1, %xmm0
	setae	%dl
	movb	%dl, %sil
	xorb	$-1, %sil
	testb	$1, %dl
	movb	%sil, -251(%rbp)        # 1-byte Spill
	movb	%cl, -252(%rbp)         # 1-byte Spill
	jne	.LBB2_94
	jmp	.LBB2_95
.LBB2_93:                               # %Flow107
	movb	-248(%rbp), %al         # 1-byte Reload
	movb	-247(%rbp), %cl         # 1-byte Reload
	movb	%cl, -245(%rbp)         # 1-byte Spill
	movb	%al, -246(%rbp)         # 1-byte Spill
	jmp	.LBB2_91
.LBB2_94:
	movss	-240(%rbp), %xmm0       # 4-byte Reload
                                        # xmm0 = mem[0],zero,zero,zero
	movss	-236(%rbp), %xmm1       # 4-byte Reload
                                        # xmm1 = mem[0],zero,zero,zero
	ucomiss	%xmm1, %xmm0
	setae	%al
	movb	$1, %cl
	movb	%cl, -251(%rbp)         # 1-byte Spill
	movb	%al, -252(%rbp)         # 1-byte Spill
.LBB2_95:                               # %Flow108
	movb	-252(%rbp), %al         # 1-byte Reload
	movb	-251(%rbp), %cl         # 1-byte Reload
	movb	%cl, -247(%rbp)         # 1-byte Spill
	movb	%al, -248(%rbp)         # 1-byte Spill
	jmp	.LBB2_93
.LBB2_96:
	movss	-92(%rbp), %xmm0        # 4-byte Reload
                                        # xmm0 = mem[0],zero,zero,zero
	movss	-232(%rbp), %xmm1       # 4-byte Reload
                                        # xmm1 = mem[0],zero,zero,zero
	mulss	%xmm1, %xmm0
	movss	-96(%rbp), %xmm2        # 4-byte Reload
                                        # xmm2 = mem[0],zero,zero,zero
	movss	-228(%rbp), %xmm3       # 4-byte Reload
                                        # xmm3 = mem[0],zero,zero,zero
	mulss	%xmm3, %xmm2
	subss	%xmm2, %xmm0
	movss	%xmm0, -256(%rbp)       # 4-byte Spill
	jmp	.LBB2_98
.LBB2_97:                               # %Flow109
	movb	-250(%rbp), %al         # 1-byte Reload
	movb	-249(%rbp), %cl         # 1-byte Reload
	testb	$1, %al
	movl	$1, %edx
	movb	%cl, -257(%rbp)         # 1-byte Spill
	movl	%edx, -264(%rbp)        # 4-byte Spill
	jne	.LBB2_117
	jmp	.LBB2_118
.LBB2_98:
	jmp	.LBB2_99
.LBB2_99:
	xorl	%eax, %eax
	movb	%al, %cl
	xorps	%xmm0, %xmm0
	movss	-236(%rbp), %xmm1       # 4-byte Reload
                                        # xmm1 = mem[0],zero,zero,zero
	ucomiss	%xmm0, %xmm1
	seta	%dl
	xorb	$-1, %dl
	testb	$1, %dl
	movb	$1, %dl
	movb	%cl, -265(%rbp)         # 1-byte Spill
	movb	%dl, -266(%rbp)         # 1-byte Spill
	jne	.LBB2_107
	jmp	.LBB2_108
.LBB2_100:                              # %Flow113
	xorl	%eax, %eax
	movb	%al, %cl
	movb	-267(%rbp), %dl         # 1-byte Reload
	movb	%dl, -265(%rbp)         # 1-byte Spill
	movb	%cl, -266(%rbp)         # 1-byte Spill
	jmp	.LBB2_108
.LBB2_101:
	xorl	%eax, %eax
	movb	%al, %cl
	xorps	%xmm0, %xmm0
	movss	-256(%rbp), %xmm1       # 4-byte Reload
                                        # xmm1 = mem[0],zero,zero,zero
	ucomiss	%xmm0, %xmm1
	setae	%dl
	movb	%dl, %sil
	xorb	$-1, %sil
	testb	$1, %dl
	movb	%cl, -268(%rbp)         # 1-byte Spill
	movb	%sil, -269(%rbp)        # 1-byte Spill
	jne	.LBB2_103
	jmp	.LBB2_105
.LBB2_102:                              # %Flow114
	movb	-270(%rbp), %al         # 1-byte Reload
	movb	-271(%rbp), %cl         # 1-byte Reload
	xorl	%edx, %edx
	movb	%dl, %sil
	testb	$1, %al
	movb	%cl, -272(%rbp)         # 1-byte Spill
	movb	%sil, -273(%rbp)        # 1-byte Spill
	jne	.LBB2_115
	jmp	.LBB2_116
.LBB2_103:
	movss	-236(%rbp), %xmm0       # 4-byte Reload
                                        # xmm0 = mem[0],zero,zero,zero
	movss	-256(%rbp), %xmm1       # 4-byte Reload
                                        # xmm1 = mem[0],zero,zero,zero
	ucomiss	%xmm1, %xmm0
	setae	%al
	xorb	$-1, %al
	movb	$1, %cl
	movb	%cl, -268(%rbp)         # 1-byte Spill
	movb	%al, -269(%rbp)         # 1-byte Spill
	jmp	.LBB2_105
.LBB2_104:
	movl	$1, %eax
	movl	%eax, -280(%rbp)        # 4-byte Spill
	jmp	.LBB2_355
.LBB2_105:                              # %Flow115
	movb	-269(%rbp), %al         # 1-byte Reload
	movb	-268(%rbp), %cl         # 1-byte Reload
	testb	$1, %al
	movb	-281(%rbp), %al         # 1-byte Reload
	movb	%cl, -282(%rbp)         # 1-byte Spill
	movb	%al, -283(%rbp)         # 1-byte Spill
	jne	.LBB2_106
	jmp	.LBB2_114
.LBB2_106:
	xorl	%eax, %eax
	movb	%al, %cl
	movb	$1, %dl
	movb	%cl, -282(%rbp)         # 1-byte Spill
	movb	%dl, -283(%rbp)         # 1-byte Spill
	jmp	.LBB2_114
.LBB2_107:
	xorl	%eax, %eax
	movb	%al, %cl
	xorps	%xmm0, %xmm0
	movss	-256(%rbp), %xmm1       # 4-byte Reload
                                        # xmm1 = mem[0],zero,zero,zero
	ucomiss	%xmm1, %xmm0
	setae	%dl
	movb	%dl, %sil
	xorb	$-1, %sil
	testb	$1, %dl
	movb	%cl, -284(%rbp)         # 1-byte Spill
	movb	%sil, -285(%rbp)        # 1-byte Spill
	jne	.LBB2_109
	jmp	.LBB2_112
.LBB2_108:                              # %Flow110
	movb	-266(%rbp), %al         # 1-byte Reload
	movb	-265(%rbp), %cl         # 1-byte Reload
	xorl	%edx, %edx
	movb	%dl, %sil
	testb	$1, %al
	movb	%cl, %al
	movb	%cl, -281(%rbp)         # 1-byte Spill
	movb	%sil, -271(%rbp)        # 1-byte Spill
	movb	%al, -270(%rbp)         # 1-byte Spill
	jne	.LBB2_101
	jmp	.LBB2_102
.LBB2_109:
	movss	-256(%rbp), %xmm0       # 4-byte Reload
                                        # xmm0 = mem[0],zero,zero,zero
	movss	-236(%rbp), %xmm1       # 4-byte Reload
                                        # xmm1 = mem[0],zero,zero,zero
	ucomiss	%xmm1, %xmm0
	setae	%al
	xorb	$-1, %al
	movb	$1, %cl
	movb	%cl, -284(%rbp)         # 1-byte Spill
	movb	%al, -285(%rbp)         # 1-byte Spill
	jmp	.LBB2_112
.LBB2_110:                              # %Flow112
	movb	-286(%rbp), %al         # 1-byte Reload
	movb	-287(%rbp), %cl         # 1-byte Reload
	testb	$1, %al
	movb	%cl, -267(%rbp)         # 1-byte Spill
	jne	.LBB2_111
	jmp	.LBB2_100
.LBB2_111:
	jmp	.LBB2_100
.LBB2_112:                              # %Flow111
	movb	-285(%rbp), %al         # 1-byte Reload
	movb	-284(%rbp), %cl         # 1-byte Reload
	xorl	%edx, %edx
	movb	%dl, %sil
	testb	$1, %al
	movb	%sil, -287(%rbp)        # 1-byte Spill
	movb	%cl, -286(%rbp)         # 1-byte Spill
	jne	.LBB2_113
	jmp	.LBB2_110
.LBB2_113:
	xorl	%eax, %eax
	movb	%al, %cl
	movb	$1, %dl
	movb	%dl, -287(%rbp)         # 1-byte Spill
	movb	%cl, -286(%rbp)         # 1-byte Spill
	jmp	.LBB2_110
.LBB2_114:                              # %Flow116
	movb	-283(%rbp), %al         # 1-byte Reload
	movb	-282(%rbp), %cl         # 1-byte Reload
	movb	%cl, -271(%rbp)         # 1-byte Spill
	movb	%al, -270(%rbp)         # 1-byte Spill
	jmp	.LBB2_102
.LBB2_115:
	movb	$1, %al
	movb	%al, -273(%rbp)         # 1-byte Spill
	jmp	.LBB2_116
.LBB2_116:                              # %Flow117
	movb	-273(%rbp), %al         # 1-byte Reload
	movb	-272(%rbp), %cl         # 1-byte Reload
	movb	%cl, -249(%rbp)         # 1-byte Spill
	movb	%al, -250(%rbp)         # 1-byte Spill
	jmp	.LBB2_97
.LBB2_117:
	movw	-86(%rbp), %ax          # 2-byte Reload
	movswq	%ax, %rcx
	movq	-48(%rbp), %rdx         # 8-byte Reload
	movss	(%rdx,%rcx,4), %xmm0    # xmm0 = mem[0],zero,zero,zero
	movswq	%ax, %rcx
	movq	-56(%rbp), %rsi         # 8-byte Reload
	subss	(%rsi,%rcx,4), %xmm0
	movw	-88(%rbp), %di          # 2-byte Reload
	movswq	%di, %rcx
	movss	(%rdx,%rcx,4), %xmm1    # xmm1 = mem[0],zero,zero,zero
	movswq	%di, %rcx
	subss	(%rsi,%rcx,4), %xmm1
	movswq	%ax, %rcx
	movq	-40(%rbp), %r8          # 8-byte Reload
	movss	(%r8,%rcx,4), %xmm2     # xmm2 = mem[0],zero,zero,zero
	movswq	%ax, %rcx
	movq	-32(%rbp), %r9          # 8-byte Reload
	subss	(%r9,%rcx,4), %xmm2
	movswq	%di, %rcx
	movss	(%r8,%rcx,4), %xmm3     # xmm3 = mem[0],zero,zero,zero
	movswq	%di, %rcx
	subss	(%r9,%rcx,4), %xmm3
	movswq	%ax, %rcx
	movss	(%rsi,%rcx,4), %xmm4    # xmm4 = mem[0],zero,zero,zero
	movswq	%ax, %rcx
	subss	(%r8,%rcx,4), %xmm4
	movswq	%di, %rcx
	movss	(%rsi,%rcx,4), %xmm5    # xmm5 = mem[0],zero,zero,zero
	movswq	%di, %rcx
	subss	(%r8,%rcx,4), %xmm5
	movaps	%xmm1, %xmm6
	mulss	%xmm2, %xmm6
	movaps	%xmm0, %xmm7
	mulss	%xmm3, %xmm7
	subss	%xmm7, %xmm6
	mulss	%xmm4, %xmm3
	mulss	%xmm5, %xmm2
	subss	%xmm2, %xmm3
	movss	%xmm0, -292(%rbp)       # 4-byte Spill
	movss	%xmm1, -296(%rbp)       # 4-byte Spill
	movss	%xmm4, -300(%rbp)       # 4-byte Spill
	movss	%xmm5, -304(%rbp)       # 4-byte Spill
	movss	%xmm6, -308(%rbp)       # 4-byte Spill
	movss	%xmm3, -312(%rbp)       # 4-byte Spill
	jmp	.LBB2_119
.LBB2_118:                              # %Flow118
	movl	-264(%rbp), %eax        # 4-byte Reload
	movb	-257(%rbp), %cl         # 1-byte Reload
	testb	$1, %cl
	movl	%eax, -280(%rbp)        # 4-byte Spill
	jne	.LBB2_104
	jmp	.LBB2_355
.LBB2_119:
	jmp	.LBB2_120
.LBB2_120:
	xorl	%eax, %eax
	movb	%al, %cl
	xorps	%xmm0, %xmm0
	movss	-308(%rbp), %xmm1       # 4-byte Reload
                                        # xmm1 = mem[0],zero,zero,zero
	ucomiss	%xmm0, %xmm1
	seta	%dl
	movb	%dl, %sil
	xorb	$-1, %sil
	testb	$1, %dl
	movb	%cl, -313(%rbp)         # 1-byte Spill
	movb	%sil, -314(%rbp)        # 1-byte Spill
	jne	.LBB2_121
	jmp	.LBB2_122
.LBB2_121:
	xorl	%eax, %eax
	movb	%al, %cl
	xorps	%xmm0, %xmm0
	movss	-312(%rbp), %xmm1       # 4-byte Reload
                                        # xmm1 = mem[0],zero,zero,zero
	ucomiss	%xmm0, %xmm1
	setae	%dl
	movb	%dl, %sil
	xorb	$-1, %sil
	testb	$1, %dl
	movb	%cl, -315(%rbp)         # 1-byte Spill
	movb	%sil, -316(%rbp)        # 1-byte Spill
	jne	.LBB2_123
	jmp	.LBB2_124
.LBB2_122:                              # %Flow88
	movb	-314(%rbp), %al         # 1-byte Reload
	movb	-313(%rbp), %cl         # 1-byte Reload
	xorl	%edx, %edx
	movb	%dl, %sil
	testb	$1, %al
	movb	%sil, -317(%rbp)        # 1-byte Spill
	movb	%cl, -318(%rbp)         # 1-byte Spill
	jne	.LBB2_125
	jmp	.LBB2_126
.LBB2_123:
	movss	-308(%rbp), %xmm0       # 4-byte Reload
                                        # xmm0 = mem[0],zero,zero,zero
	movss	-312(%rbp), %xmm1       # 4-byte Reload
                                        # xmm1 = mem[0],zero,zero,zero
	ucomiss	%xmm1, %xmm0
	setae	%al
	xorb	$-1, %al
	movb	$1, %cl
	movb	%cl, -315(%rbp)         # 1-byte Spill
	movb	%al, -316(%rbp)         # 1-byte Spill
.LBB2_124:                              # %Flow89
	movb	-316(%rbp), %al         # 1-byte Reload
	movb	-315(%rbp), %cl         # 1-byte Reload
	movb	%cl, -313(%rbp)         # 1-byte Spill
	movb	%al, -314(%rbp)         # 1-byte Spill
	jmp	.LBB2_122
.LBB2_125:
	xorl	%eax, %eax
	movb	%al, %cl
	xorps	%xmm0, %xmm0
	movss	-308(%rbp), %xmm1       # 4-byte Reload
                                        # xmm1 = mem[0],zero,zero,zero
	ucomiss	%xmm1, %xmm0
	seta	%dl
	movb	%dl, %sil
	xorb	$-1, %sil
	testb	$1, %dl
	movb	%sil, -319(%rbp)        # 1-byte Spill
	movb	%cl, -320(%rbp)         # 1-byte Spill
	jne	.LBB2_127
	jmp	.LBB2_128
.LBB2_126:                              # %Flow90
	movb	-318(%rbp), %al         # 1-byte Reload
	movb	-317(%rbp), %cl         # 1-byte Reload
	xorl	%edx, %edx
	movb	%dl, %sil
	testb	$1, %al
	movb	%sil, -321(%rbp)        # 1-byte Spill
	movb	%cl, -322(%rbp)         # 1-byte Spill
	jne	.LBB2_131
	jmp	.LBB2_132
.LBB2_127:
	xorl	%eax, %eax
	movb	%al, %cl
	xorps	%xmm0, %xmm0
	movss	-312(%rbp), %xmm1       # 4-byte Reload
                                        # xmm1 = mem[0],zero,zero,zero
	ucomiss	%xmm1, %xmm0
	setae	%dl
	movb	%dl, %sil
	xorb	$-1, %sil
	testb	$1, %dl
	movb	%sil, -323(%rbp)        # 1-byte Spill
	movb	%cl, -324(%rbp)         # 1-byte Spill
	jne	.LBB2_129
	jmp	.LBB2_130
.LBB2_128:                              # %Flow91
	movb	-320(%rbp), %al         # 1-byte Reload
	movb	-319(%rbp), %cl         # 1-byte Reload
	movb	%cl, -317(%rbp)         # 1-byte Spill
	movb	%al, -318(%rbp)         # 1-byte Spill
	jmp	.LBB2_126
.LBB2_129:
	movss	-312(%rbp), %xmm0       # 4-byte Reload
                                        # xmm0 = mem[0],zero,zero,zero
	movss	-308(%rbp), %xmm1       # 4-byte Reload
                                        # xmm1 = mem[0],zero,zero,zero
	ucomiss	%xmm1, %xmm0
	setae	%al
	movb	$1, %cl
	movb	%cl, -323(%rbp)         # 1-byte Spill
	movb	%al, -324(%rbp)         # 1-byte Spill
.LBB2_130:                              # %Flow92
	movb	-324(%rbp), %al         # 1-byte Reload
	movb	-323(%rbp), %cl         # 1-byte Reload
	movb	%cl, -319(%rbp)         # 1-byte Spill
	movb	%al, -320(%rbp)         # 1-byte Spill
	jmp	.LBB2_128
.LBB2_131:
	movss	-292(%rbp), %xmm0       # 4-byte Reload
                                        # xmm0 = mem[0],zero,zero,zero
	movss	-304(%rbp), %xmm1       # 4-byte Reload
                                        # xmm1 = mem[0],zero,zero,zero
	mulss	%xmm1, %xmm0
	movss	-296(%rbp), %xmm2       # 4-byte Reload
                                        # xmm2 = mem[0],zero,zero,zero
	movss	-300(%rbp), %xmm3       # 4-byte Reload
                                        # xmm3 = mem[0],zero,zero,zero
	mulss	%xmm3, %xmm2
	subss	%xmm2, %xmm0
	movss	%xmm0, -328(%rbp)       # 4-byte Spill
	jmp	.LBB2_133
.LBB2_132:                              # %Flow93
	movb	-322(%rbp), %al         # 1-byte Reload
	movb	-321(%rbp), %cl         # 1-byte Reload
	testb	$1, %al
	movl	$1, %edx
	movb	%cl, -329(%rbp)         # 1-byte Spill
	movl	%edx, -336(%rbp)        # 4-byte Spill
	jne	.LBB2_152
	jmp	.LBB2_153
.LBB2_133:
	jmp	.LBB2_134
.LBB2_134:
	xorl	%eax, %eax
	movb	%al, %cl
	xorps	%xmm0, %xmm0
	movss	-308(%rbp), %xmm1       # 4-byte Reload
                                        # xmm1 = mem[0],zero,zero,zero
	ucomiss	%xmm0, %xmm1
	seta	%dl
	xorb	$-1, %dl
	testb	$1, %dl
	movb	$1, %dl
	movb	%cl, -337(%rbp)         # 1-byte Spill
	movb	%dl, -338(%rbp)         # 1-byte Spill
	jne	.LBB2_142
	jmp	.LBB2_143
.LBB2_135:                              # %Flow97
	xorl	%eax, %eax
	movb	%al, %cl
	movb	-339(%rbp), %dl         # 1-byte Reload
	movb	%dl, -337(%rbp)         # 1-byte Spill
	movb	%cl, -338(%rbp)         # 1-byte Spill
	jmp	.LBB2_143
.LBB2_136:
	xorl	%eax, %eax
	movb	%al, %cl
	xorps	%xmm0, %xmm0
	movss	-328(%rbp), %xmm1       # 4-byte Reload
                                        # xmm1 = mem[0],zero,zero,zero
	ucomiss	%xmm0, %xmm1
	setae	%dl
	movb	%dl, %sil
	xorb	$-1, %sil
	testb	$1, %dl
	movb	%cl, -340(%rbp)         # 1-byte Spill
	movb	%sil, -341(%rbp)        # 1-byte Spill
	jne	.LBB2_138
	jmp	.LBB2_140
.LBB2_137:                              # %Flow98
	movb	-342(%rbp), %al         # 1-byte Reload
	movb	-343(%rbp), %cl         # 1-byte Reload
	xorl	%edx, %edx
	movb	%dl, %sil
	testb	$1, %al
	movb	%cl, -344(%rbp)         # 1-byte Spill
	movb	%sil, -345(%rbp)        # 1-byte Spill
	jne	.LBB2_150
	jmp	.LBB2_151
.LBB2_138:
	movss	-308(%rbp), %xmm0       # 4-byte Reload
                                        # xmm0 = mem[0],zero,zero,zero
	movss	-328(%rbp), %xmm1       # 4-byte Reload
                                        # xmm1 = mem[0],zero,zero,zero
	ucomiss	%xmm1, %xmm0
	setae	%al
	xorb	$-1, %al
	movb	$1, %cl
	movb	%cl, -340(%rbp)         # 1-byte Spill
	movb	%al, -341(%rbp)         # 1-byte Spill
	jmp	.LBB2_140
.LBB2_139:
	movl	$1, %eax
	movl	%eax, -352(%rbp)        # 4-byte Spill
	jmp	.LBB2_354
.LBB2_140:                              # %Flow99
	movb	-341(%rbp), %al         # 1-byte Reload
	movb	-340(%rbp), %cl         # 1-byte Reload
	testb	$1, %al
	movb	-353(%rbp), %al         # 1-byte Reload
	movb	%cl, -354(%rbp)         # 1-byte Spill
	movb	%al, -355(%rbp)         # 1-byte Spill
	jne	.LBB2_141
	jmp	.LBB2_149
.LBB2_141:
	xorl	%eax, %eax
	movb	%al, %cl
	movb	$1, %dl
	movb	%cl, -354(%rbp)         # 1-byte Spill
	movb	%dl, -355(%rbp)         # 1-byte Spill
	jmp	.LBB2_149
.LBB2_142:
	xorl	%eax, %eax
	movb	%al, %cl
	xorps	%xmm0, %xmm0
	movss	-328(%rbp), %xmm1       # 4-byte Reload
                                        # xmm1 = mem[0],zero,zero,zero
	ucomiss	%xmm1, %xmm0
	setae	%dl
	movb	%dl, %sil
	xorb	$-1, %sil
	testb	$1, %dl
	movb	%cl, -356(%rbp)         # 1-byte Spill
	movb	%sil, -357(%rbp)        # 1-byte Spill
	jne	.LBB2_144
	jmp	.LBB2_147
.LBB2_143:                              # %Flow94
	movb	-338(%rbp), %al         # 1-byte Reload
	movb	-337(%rbp), %cl         # 1-byte Reload
	xorl	%edx, %edx
	movb	%dl, %sil
	testb	$1, %al
	movb	%cl, %al
	movb	%cl, -353(%rbp)         # 1-byte Spill
	movb	%sil, -343(%rbp)        # 1-byte Spill
	movb	%al, -342(%rbp)         # 1-byte Spill
	jne	.LBB2_136
	jmp	.LBB2_137
.LBB2_144:
	movss	-328(%rbp), %xmm0       # 4-byte Reload
                                        # xmm0 = mem[0],zero,zero,zero
	movss	-308(%rbp), %xmm1       # 4-byte Reload
                                        # xmm1 = mem[0],zero,zero,zero
	ucomiss	%xmm1, %xmm0
	setae	%al
	xorb	$-1, %al
	movb	$1, %cl
	movb	%cl, -356(%rbp)         # 1-byte Spill
	movb	%al, -357(%rbp)         # 1-byte Spill
	jmp	.LBB2_147
.LBB2_145:                              # %Flow96
	movb	-358(%rbp), %al         # 1-byte Reload
	movb	-359(%rbp), %cl         # 1-byte Reload
	testb	$1, %al
	movb	%cl, -339(%rbp)         # 1-byte Spill
	jne	.LBB2_146
	jmp	.LBB2_135
.LBB2_146:
	jmp	.LBB2_135
.LBB2_147:                              # %Flow95
	movb	-357(%rbp), %al         # 1-byte Reload
	movb	-356(%rbp), %cl         # 1-byte Reload
	xorl	%edx, %edx
	movb	%dl, %sil
	testb	$1, %al
	movb	%sil, -359(%rbp)        # 1-byte Spill
	movb	%cl, -358(%rbp)         # 1-byte Spill
	jne	.LBB2_148
	jmp	.LBB2_145
.LBB2_148:
	xorl	%eax, %eax
	movb	%al, %cl
	movb	$1, %dl
	movb	%dl, -359(%rbp)         # 1-byte Spill
	movb	%cl, -358(%rbp)         # 1-byte Spill
	jmp	.LBB2_145
.LBB2_149:                              # %Flow100
	movb	-355(%rbp), %al         # 1-byte Reload
	movb	-354(%rbp), %cl         # 1-byte Reload
	movb	%cl, -343(%rbp)         # 1-byte Spill
	movb	%al, -342(%rbp)         # 1-byte Spill
	jmp	.LBB2_137
.LBB2_150:
	movb	$1, %al
	movb	%al, -345(%rbp)         # 1-byte Spill
	jmp	.LBB2_151
.LBB2_151:                              # %Flow101
	movb	-345(%rbp), %al         # 1-byte Reload
	movb	-344(%rbp), %cl         # 1-byte Reload
	movb	%cl, -321(%rbp)         # 1-byte Spill
	movb	%al, -322(%rbp)         # 1-byte Spill
	jmp	.LBB2_132
.LBB2_152:
	movw	-86(%rbp), %ax          # 2-byte Reload
	movswq	%ax, %rcx
	movq	-32(%rbp), %rdx         # 8-byte Reload
	movss	(%rdx,%rcx,4), %xmm0    # xmm0 = mem[0],zero,zero,zero
	movswq	%ax, %rcx
	movq	-24(%rbp), %rsi         # 8-byte Reload
	subss	(%rsi,%rcx,4), %xmm0
	movw	-88(%rbp), %di          # 2-byte Reload
	movswq	%di, %rcx
	movss	(%rdx,%rcx,4), %xmm1    # xmm1 = mem[0],zero,zero,zero
	movswq	%di, %rcx
	subss	(%rsi,%rcx,4), %xmm1
	movswq	%ax, %rcx
	movq	-56(%rbp), %r8          # 8-byte Reload
	movss	(%r8,%rcx,4), %xmm2     # xmm2 = mem[0],zero,zero,zero
	movswq	%ax, %rcx
	subss	(%rdx,%rcx,4), %xmm2
	movswq	%di, %rcx
	movss	(%r8,%rcx,4), %xmm3     # xmm3 = mem[0],zero,zero,zero
	movswq	%di, %rcx
	subss	(%rdx,%rcx,4), %xmm3
	movss	-296(%rbp), %xmm4       # 4-byte Reload
                                        # xmm4 = mem[0],zero,zero,zero
	mulss	%xmm0, %xmm4
	movss	-292(%rbp), %xmm5       # 4-byte Reload
                                        # xmm5 = mem[0],zero,zero,zero
	mulss	%xmm1, %xmm5
	subss	%xmm5, %xmm4
	mulss	%xmm2, %xmm1
	mulss	%xmm3, %xmm0
	subss	%xmm0, %xmm1
	movss	%xmm2, -364(%rbp)       # 4-byte Spill
	movss	%xmm3, -368(%rbp)       # 4-byte Spill
	movss	%xmm4, -372(%rbp)       # 4-byte Spill
	movss	%xmm1, -376(%rbp)       # 4-byte Spill
	jmp	.LBB2_154
.LBB2_153:                              # %Flow102
	movl	-336(%rbp), %eax        # 4-byte Reload
	movb	-329(%rbp), %cl         # 1-byte Reload
	testb	$1, %cl
	movl	%eax, -352(%rbp)        # 4-byte Spill
	jne	.LBB2_139
	jmp	.LBB2_354
.LBB2_154:
	jmp	.LBB2_155
.LBB2_155:
	xorl	%eax, %eax
	movb	%al, %cl
	xorps	%xmm0, %xmm0
	movss	-372(%rbp), %xmm1       # 4-byte Reload
                                        # xmm1 = mem[0],zero,zero,zero
	ucomiss	%xmm0, %xmm1
	seta	%dl
	movb	%dl, %sil
	xorb	$-1, %sil
	testb	$1, %dl
	movb	%cl, -377(%rbp)         # 1-byte Spill
	movb	%sil, -378(%rbp)        # 1-byte Spill
	jne	.LBB2_156
	jmp	.LBB2_157
.LBB2_156:
	xorl	%eax, %eax
	movb	%al, %cl
	xorps	%xmm0, %xmm0
	movss	-376(%rbp), %xmm1       # 4-byte Reload
                                        # xmm1 = mem[0],zero,zero,zero
	ucomiss	%xmm0, %xmm1
	setae	%dl
	movb	%dl, %sil
	xorb	$-1, %sil
	testb	$1, %dl
	movb	%cl, -379(%rbp)         # 1-byte Spill
	movb	%sil, -380(%rbp)        # 1-byte Spill
	jne	.LBB2_158
	jmp	.LBB2_159
.LBB2_157:                              # %Flow72
	movb	-378(%rbp), %al         # 1-byte Reload
	movb	-377(%rbp), %cl         # 1-byte Reload
	xorl	%edx, %edx
	movb	%dl, %sil
	testb	$1, %al
	movb	%sil, -381(%rbp)        # 1-byte Spill
	movb	%cl, -382(%rbp)         # 1-byte Spill
	jne	.LBB2_160
	jmp	.LBB2_161
.LBB2_158:
	movss	-372(%rbp), %xmm0       # 4-byte Reload
                                        # xmm0 = mem[0],zero,zero,zero
	movss	-376(%rbp), %xmm1       # 4-byte Reload
                                        # xmm1 = mem[0],zero,zero,zero
	ucomiss	%xmm1, %xmm0
	setae	%al
	xorb	$-1, %al
	movb	$1, %cl
	movb	%cl, -379(%rbp)         # 1-byte Spill
	movb	%al, -380(%rbp)         # 1-byte Spill
.LBB2_159:                              # %Flow73
	movb	-380(%rbp), %al         # 1-byte Reload
	movb	-379(%rbp), %cl         # 1-byte Reload
	movb	%cl, -377(%rbp)         # 1-byte Spill
	movb	%al, -378(%rbp)         # 1-byte Spill
	jmp	.LBB2_157
.LBB2_160:
	xorl	%eax, %eax
	movb	%al, %cl
	xorps	%xmm0, %xmm0
	movss	-372(%rbp), %xmm1       # 4-byte Reload
                                        # xmm1 = mem[0],zero,zero,zero
	ucomiss	%xmm1, %xmm0
	seta	%dl
	movb	%dl, %sil
	xorb	$-1, %sil
	testb	$1, %dl
	movb	%sil, -383(%rbp)        # 1-byte Spill
	movb	%cl, -384(%rbp)         # 1-byte Spill
	jne	.LBB2_162
	jmp	.LBB2_163
.LBB2_161:                              # %Flow74
	movb	-382(%rbp), %al         # 1-byte Reload
	movb	-381(%rbp), %cl         # 1-byte Reload
	xorl	%edx, %edx
	movb	%dl, %sil
	testb	$1, %al
	movb	%sil, -385(%rbp)        # 1-byte Spill
	movb	%cl, -386(%rbp)         # 1-byte Spill
	jne	.LBB2_166
	jmp	.LBB2_167
.LBB2_162:
	xorl	%eax, %eax
	movb	%al, %cl
	xorps	%xmm0, %xmm0
	movss	-376(%rbp), %xmm1       # 4-byte Reload
                                        # xmm1 = mem[0],zero,zero,zero
	ucomiss	%xmm1, %xmm0
	setae	%dl
	movb	%dl, %sil
	xorb	$-1, %sil
	testb	$1, %dl
	movb	%sil, -387(%rbp)        # 1-byte Spill
	movb	%cl, -388(%rbp)         # 1-byte Spill
	jne	.LBB2_164
	jmp	.LBB2_165
.LBB2_163:                              # %Flow75
	movb	-384(%rbp), %al         # 1-byte Reload
	movb	-383(%rbp), %cl         # 1-byte Reload
	movb	%cl, -381(%rbp)         # 1-byte Spill
	movb	%al, -382(%rbp)         # 1-byte Spill
	jmp	.LBB2_161
.LBB2_164:
	movss	-376(%rbp), %xmm0       # 4-byte Reload
                                        # xmm0 = mem[0],zero,zero,zero
	movss	-372(%rbp), %xmm1       # 4-byte Reload
                                        # xmm1 = mem[0],zero,zero,zero
	ucomiss	%xmm1, %xmm0
	setae	%al
	movb	$1, %cl
	movb	%cl, -387(%rbp)         # 1-byte Spill
	movb	%al, -388(%rbp)         # 1-byte Spill
.LBB2_165:                              # %Flow76
	movb	-388(%rbp), %al         # 1-byte Reload
	movb	-387(%rbp), %cl         # 1-byte Reload
	movb	%cl, -383(%rbp)         # 1-byte Spill
	movb	%al, -384(%rbp)         # 1-byte Spill
	jmp	.LBB2_163
.LBB2_166:
	movss	-292(%rbp), %xmm0       # 4-byte Reload
                                        # xmm0 = mem[0],zero,zero,zero
	movss	-368(%rbp), %xmm1       # 4-byte Reload
                                        # xmm1 = mem[0],zero,zero,zero
	mulss	%xmm1, %xmm0
	movss	-296(%rbp), %xmm2       # 4-byte Reload
                                        # xmm2 = mem[0],zero,zero,zero
	movss	-364(%rbp), %xmm3       # 4-byte Reload
                                        # xmm3 = mem[0],zero,zero,zero
	mulss	%xmm3, %xmm2
	subss	%xmm2, %xmm0
	movss	%xmm0, -392(%rbp)       # 4-byte Spill
	jmp	.LBB2_168
.LBB2_167:                              # %Flow77
	movb	-386(%rbp), %al         # 1-byte Reload
	movb	-385(%rbp), %cl         # 1-byte Reload
	testb	$1, %al
	movl	$1, %edx
	movb	%cl, -393(%rbp)         # 1-byte Spill
	movl	%edx, -400(%rbp)        # 4-byte Spill
	jne	.LBB2_187
	jmp	.LBB2_188
.LBB2_168:
	jmp	.LBB2_169
.LBB2_169:
	xorl	%eax, %eax
	movb	%al, %cl
	xorps	%xmm0, %xmm0
	movss	-372(%rbp), %xmm1       # 4-byte Reload
                                        # xmm1 = mem[0],zero,zero,zero
	ucomiss	%xmm0, %xmm1
	seta	%dl
	xorb	$-1, %dl
	testb	$1, %dl
	movb	$1, %dl
	movb	%cl, -401(%rbp)         # 1-byte Spill
	movb	%dl, -402(%rbp)         # 1-byte Spill
	jne	.LBB2_177
	jmp	.LBB2_178
.LBB2_170:                              # %Flow81
	xorl	%eax, %eax
	movb	%al, %cl
	movb	-403(%rbp), %dl         # 1-byte Reload
	movb	%dl, -401(%rbp)         # 1-byte Spill
	movb	%cl, -402(%rbp)         # 1-byte Spill
	jmp	.LBB2_178
.LBB2_171:
	xorl	%eax, %eax
	movb	%al, %cl
	xorps	%xmm0, %xmm0
	movss	-392(%rbp), %xmm1       # 4-byte Reload
                                        # xmm1 = mem[0],zero,zero,zero
	ucomiss	%xmm0, %xmm1
	setae	%dl
	movb	%dl, %sil
	xorb	$-1, %sil
	testb	$1, %dl
	movb	%cl, -404(%rbp)         # 1-byte Spill
	movb	%sil, -405(%rbp)        # 1-byte Spill
	jne	.LBB2_173
	jmp	.LBB2_175
.LBB2_172:                              # %Flow82
	movb	-406(%rbp), %al         # 1-byte Reload
	movb	-407(%rbp), %cl         # 1-byte Reload
	xorl	%edx, %edx
	movb	%dl, %sil
	testb	$1, %al
	movb	%cl, -408(%rbp)         # 1-byte Spill
	movb	%sil, -409(%rbp)        # 1-byte Spill
	jne	.LBB2_185
	jmp	.LBB2_186
.LBB2_173:
	movss	-372(%rbp), %xmm0       # 4-byte Reload
                                        # xmm0 = mem[0],zero,zero,zero
	movss	-392(%rbp), %xmm1       # 4-byte Reload
                                        # xmm1 = mem[0],zero,zero,zero
	ucomiss	%xmm1, %xmm0
	setae	%al
	xorb	$-1, %al
	movb	$1, %cl
	movb	%cl, -404(%rbp)         # 1-byte Spill
	movb	%al, -405(%rbp)         # 1-byte Spill
	jmp	.LBB2_175
.LBB2_174:
	movl	$1, %eax
	movl	%eax, -416(%rbp)        # 4-byte Spill
	jmp	.LBB2_353
.LBB2_175:                              # %Flow83
	movb	-405(%rbp), %al         # 1-byte Reload
	movb	-404(%rbp), %cl         # 1-byte Reload
	testb	$1, %al
	movb	-417(%rbp), %al         # 1-byte Reload
	movb	%cl, -418(%rbp)         # 1-byte Spill
	movb	%al, -419(%rbp)         # 1-byte Spill
	jne	.LBB2_176
	jmp	.LBB2_184
.LBB2_176:
	xorl	%eax, %eax
	movb	%al, %cl
	movb	$1, %dl
	movb	%cl, -418(%rbp)         # 1-byte Spill
	movb	%dl, -419(%rbp)         # 1-byte Spill
	jmp	.LBB2_184
.LBB2_177:
	xorl	%eax, %eax
	movb	%al, %cl
	xorps	%xmm0, %xmm0
	movss	-392(%rbp), %xmm1       # 4-byte Reload
                                        # xmm1 = mem[0],zero,zero,zero
	ucomiss	%xmm1, %xmm0
	setae	%dl
	movb	%dl, %sil
	xorb	$-1, %sil
	testb	$1, %dl
	movb	%cl, -420(%rbp)         # 1-byte Spill
	movb	%sil, -421(%rbp)        # 1-byte Spill
	jne	.LBB2_179
	jmp	.LBB2_182
.LBB2_178:                              # %Flow78
	movb	-402(%rbp), %al         # 1-byte Reload
	movb	-401(%rbp), %cl         # 1-byte Reload
	xorl	%edx, %edx
	movb	%dl, %sil
	testb	$1, %al
	movb	%cl, %al
	movb	%cl, -417(%rbp)         # 1-byte Spill
	movb	%sil, -407(%rbp)        # 1-byte Spill
	movb	%al, -406(%rbp)         # 1-byte Spill
	jne	.LBB2_171
	jmp	.LBB2_172
.LBB2_179:
	movss	-392(%rbp), %xmm0       # 4-byte Reload
                                        # xmm0 = mem[0],zero,zero,zero
	movss	-372(%rbp), %xmm1       # 4-byte Reload
                                        # xmm1 = mem[0],zero,zero,zero
	ucomiss	%xmm1, %xmm0
	setae	%al
	xorb	$-1, %al
	movb	$1, %cl
	movb	%cl, -420(%rbp)         # 1-byte Spill
	movb	%al, -421(%rbp)         # 1-byte Spill
	jmp	.LBB2_182
.LBB2_180:                              # %Flow80
	movb	-422(%rbp), %al         # 1-byte Reload
	movb	-423(%rbp), %cl         # 1-byte Reload
	testb	$1, %al
	movb	%cl, -403(%rbp)         # 1-byte Spill
	jne	.LBB2_181
	jmp	.LBB2_170
.LBB2_181:
	jmp	.LBB2_170
.LBB2_182:                              # %Flow79
	movb	-421(%rbp), %al         # 1-byte Reload
	movb	-420(%rbp), %cl         # 1-byte Reload
	xorl	%edx, %edx
	movb	%dl, %sil
	testb	$1, %al
	movb	%sil, -423(%rbp)        # 1-byte Spill
	movb	%cl, -422(%rbp)         # 1-byte Spill
	jne	.LBB2_183
	jmp	.LBB2_180
.LBB2_183:
	xorl	%eax, %eax
	movb	%al, %cl
	movb	$1, %dl
	movb	%dl, -423(%rbp)         # 1-byte Spill
	movb	%cl, -422(%rbp)         # 1-byte Spill
	jmp	.LBB2_180
.LBB2_184:                              # %Flow84
	movb	-419(%rbp), %al         # 1-byte Reload
	movb	-418(%rbp), %cl         # 1-byte Reload
	movb	%cl, -407(%rbp)         # 1-byte Spill
	movb	%al, -406(%rbp)         # 1-byte Spill
	jmp	.LBB2_172
.LBB2_185:
	movb	$1, %al
	movb	%al, -409(%rbp)         # 1-byte Spill
	jmp	.LBB2_186
.LBB2_186:                              # %Flow85
	movb	-409(%rbp), %al         # 1-byte Reload
	movb	-408(%rbp), %cl         # 1-byte Reload
	movb	%cl, -385(%rbp)         # 1-byte Spill
	movb	%al, -386(%rbp)         # 1-byte Spill
	jmp	.LBB2_167
.LBB2_187:
	movw	-86(%rbp), %ax          # 2-byte Reload
	movswq	%ax, %rcx
	movq	-24(%rbp), %rdx         # 8-byte Reload
	movss	(%rdx,%rcx,4), %xmm0    # xmm0 = mem[0],zero,zero,zero
	movswq	%ax, %rcx
	movq	-40(%rbp), %rsi         # 8-byte Reload
	subss	(%rsi,%rcx,4), %xmm0
	movw	-88(%rbp), %di          # 2-byte Reload
	movswq	%di, %rcx
	movss	(%rdx,%rcx,4), %xmm1    # xmm1 = mem[0],zero,zero,zero
	movswq	%di, %rcx
	subss	(%rsi,%rcx,4), %xmm1
	movswq	%ax, %rcx
	movq	-56(%rbp), %r8          # 8-byte Reload
	movss	(%r8,%rcx,4), %xmm2     # xmm2 = mem[0],zero,zero,zero
	movswq	%ax, %rcx
	subss	(%rdx,%rcx,4), %xmm2
	movswq	%di, %rcx
	movss	(%r8,%rcx,4), %xmm3     # xmm3 = mem[0],zero,zero,zero
	movswq	%di, %rcx
	subss	(%rdx,%rcx,4), %xmm3
	movss	-296(%rbp), %xmm4       # 4-byte Reload
                                        # xmm4 = mem[0],zero,zero,zero
	mulss	%xmm0, %xmm4
	movss	-292(%rbp), %xmm5       # 4-byte Reload
                                        # xmm5 = mem[0],zero,zero,zero
	mulss	%xmm1, %xmm5
	subss	%xmm5, %xmm4
	mulss	%xmm2, %xmm1
	mulss	%xmm3, %xmm0
	subss	%xmm0, %xmm1
	movss	%xmm2, -428(%rbp)       # 4-byte Spill
	movss	%xmm3, -432(%rbp)       # 4-byte Spill
	movss	%xmm4, -436(%rbp)       # 4-byte Spill
	movss	%xmm1, -440(%rbp)       # 4-byte Spill
	jmp	.LBB2_189
.LBB2_188:                              # %Flow86
	movl	-400(%rbp), %eax        # 4-byte Reload
	movb	-393(%rbp), %cl         # 1-byte Reload
	testb	$1, %cl
	movl	%eax, -416(%rbp)        # 4-byte Spill
	jne	.LBB2_174
	jmp	.LBB2_353
.LBB2_189:
	jmp	.LBB2_190
.LBB2_190:
	xorl	%eax, %eax
	movb	%al, %cl
	xorps	%xmm0, %xmm0
	movss	-436(%rbp), %xmm1       # 4-byte Reload
                                        # xmm1 = mem[0],zero,zero,zero
	ucomiss	%xmm0, %xmm1
	seta	%dl
	movb	%dl, %sil
	xorb	$-1, %sil
	testb	$1, %dl
	movb	%cl, -441(%rbp)         # 1-byte Spill
	movb	%sil, -442(%rbp)        # 1-byte Spill
	jne	.LBB2_191
	jmp	.LBB2_192
.LBB2_191:
	xorl	%eax, %eax
	movb	%al, %cl
	xorps	%xmm0, %xmm0
	movss	-440(%rbp), %xmm1       # 4-byte Reload
                                        # xmm1 = mem[0],zero,zero,zero
	ucomiss	%xmm0, %xmm1
	setae	%dl
	movb	%dl, %sil
	xorb	$-1, %sil
	testb	$1, %dl
	movb	%cl, -443(%rbp)         # 1-byte Spill
	movb	%sil, -444(%rbp)        # 1-byte Spill
	jne	.LBB2_193
	jmp	.LBB2_194
.LBB2_192:                              # %Flow56
	movb	-442(%rbp), %al         # 1-byte Reload
	movb	-441(%rbp), %cl         # 1-byte Reload
	xorl	%edx, %edx
	movb	%dl, %sil
	testb	$1, %al
	movb	%sil, -445(%rbp)        # 1-byte Spill
	movb	%cl, -446(%rbp)         # 1-byte Spill
	jne	.LBB2_195
	jmp	.LBB2_196
.LBB2_193:
	movss	-436(%rbp), %xmm0       # 4-byte Reload
                                        # xmm0 = mem[0],zero,zero,zero
	movss	-440(%rbp), %xmm1       # 4-byte Reload
                                        # xmm1 = mem[0],zero,zero,zero
	ucomiss	%xmm1, %xmm0
	setae	%al
	xorb	$-1, %al
	movb	$1, %cl
	movb	%cl, -443(%rbp)         # 1-byte Spill
	movb	%al, -444(%rbp)         # 1-byte Spill
.LBB2_194:                              # %Flow57
	movb	-444(%rbp), %al         # 1-byte Reload
	movb	-443(%rbp), %cl         # 1-byte Reload
	movb	%cl, -441(%rbp)         # 1-byte Spill
	movb	%al, -442(%rbp)         # 1-byte Spill
	jmp	.LBB2_192
.LBB2_195:
	xorl	%eax, %eax
	movb	%al, %cl
	xorps	%xmm0, %xmm0
	movss	-436(%rbp), %xmm1       # 4-byte Reload
                                        # xmm1 = mem[0],zero,zero,zero
	ucomiss	%xmm1, %xmm0
	seta	%dl
	movb	%dl, %sil
	xorb	$-1, %sil
	testb	$1, %dl
	movb	%sil, -447(%rbp)        # 1-byte Spill
	movb	%cl, -448(%rbp)         # 1-byte Spill
	jne	.LBB2_197
	jmp	.LBB2_198
.LBB2_196:                              # %Flow58
	movb	-446(%rbp), %al         # 1-byte Reload
	movb	-445(%rbp), %cl         # 1-byte Reload
	xorl	%edx, %edx
	movb	%dl, %sil
	testb	$1, %al
	movb	%sil, -449(%rbp)        # 1-byte Spill
	movb	%cl, -450(%rbp)         # 1-byte Spill
	jne	.LBB2_201
	jmp	.LBB2_202
.LBB2_197:
	xorl	%eax, %eax
	movb	%al, %cl
	xorps	%xmm0, %xmm0
	movss	-440(%rbp), %xmm1       # 4-byte Reload
                                        # xmm1 = mem[0],zero,zero,zero
	ucomiss	%xmm1, %xmm0
	setae	%dl
	movb	%dl, %sil
	xorb	$-1, %sil
	testb	$1, %dl
	movb	%sil, -451(%rbp)        # 1-byte Spill
	movb	%cl, -452(%rbp)         # 1-byte Spill
	jne	.LBB2_199
	jmp	.LBB2_200
.LBB2_198:                              # %Flow59
	movb	-448(%rbp), %al         # 1-byte Reload
	movb	-447(%rbp), %cl         # 1-byte Reload
	movb	%cl, -445(%rbp)         # 1-byte Spill
	movb	%al, -446(%rbp)         # 1-byte Spill
	jmp	.LBB2_196
.LBB2_199:
	movss	-440(%rbp), %xmm0       # 4-byte Reload
                                        # xmm0 = mem[0],zero,zero,zero
	movss	-436(%rbp), %xmm1       # 4-byte Reload
                                        # xmm1 = mem[0],zero,zero,zero
	ucomiss	%xmm1, %xmm0
	setae	%al
	movb	$1, %cl
	movb	%cl, -451(%rbp)         # 1-byte Spill
	movb	%al, -452(%rbp)         # 1-byte Spill
.LBB2_200:                              # %Flow60
	movb	-452(%rbp), %al         # 1-byte Reload
	movb	-451(%rbp), %cl         # 1-byte Reload
	movb	%cl, -447(%rbp)         # 1-byte Spill
	movb	%al, -448(%rbp)         # 1-byte Spill
	jmp	.LBB2_198
.LBB2_201:
	movss	-292(%rbp), %xmm0       # 4-byte Reload
                                        # xmm0 = mem[0],zero,zero,zero
	movss	-432(%rbp), %xmm1       # 4-byte Reload
                                        # xmm1 = mem[0],zero,zero,zero
	mulss	%xmm1, %xmm0
	movss	-296(%rbp), %xmm2       # 4-byte Reload
                                        # xmm2 = mem[0],zero,zero,zero
	movss	-428(%rbp), %xmm3       # 4-byte Reload
                                        # xmm3 = mem[0],zero,zero,zero
	mulss	%xmm3, %xmm2
	subss	%xmm2, %xmm0
	movss	%xmm0, -456(%rbp)       # 4-byte Spill
	jmp	.LBB2_203
.LBB2_202:                              # %Flow61
	movb	-450(%rbp), %al         # 1-byte Reload
	movb	-449(%rbp), %cl         # 1-byte Reload
	testb	$1, %al
	movl	$1, %edx
	movb	%cl, -457(%rbp)         # 1-byte Spill
	movl	%edx, -464(%rbp)        # 4-byte Spill
	jne	.LBB2_222
	jmp	.LBB2_223
.LBB2_203:
	jmp	.LBB2_204
.LBB2_204:
	xorl	%eax, %eax
	movb	%al, %cl
	xorps	%xmm0, %xmm0
	movss	-436(%rbp), %xmm1       # 4-byte Reload
                                        # xmm1 = mem[0],zero,zero,zero
	ucomiss	%xmm0, %xmm1
	seta	%dl
	xorb	$-1, %dl
	testb	$1, %dl
	movb	$1, %dl
	movb	%cl, -465(%rbp)         # 1-byte Spill
	movb	%dl, -466(%rbp)         # 1-byte Spill
	jne	.LBB2_212
	jmp	.LBB2_213
.LBB2_205:                              # %Flow65
	xorl	%eax, %eax
	movb	%al, %cl
	movb	-467(%rbp), %dl         # 1-byte Reload
	movb	%dl, -465(%rbp)         # 1-byte Spill
	movb	%cl, -466(%rbp)         # 1-byte Spill
	jmp	.LBB2_213
.LBB2_206:
	xorl	%eax, %eax
	movb	%al, %cl
	xorps	%xmm0, %xmm0
	movss	-456(%rbp), %xmm1       # 4-byte Reload
                                        # xmm1 = mem[0],zero,zero,zero
	ucomiss	%xmm0, %xmm1
	setae	%dl
	movb	%dl, %sil
	xorb	$-1, %sil
	testb	$1, %dl
	movb	%cl, -468(%rbp)         # 1-byte Spill
	movb	%sil, -469(%rbp)        # 1-byte Spill
	jne	.LBB2_208
	jmp	.LBB2_210
.LBB2_207:                              # %Flow66
	movb	-470(%rbp), %al         # 1-byte Reload
	movb	-471(%rbp), %cl         # 1-byte Reload
	xorl	%edx, %edx
	movb	%dl, %sil
	testb	$1, %al
	movb	%cl, -472(%rbp)         # 1-byte Spill
	movb	%sil, -473(%rbp)        # 1-byte Spill
	jne	.LBB2_220
	jmp	.LBB2_221
.LBB2_208:
	movss	-436(%rbp), %xmm0       # 4-byte Reload
                                        # xmm0 = mem[0],zero,zero,zero
	movss	-456(%rbp), %xmm1       # 4-byte Reload
                                        # xmm1 = mem[0],zero,zero,zero
	ucomiss	%xmm1, %xmm0
	setae	%al
	xorb	$-1, %al
	movb	$1, %cl
	movb	%cl, -468(%rbp)         # 1-byte Spill
	movb	%al, -469(%rbp)         # 1-byte Spill
	jmp	.LBB2_210
.LBB2_209:
	movl	$1, %eax
	movl	%eax, -480(%rbp)        # 4-byte Spill
	jmp	.LBB2_352
.LBB2_210:                              # %Flow67
	movb	-469(%rbp), %al         # 1-byte Reload
	movb	-468(%rbp), %cl         # 1-byte Reload
	testb	$1, %al
	movb	-481(%rbp), %al         # 1-byte Reload
	movb	%cl, -482(%rbp)         # 1-byte Spill
	movb	%al, -483(%rbp)         # 1-byte Spill
	jne	.LBB2_211
	jmp	.LBB2_219
.LBB2_211:
	xorl	%eax, %eax
	movb	%al, %cl
	movb	$1, %dl
	movb	%cl, -482(%rbp)         # 1-byte Spill
	movb	%dl, -483(%rbp)         # 1-byte Spill
	jmp	.LBB2_219
.LBB2_212:
	xorl	%eax, %eax
	movb	%al, %cl
	xorps	%xmm0, %xmm0
	movss	-456(%rbp), %xmm1       # 4-byte Reload
                                        # xmm1 = mem[0],zero,zero,zero
	ucomiss	%xmm1, %xmm0
	setae	%dl
	movb	%dl, %sil
	xorb	$-1, %sil
	testb	$1, %dl
	movb	%cl, -484(%rbp)         # 1-byte Spill
	movb	%sil, -485(%rbp)        # 1-byte Spill
	jne	.LBB2_214
	jmp	.LBB2_217
.LBB2_213:                              # %Flow62
	movb	-466(%rbp), %al         # 1-byte Reload
	movb	-465(%rbp), %cl         # 1-byte Reload
	xorl	%edx, %edx
	movb	%dl, %sil
	testb	$1, %al
	movb	%cl, %al
	movb	%cl, -481(%rbp)         # 1-byte Spill
	movb	%sil, -471(%rbp)        # 1-byte Spill
	movb	%al, -470(%rbp)         # 1-byte Spill
	jne	.LBB2_206
	jmp	.LBB2_207
.LBB2_214:
	movss	-456(%rbp), %xmm0       # 4-byte Reload
                                        # xmm0 = mem[0],zero,zero,zero
	movss	-436(%rbp), %xmm1       # 4-byte Reload
                                        # xmm1 = mem[0],zero,zero,zero
	ucomiss	%xmm1, %xmm0
	setae	%al
	xorb	$-1, %al
	movb	$1, %cl
	movb	%cl, -484(%rbp)         # 1-byte Spill
	movb	%al, -485(%rbp)         # 1-byte Spill
	jmp	.LBB2_217
.LBB2_215:                              # %Flow64
	movb	-486(%rbp), %al         # 1-byte Reload
	movb	-487(%rbp), %cl         # 1-byte Reload
	testb	$1, %al
	movb	%cl, -467(%rbp)         # 1-byte Spill
	jne	.LBB2_216
	jmp	.LBB2_205
.LBB2_216:
	jmp	.LBB2_205
.LBB2_217:                              # %Flow63
	movb	-485(%rbp), %al         # 1-byte Reload
	movb	-484(%rbp), %cl         # 1-byte Reload
	xorl	%edx, %edx
	movb	%dl, %sil
	testb	$1, %al
	movb	%sil, -487(%rbp)        # 1-byte Spill
	movb	%cl, -486(%rbp)         # 1-byte Spill
	jne	.LBB2_218
	jmp	.LBB2_215
.LBB2_218:
	xorl	%eax, %eax
	movb	%al, %cl
	movb	$1, %dl
	movb	%dl, -487(%rbp)         # 1-byte Spill
	movb	%cl, -486(%rbp)         # 1-byte Spill
	jmp	.LBB2_215
.LBB2_219:                              # %Flow68
	movb	-483(%rbp), %al         # 1-byte Reload
	movb	-482(%rbp), %cl         # 1-byte Reload
	movb	%cl, -471(%rbp)         # 1-byte Spill
	movb	%al, -470(%rbp)         # 1-byte Spill
	jmp	.LBB2_207
.LBB2_220:
	movb	$1, %al
	movb	%al, -473(%rbp)         # 1-byte Spill
	jmp	.LBB2_221
.LBB2_221:                              # %Flow69
	movb	-473(%rbp), %al         # 1-byte Reload
	movb	-472(%rbp), %cl         # 1-byte Reload
	movb	%cl, -449(%rbp)         # 1-byte Spill
	movb	%al, -450(%rbp)         # 1-byte Spill
	jmp	.LBB2_202
.LBB2_222:
	movw	-86(%rbp), %ax          # 2-byte Reload
	movswq	%ax, %rcx
	movq	-64(%rbp), %rdx         # 8-byte Reload
	movss	(%rdx,%rcx,4), %xmm0    # xmm0 = mem[0],zero,zero,zero
	movswq	%ax, %rcx
	movq	-48(%rbp), %rsi         # 8-byte Reload
	subss	(%rsi,%rcx,4), %xmm0
	movw	-88(%rbp), %di          # 2-byte Reload
	movswq	%di, %rcx
	movss	(%rdx,%rcx,4), %xmm1    # xmm1 = mem[0],zero,zero,zero
	movswq	%di, %rcx
	subss	(%rsi,%rcx,4), %xmm1
	movswq	%ax, %rcx
	movq	-40(%rbp), %r8          # 8-byte Reload
	movss	(%r8,%rcx,4), %xmm2     # xmm2 = mem[0],zero,zero,zero
	movswq	%ax, %rcx
	movq	-32(%rbp), %r9          # 8-byte Reload
	subss	(%r9,%rcx,4), %xmm2
	movswq	%di, %rcx
	movss	(%r8,%rcx,4), %xmm3     # xmm3 = mem[0],zero,zero,zero
	movswq	%di, %rcx
	subss	(%r9,%rcx,4), %xmm3
	movswq	%ax, %rcx
	movss	(%rsi,%rcx,4), %xmm4    # xmm4 = mem[0],zero,zero,zero
	movswq	%ax, %rcx
	subss	(%r8,%rcx,4), %xmm4
	movswq	%di, %rcx
	movss	(%rsi,%rcx,4), %xmm5    # xmm5 = mem[0],zero,zero,zero
	movswq	%di, %rcx
	subss	(%r8,%rcx,4), %xmm5
	movaps	%xmm1, %xmm6
	mulss	%xmm2, %xmm6
	movaps	%xmm0, %xmm7
	mulss	%xmm3, %xmm7
	subss	%xmm7, %xmm6
	mulss	%xmm4, %xmm3
	mulss	%xmm5, %xmm2
	subss	%xmm2, %xmm3
	movss	%xmm0, -492(%rbp)       # 4-byte Spill
	movss	%xmm1, -496(%rbp)       # 4-byte Spill
	movss	%xmm4, -500(%rbp)       # 4-byte Spill
	movss	%xmm5, -504(%rbp)       # 4-byte Spill
	movss	%xmm6, -508(%rbp)       # 4-byte Spill
	movss	%xmm3, -512(%rbp)       # 4-byte Spill
	jmp	.LBB2_224
.LBB2_223:                              # %Flow70
	movl	-464(%rbp), %eax        # 4-byte Reload
	movb	-457(%rbp), %cl         # 1-byte Reload
	testb	$1, %cl
	movl	%eax, -480(%rbp)        # 4-byte Spill
	jne	.LBB2_209
	jmp	.LBB2_352
.LBB2_224:
	jmp	.LBB2_225
.LBB2_225:
	xorl	%eax, %eax
	movb	%al, %cl
	xorps	%xmm0, %xmm0
	movss	-508(%rbp), %xmm1       # 4-byte Reload
                                        # xmm1 = mem[0],zero,zero,zero
	ucomiss	%xmm0, %xmm1
	seta	%dl
	movb	%dl, %sil
	xorb	$-1, %sil
	testb	$1, %dl
	movb	%cl, -513(%rbp)         # 1-byte Spill
	movb	%sil, -514(%rbp)        # 1-byte Spill
	jne	.LBB2_226
	jmp	.LBB2_227
.LBB2_226:
	xorl	%eax, %eax
	movb	%al, %cl
	xorps	%xmm0, %xmm0
	movss	-512(%rbp), %xmm1       # 4-byte Reload
                                        # xmm1 = mem[0],zero,zero,zero
	ucomiss	%xmm0, %xmm1
	setae	%dl
	movb	%dl, %sil
	xorb	$-1, %sil
	testb	$1, %dl
	movb	%cl, -515(%rbp)         # 1-byte Spill
	movb	%sil, -516(%rbp)        # 1-byte Spill
	jne	.LBB2_228
	jmp	.LBB2_229
.LBB2_227:                              # %Flow40
	movb	-514(%rbp), %al         # 1-byte Reload
	movb	-513(%rbp), %cl         # 1-byte Reload
	xorl	%edx, %edx
	movb	%dl, %sil
	testb	$1, %al
	movb	%sil, -517(%rbp)        # 1-byte Spill
	movb	%cl, -518(%rbp)         # 1-byte Spill
	jne	.LBB2_230
	jmp	.LBB2_231
.LBB2_228:
	movss	-508(%rbp), %xmm0       # 4-byte Reload
                                        # xmm0 = mem[0],zero,zero,zero
	movss	-512(%rbp), %xmm1       # 4-byte Reload
                                        # xmm1 = mem[0],zero,zero,zero
	ucomiss	%xmm1, %xmm0
	setae	%al
	xorb	$-1, %al
	movb	$1, %cl
	movb	%cl, -515(%rbp)         # 1-byte Spill
	movb	%al, -516(%rbp)         # 1-byte Spill
.LBB2_229:                              # %Flow41
	movb	-516(%rbp), %al         # 1-byte Reload
	movb	-515(%rbp), %cl         # 1-byte Reload
	movb	%cl, -513(%rbp)         # 1-byte Spill
	movb	%al, -514(%rbp)         # 1-byte Spill
	jmp	.LBB2_227
.LBB2_230:
	xorl	%eax, %eax
	movb	%al, %cl
	xorps	%xmm0, %xmm0
	movss	-508(%rbp), %xmm1       # 4-byte Reload
                                        # xmm1 = mem[0],zero,zero,zero
	ucomiss	%xmm1, %xmm0
	seta	%dl
	movb	%dl, %sil
	xorb	$-1, %sil
	testb	$1, %dl
	movb	%sil, -519(%rbp)        # 1-byte Spill
	movb	%cl, -520(%rbp)         # 1-byte Spill
	jne	.LBB2_232
	jmp	.LBB2_233
.LBB2_231:                              # %Flow42
	movb	-518(%rbp), %al         # 1-byte Reload
	movb	-517(%rbp), %cl         # 1-byte Reload
	xorl	%edx, %edx
	movb	%dl, %sil
	testb	$1, %al
	movb	%sil, -521(%rbp)        # 1-byte Spill
	movb	%cl, -522(%rbp)         # 1-byte Spill
	jne	.LBB2_236
	jmp	.LBB2_237
.LBB2_232:
	xorl	%eax, %eax
	movb	%al, %cl
	xorps	%xmm0, %xmm0
	movss	-512(%rbp), %xmm1       # 4-byte Reload
                                        # xmm1 = mem[0],zero,zero,zero
	ucomiss	%xmm1, %xmm0
	setae	%dl
	movb	%dl, %sil
	xorb	$-1, %sil
	testb	$1, %dl
	movb	%sil, -523(%rbp)        # 1-byte Spill
	movb	%cl, -524(%rbp)         # 1-byte Spill
	jne	.LBB2_234
	jmp	.LBB2_235
.LBB2_233:                              # %Flow43
	movb	-520(%rbp), %al         # 1-byte Reload
	movb	-519(%rbp), %cl         # 1-byte Reload
	movb	%cl, -517(%rbp)         # 1-byte Spill
	movb	%al, -518(%rbp)         # 1-byte Spill
	jmp	.LBB2_231
.LBB2_234:
	movss	-512(%rbp), %xmm0       # 4-byte Reload
                                        # xmm0 = mem[0],zero,zero,zero
	movss	-508(%rbp), %xmm1       # 4-byte Reload
                                        # xmm1 = mem[0],zero,zero,zero
	ucomiss	%xmm1, %xmm0
	setae	%al
	movb	$1, %cl
	movb	%cl, -523(%rbp)         # 1-byte Spill
	movb	%al, -524(%rbp)         # 1-byte Spill
.LBB2_235:                              # %Flow44
	movb	-524(%rbp), %al         # 1-byte Reload
	movb	-523(%rbp), %cl         # 1-byte Reload
	movb	%cl, -519(%rbp)         # 1-byte Spill
	movb	%al, -520(%rbp)         # 1-byte Spill
	jmp	.LBB2_233
.LBB2_236:
	movss	-492(%rbp), %xmm0       # 4-byte Reload
                                        # xmm0 = mem[0],zero,zero,zero
	movss	-504(%rbp), %xmm1       # 4-byte Reload
                                        # xmm1 = mem[0],zero,zero,zero
	mulss	%xmm1, %xmm0
	movss	-496(%rbp), %xmm2       # 4-byte Reload
                                        # xmm2 = mem[0],zero,zero,zero
	movss	-500(%rbp), %xmm3       # 4-byte Reload
                                        # xmm3 = mem[0],zero,zero,zero
	mulss	%xmm3, %xmm2
	subss	%xmm2, %xmm0
	movss	%xmm0, -528(%rbp)       # 4-byte Spill
	jmp	.LBB2_238
.LBB2_237:                              # %Flow45
	movb	-522(%rbp), %al         # 1-byte Reload
	movb	-521(%rbp), %cl         # 1-byte Reload
	testb	$1, %al
	movl	$1, %edx
	movb	%cl, -529(%rbp)         # 1-byte Spill
	movl	%edx, -536(%rbp)        # 4-byte Spill
	jne	.LBB2_257
	jmp	.LBB2_258
.LBB2_238:
	jmp	.LBB2_239
.LBB2_239:
	xorl	%eax, %eax
	movb	%al, %cl
	xorps	%xmm0, %xmm0
	movss	-508(%rbp), %xmm1       # 4-byte Reload
                                        # xmm1 = mem[0],zero,zero,zero
	ucomiss	%xmm0, %xmm1
	seta	%dl
	xorb	$-1, %dl
	testb	$1, %dl
	movb	$1, %dl
	movb	%cl, -537(%rbp)         # 1-byte Spill
	movb	%dl, -538(%rbp)         # 1-byte Spill
	jne	.LBB2_247
	jmp	.LBB2_248
.LBB2_240:                              # %Flow49
	xorl	%eax, %eax
	movb	%al, %cl
	movb	-539(%rbp), %dl         # 1-byte Reload
	movb	%dl, -537(%rbp)         # 1-byte Spill
	movb	%cl, -538(%rbp)         # 1-byte Spill
	jmp	.LBB2_248
.LBB2_241:
	xorl	%eax, %eax
	movb	%al, %cl
	xorps	%xmm0, %xmm0
	movss	-528(%rbp), %xmm1       # 4-byte Reload
                                        # xmm1 = mem[0],zero,zero,zero
	ucomiss	%xmm0, %xmm1
	setae	%dl
	movb	%dl, %sil
	xorb	$-1, %sil
	testb	$1, %dl
	movb	%cl, -540(%rbp)         # 1-byte Spill
	movb	%sil, -541(%rbp)        # 1-byte Spill
	jne	.LBB2_243
	jmp	.LBB2_245
.LBB2_242:                              # %Flow50
	movb	-542(%rbp), %al         # 1-byte Reload
	movb	-543(%rbp), %cl         # 1-byte Reload
	xorl	%edx, %edx
	movb	%dl, %sil
	testb	$1, %al
	movb	%cl, -544(%rbp)         # 1-byte Spill
	movb	%sil, -545(%rbp)        # 1-byte Spill
	jne	.LBB2_255
	jmp	.LBB2_256
.LBB2_243:
	movss	-508(%rbp), %xmm0       # 4-byte Reload
                                        # xmm0 = mem[0],zero,zero,zero
	movss	-528(%rbp), %xmm1       # 4-byte Reload
                                        # xmm1 = mem[0],zero,zero,zero
	ucomiss	%xmm1, %xmm0
	setae	%al
	xorb	$-1, %al
	movb	$1, %cl
	movb	%cl, -540(%rbp)         # 1-byte Spill
	movb	%al, -541(%rbp)         # 1-byte Spill
	jmp	.LBB2_245
.LBB2_244:
	movl	$1, %eax
	movl	%eax, -552(%rbp)        # 4-byte Spill
	jmp	.LBB2_351
.LBB2_245:                              # %Flow51
	movb	-541(%rbp), %al         # 1-byte Reload
	movb	-540(%rbp), %cl         # 1-byte Reload
	testb	$1, %al
	movb	-553(%rbp), %al         # 1-byte Reload
	movb	%cl, -554(%rbp)         # 1-byte Spill
	movb	%al, -555(%rbp)         # 1-byte Spill
	jne	.LBB2_246
	jmp	.LBB2_254
.LBB2_246:
	xorl	%eax, %eax
	movb	%al, %cl
	movb	$1, %dl
	movb	%cl, -554(%rbp)         # 1-byte Spill
	movb	%dl, -555(%rbp)         # 1-byte Spill
	jmp	.LBB2_254
.LBB2_247:
	xorl	%eax, %eax
	movb	%al, %cl
	xorps	%xmm0, %xmm0
	movss	-528(%rbp), %xmm1       # 4-byte Reload
                                        # xmm1 = mem[0],zero,zero,zero
	ucomiss	%xmm1, %xmm0
	setae	%dl
	movb	%dl, %sil
	xorb	$-1, %sil
	testb	$1, %dl
	movb	%cl, -556(%rbp)         # 1-byte Spill
	movb	%sil, -557(%rbp)        # 1-byte Spill
	jne	.LBB2_249
	jmp	.LBB2_252
.LBB2_248:                              # %Flow46
	movb	-538(%rbp), %al         # 1-byte Reload
	movb	-537(%rbp), %cl         # 1-byte Reload
	xorl	%edx, %edx
	movb	%dl, %sil
	testb	$1, %al
	movb	%cl, %al
	movb	%cl, -553(%rbp)         # 1-byte Spill
	movb	%sil, -543(%rbp)        # 1-byte Spill
	movb	%al, -542(%rbp)         # 1-byte Spill
	jne	.LBB2_241
	jmp	.LBB2_242
.LBB2_249:
	movss	-528(%rbp), %xmm0       # 4-byte Reload
                                        # xmm0 = mem[0],zero,zero,zero
	movss	-508(%rbp), %xmm1       # 4-byte Reload
                                        # xmm1 = mem[0],zero,zero,zero
	ucomiss	%xmm1, %xmm0
	setae	%al
	xorb	$-1, %al
	movb	$1, %cl
	movb	%cl, -556(%rbp)         # 1-byte Spill
	movb	%al, -557(%rbp)         # 1-byte Spill
	jmp	.LBB2_252
.LBB2_250:                              # %Flow48
	movb	-558(%rbp), %al         # 1-byte Reload
	movb	-559(%rbp), %cl         # 1-byte Reload
	testb	$1, %al
	movb	%cl, -539(%rbp)         # 1-byte Spill
	jne	.LBB2_251
	jmp	.LBB2_240
.LBB2_251:
	jmp	.LBB2_240
.LBB2_252:                              # %Flow47
	movb	-557(%rbp), %al         # 1-byte Reload
	movb	-556(%rbp), %cl         # 1-byte Reload
	xorl	%edx, %edx
	movb	%dl, %sil
	testb	$1, %al
	movb	%sil, -559(%rbp)        # 1-byte Spill
	movb	%cl, -558(%rbp)         # 1-byte Spill
	jne	.LBB2_253
	jmp	.LBB2_250
.LBB2_253:
	xorl	%eax, %eax
	movb	%al, %cl
	movb	$1, %dl
	movb	%dl, -559(%rbp)         # 1-byte Spill
	movb	%cl, -558(%rbp)         # 1-byte Spill
	jmp	.LBB2_250
.LBB2_254:                              # %Flow52
	movb	-555(%rbp), %al         # 1-byte Reload
	movb	-554(%rbp), %cl         # 1-byte Reload
	movb	%cl, -543(%rbp)         # 1-byte Spill
	movb	%al, -542(%rbp)         # 1-byte Spill
	jmp	.LBB2_242
.LBB2_255:
	movb	$1, %al
	movb	%al, -545(%rbp)         # 1-byte Spill
	jmp	.LBB2_256
.LBB2_256:                              # %Flow53
	movb	-545(%rbp), %al         # 1-byte Reload
	movb	-544(%rbp), %cl         # 1-byte Reload
	movb	%cl, -521(%rbp)         # 1-byte Spill
	movb	%al, -522(%rbp)         # 1-byte Spill
	jmp	.LBB2_237
.LBB2_257:
	movw	-86(%rbp), %ax          # 2-byte Reload
	movswq	%ax, %rcx
	movq	-32(%rbp), %rdx         # 8-byte Reload
	movss	(%rdx,%rcx,4), %xmm0    # xmm0 = mem[0],zero,zero,zero
	movswq	%ax, %rcx
	movq	-24(%rbp), %rsi         # 8-byte Reload
	subss	(%rsi,%rcx,4), %xmm0
	movw	-88(%rbp), %di          # 2-byte Reload
	movswq	%di, %rcx
	movss	(%rdx,%rcx,4), %xmm1    # xmm1 = mem[0],zero,zero,zero
	movswq	%di, %rcx
	subss	(%rsi,%rcx,4), %xmm1
	movswq	%ax, %rcx
	movq	-48(%rbp), %r8          # 8-byte Reload
	movss	(%r8,%rcx,4), %xmm2     # xmm2 = mem[0],zero,zero,zero
	movswq	%ax, %rcx
	subss	(%rdx,%rcx,4), %xmm2
	movswq	%di, %rcx
	movss	(%r8,%rcx,4), %xmm3     # xmm3 = mem[0],zero,zero,zero
	movswq	%di, %rcx
	subss	(%rdx,%rcx,4), %xmm3
	movss	-496(%rbp), %xmm4       # 4-byte Reload
                                        # xmm4 = mem[0],zero,zero,zero
	mulss	%xmm0, %xmm4
	movss	-492(%rbp), %xmm5       # 4-byte Reload
                                        # xmm5 = mem[0],zero,zero,zero
	mulss	%xmm1, %xmm5
	subss	%xmm5, %xmm4
	mulss	%xmm2, %xmm1
	mulss	%xmm3, %xmm0
	subss	%xmm0, %xmm1
	movss	%xmm2, -564(%rbp)       # 4-byte Spill
	movss	%xmm3, -568(%rbp)       # 4-byte Spill
	movss	%xmm4, -572(%rbp)       # 4-byte Spill
	movss	%xmm1, -576(%rbp)       # 4-byte Spill
	jmp	.LBB2_259
.LBB2_258:                              # %Flow54
	movl	-536(%rbp), %eax        # 4-byte Reload
	movb	-529(%rbp), %cl         # 1-byte Reload
	testb	$1, %cl
	movl	%eax, -552(%rbp)        # 4-byte Spill
	jne	.LBB2_244
	jmp	.LBB2_351
.LBB2_259:
	jmp	.LBB2_260
.LBB2_260:
	xorl	%eax, %eax
	movb	%al, %cl
	xorps	%xmm0, %xmm0
	movss	-572(%rbp), %xmm1       # 4-byte Reload
                                        # xmm1 = mem[0],zero,zero,zero
	ucomiss	%xmm0, %xmm1
	seta	%dl
	movb	%dl, %sil
	xorb	$-1, %sil
	testb	$1, %dl
	movb	%cl, -577(%rbp)         # 1-byte Spill
	movb	%sil, -578(%rbp)        # 1-byte Spill
	jne	.LBB2_261
	jmp	.LBB2_262
.LBB2_261:
	xorl	%eax, %eax
	movb	%al, %cl
	xorps	%xmm0, %xmm0
	movss	-576(%rbp), %xmm1       # 4-byte Reload
                                        # xmm1 = mem[0],zero,zero,zero
	ucomiss	%xmm0, %xmm1
	setae	%dl
	movb	%dl, %sil
	xorb	$-1, %sil
	testb	$1, %dl
	movb	%cl, -579(%rbp)         # 1-byte Spill
	movb	%sil, -580(%rbp)        # 1-byte Spill
	jne	.LBB2_263
	jmp	.LBB2_264
.LBB2_262:                              # %Flow24
	movb	-578(%rbp), %al         # 1-byte Reload
	movb	-577(%rbp), %cl         # 1-byte Reload
	xorl	%edx, %edx
	movb	%dl, %sil
	testb	$1, %al
	movb	%sil, -581(%rbp)        # 1-byte Spill
	movb	%cl, -582(%rbp)         # 1-byte Spill
	jne	.LBB2_265
	jmp	.LBB2_266
.LBB2_263:
	movss	-572(%rbp), %xmm0       # 4-byte Reload
                                        # xmm0 = mem[0],zero,zero,zero
	movss	-576(%rbp), %xmm1       # 4-byte Reload
                                        # xmm1 = mem[0],zero,zero,zero
	ucomiss	%xmm1, %xmm0
	setae	%al
	xorb	$-1, %al
	movb	$1, %cl
	movb	%cl, -579(%rbp)         # 1-byte Spill
	movb	%al, -580(%rbp)         # 1-byte Spill
.LBB2_264:                              # %Flow25
	movb	-580(%rbp), %al         # 1-byte Reload
	movb	-579(%rbp), %cl         # 1-byte Reload
	movb	%cl, -577(%rbp)         # 1-byte Spill
	movb	%al, -578(%rbp)         # 1-byte Spill
	jmp	.LBB2_262
.LBB2_265:
	xorl	%eax, %eax
	movb	%al, %cl
	xorps	%xmm0, %xmm0
	movss	-572(%rbp), %xmm1       # 4-byte Reload
                                        # xmm1 = mem[0],zero,zero,zero
	ucomiss	%xmm1, %xmm0
	seta	%dl
	movb	%dl, %sil
	xorb	$-1, %sil
	testb	$1, %dl
	movb	%sil, -583(%rbp)        # 1-byte Spill
	movb	%cl, -584(%rbp)         # 1-byte Spill
	jne	.LBB2_267
	jmp	.LBB2_268
.LBB2_266:                              # %Flow26
	movb	-582(%rbp), %al         # 1-byte Reload
	movb	-581(%rbp), %cl         # 1-byte Reload
	xorl	%edx, %edx
	movb	%dl, %sil
	testb	$1, %al
	movb	%sil, -585(%rbp)        # 1-byte Spill
	movb	%cl, -586(%rbp)         # 1-byte Spill
	jne	.LBB2_271
	jmp	.LBB2_272
.LBB2_267:
	xorl	%eax, %eax
	movb	%al, %cl
	xorps	%xmm0, %xmm0
	movss	-576(%rbp), %xmm1       # 4-byte Reload
                                        # xmm1 = mem[0],zero,zero,zero
	ucomiss	%xmm1, %xmm0
	setae	%dl
	movb	%dl, %sil
	xorb	$-1, %sil
	testb	$1, %dl
	movb	%sil, -587(%rbp)        # 1-byte Spill
	movb	%cl, -588(%rbp)         # 1-byte Spill
	jne	.LBB2_269
	jmp	.LBB2_270
.LBB2_268:                              # %Flow27
	movb	-584(%rbp), %al         # 1-byte Reload
	movb	-583(%rbp), %cl         # 1-byte Reload
	movb	%cl, -581(%rbp)         # 1-byte Spill
	movb	%al, -582(%rbp)         # 1-byte Spill
	jmp	.LBB2_266
.LBB2_269:
	movss	-576(%rbp), %xmm0       # 4-byte Reload
                                        # xmm0 = mem[0],zero,zero,zero
	movss	-572(%rbp), %xmm1       # 4-byte Reload
                                        # xmm1 = mem[0],zero,zero,zero
	ucomiss	%xmm1, %xmm0
	setae	%al
	movb	$1, %cl
	movb	%cl, -587(%rbp)         # 1-byte Spill
	movb	%al, -588(%rbp)         # 1-byte Spill
.LBB2_270:                              # %Flow28
	movb	-588(%rbp), %al         # 1-byte Reload
	movb	-587(%rbp), %cl         # 1-byte Reload
	movb	%cl, -583(%rbp)         # 1-byte Spill
	movb	%al, -584(%rbp)         # 1-byte Spill
	jmp	.LBB2_268
.LBB2_271:
	movss	-492(%rbp), %xmm0       # 4-byte Reload
                                        # xmm0 = mem[0],zero,zero,zero
	movss	-568(%rbp), %xmm1       # 4-byte Reload
                                        # xmm1 = mem[0],zero,zero,zero
	mulss	%xmm1, %xmm0
	movss	-496(%rbp), %xmm2       # 4-byte Reload
                                        # xmm2 = mem[0],zero,zero,zero
	movss	-564(%rbp), %xmm3       # 4-byte Reload
                                        # xmm3 = mem[0],zero,zero,zero
	mulss	%xmm3, %xmm2
	subss	%xmm2, %xmm0
	movss	%xmm0, -592(%rbp)       # 4-byte Spill
	jmp	.LBB2_273
.LBB2_272:                              # %Flow29
	movb	-586(%rbp), %al         # 1-byte Reload
	movb	-585(%rbp), %cl         # 1-byte Reload
	testb	$1, %al
	movl	$1, %edx
	movb	%cl, -593(%rbp)         # 1-byte Spill
	movl	%edx, -600(%rbp)        # 4-byte Spill
	jne	.LBB2_292
	jmp	.LBB2_293
.LBB2_273:
	jmp	.LBB2_274
.LBB2_274:
	xorl	%eax, %eax
	movb	%al, %cl
	xorps	%xmm0, %xmm0
	movss	-572(%rbp), %xmm1       # 4-byte Reload
                                        # xmm1 = mem[0],zero,zero,zero
	ucomiss	%xmm0, %xmm1
	seta	%dl
	xorb	$-1, %dl
	testb	$1, %dl
	movb	$1, %dl
	movb	%cl, -601(%rbp)         # 1-byte Spill
	movb	%dl, -602(%rbp)         # 1-byte Spill
	jne	.LBB2_282
	jmp	.LBB2_283
.LBB2_275:                              # %Flow33
	xorl	%eax, %eax
	movb	%al, %cl
	movb	-603(%rbp), %dl         # 1-byte Reload
	movb	%dl, -601(%rbp)         # 1-byte Spill
	movb	%cl, -602(%rbp)         # 1-byte Spill
	jmp	.LBB2_283
.LBB2_276:
	xorl	%eax, %eax
	movb	%al, %cl
	xorps	%xmm0, %xmm0
	movss	-592(%rbp), %xmm1       # 4-byte Reload
                                        # xmm1 = mem[0],zero,zero,zero
	ucomiss	%xmm0, %xmm1
	setae	%dl
	movb	%dl, %sil
	xorb	$-1, %sil
	testb	$1, %dl
	movb	%cl, -604(%rbp)         # 1-byte Spill
	movb	%sil, -605(%rbp)        # 1-byte Spill
	jne	.LBB2_278
	jmp	.LBB2_280
.LBB2_277:                              # %Flow34
	movb	-606(%rbp), %al         # 1-byte Reload
	movb	-607(%rbp), %cl         # 1-byte Reload
	xorl	%edx, %edx
	movb	%dl, %sil
	testb	$1, %al
	movb	%cl, -608(%rbp)         # 1-byte Spill
	movb	%sil, -609(%rbp)        # 1-byte Spill
	jne	.LBB2_290
	jmp	.LBB2_291
.LBB2_278:
	movss	-572(%rbp), %xmm0       # 4-byte Reload
                                        # xmm0 = mem[0],zero,zero,zero
	movss	-592(%rbp), %xmm1       # 4-byte Reload
                                        # xmm1 = mem[0],zero,zero,zero
	ucomiss	%xmm1, %xmm0
	setae	%al
	xorb	$-1, %al
	movb	$1, %cl
	movb	%cl, -604(%rbp)         # 1-byte Spill
	movb	%al, -605(%rbp)         # 1-byte Spill
	jmp	.LBB2_280
.LBB2_279:
	movl	$1, %eax
	movl	%eax, -616(%rbp)        # 4-byte Spill
	jmp	.LBB2_350
.LBB2_280:                              # %Flow35
	movb	-605(%rbp), %al         # 1-byte Reload
	movb	-604(%rbp), %cl         # 1-byte Reload
	testb	$1, %al
	movb	-617(%rbp), %al         # 1-byte Reload
	movb	%cl, -618(%rbp)         # 1-byte Spill
	movb	%al, -619(%rbp)         # 1-byte Spill
	jne	.LBB2_281
	jmp	.LBB2_289
.LBB2_281:
	xorl	%eax, %eax
	movb	%al, %cl
	movb	$1, %dl
	movb	%cl, -618(%rbp)         # 1-byte Spill
	movb	%dl, -619(%rbp)         # 1-byte Spill
	jmp	.LBB2_289
.LBB2_282:
	xorl	%eax, %eax
	movb	%al, %cl
	xorps	%xmm0, %xmm0
	movss	-592(%rbp), %xmm1       # 4-byte Reload
                                        # xmm1 = mem[0],zero,zero,zero
	ucomiss	%xmm1, %xmm0
	setae	%dl
	movb	%dl, %sil
	xorb	$-1, %sil
	testb	$1, %dl
	movb	%cl, -620(%rbp)         # 1-byte Spill
	movb	%sil, -621(%rbp)        # 1-byte Spill
	jne	.LBB2_284
	jmp	.LBB2_287
.LBB2_283:                              # %Flow30
	movb	-602(%rbp), %al         # 1-byte Reload
	movb	-601(%rbp), %cl         # 1-byte Reload
	xorl	%edx, %edx
	movb	%dl, %sil
	testb	$1, %al
	movb	%cl, %al
	movb	%cl, -617(%rbp)         # 1-byte Spill
	movb	%sil, -607(%rbp)        # 1-byte Spill
	movb	%al, -606(%rbp)         # 1-byte Spill
	jne	.LBB2_276
	jmp	.LBB2_277
.LBB2_284:
	movss	-592(%rbp), %xmm0       # 4-byte Reload
                                        # xmm0 = mem[0],zero,zero,zero
	movss	-572(%rbp), %xmm1       # 4-byte Reload
                                        # xmm1 = mem[0],zero,zero,zero
	ucomiss	%xmm1, %xmm0
	setae	%al
	xorb	$-1, %al
	movb	$1, %cl
	movb	%cl, -620(%rbp)         # 1-byte Spill
	movb	%al, -621(%rbp)         # 1-byte Spill
	jmp	.LBB2_287
.LBB2_285:                              # %Flow32
	movb	-622(%rbp), %al         # 1-byte Reload
	movb	-623(%rbp), %cl         # 1-byte Reload
	testb	$1, %al
	movb	%cl, -603(%rbp)         # 1-byte Spill
	jne	.LBB2_286
	jmp	.LBB2_275
.LBB2_286:
	jmp	.LBB2_275
.LBB2_287:                              # %Flow31
	movb	-621(%rbp), %al         # 1-byte Reload
	movb	-620(%rbp), %cl         # 1-byte Reload
	xorl	%edx, %edx
	movb	%dl, %sil
	testb	$1, %al
	movb	%sil, -623(%rbp)        # 1-byte Spill
	movb	%cl, -622(%rbp)         # 1-byte Spill
	jne	.LBB2_288
	jmp	.LBB2_285
.LBB2_288:
	xorl	%eax, %eax
	movb	%al, %cl
	movb	$1, %dl
	movb	%dl, -623(%rbp)         # 1-byte Spill
	movb	%cl, -622(%rbp)         # 1-byte Spill
	jmp	.LBB2_285
.LBB2_289:                              # %Flow36
	movb	-619(%rbp), %al         # 1-byte Reload
	movb	-618(%rbp), %cl         # 1-byte Reload
	movb	%cl, -607(%rbp)         # 1-byte Spill
	movb	%al, -606(%rbp)         # 1-byte Spill
	jmp	.LBB2_277
.LBB2_290:
	movb	$1, %al
	movb	%al, -609(%rbp)         # 1-byte Spill
	jmp	.LBB2_291
.LBB2_291:                              # %Flow37
	movb	-609(%rbp), %al         # 1-byte Reload
	movb	-608(%rbp), %cl         # 1-byte Reload
	movb	%cl, -585(%rbp)         # 1-byte Spill
	movb	%al, -586(%rbp)         # 1-byte Spill
	jmp	.LBB2_272
.LBB2_292:
	movw	-86(%rbp), %ax          # 2-byte Reload
	movswq	%ax, %rcx
	movq	-24(%rbp), %rdx         # 8-byte Reload
	movss	(%rdx,%rcx,4), %xmm0    # xmm0 = mem[0],zero,zero,zero
	movswq	%ax, %rcx
	movq	-40(%rbp), %rsi         # 8-byte Reload
	subss	(%rsi,%rcx,4), %xmm0
	movw	-88(%rbp), %di          # 2-byte Reload
	movswq	%di, %rcx
	movss	(%rdx,%rcx,4), %xmm1    # xmm1 = mem[0],zero,zero,zero
	movswq	%di, %rcx
	subss	(%rsi,%rcx,4), %xmm1
	movswq	%ax, %rcx
	movq	-48(%rbp), %r8          # 8-byte Reload
	movss	(%r8,%rcx,4), %xmm2     # xmm2 = mem[0],zero,zero,zero
	movswq	%ax, %rcx
	subss	(%rdx,%rcx,4), %xmm2
	movswq	%di, %rcx
	movss	(%r8,%rcx,4), %xmm3     # xmm3 = mem[0],zero,zero,zero
	movswq	%di, %rcx
	subss	(%rdx,%rcx,4), %xmm3
	movss	-496(%rbp), %xmm4       # 4-byte Reload
                                        # xmm4 = mem[0],zero,zero,zero
	mulss	%xmm0, %xmm4
	movss	-492(%rbp), %xmm5       # 4-byte Reload
                                        # xmm5 = mem[0],zero,zero,zero
	mulss	%xmm1, %xmm5
	subss	%xmm5, %xmm4
	mulss	%xmm2, %xmm1
	mulss	%xmm3, %xmm0
	subss	%xmm0, %xmm1
	movss	%xmm2, -628(%rbp)       # 4-byte Spill
	movss	%xmm3, -632(%rbp)       # 4-byte Spill
	movss	%xmm4, -636(%rbp)       # 4-byte Spill
	movss	%xmm1, -640(%rbp)       # 4-byte Spill
	jmp	.LBB2_294
.LBB2_293:                              # %Flow38
	movl	-600(%rbp), %eax        # 4-byte Reload
	movb	-593(%rbp), %cl         # 1-byte Reload
	testb	$1, %cl
	movl	%eax, -616(%rbp)        # 4-byte Spill
	jne	.LBB2_279
	jmp	.LBB2_350
.LBB2_294:
	jmp	.LBB2_295
.LBB2_295:
	xorl	%eax, %eax
	movb	%al, %cl
	xorps	%xmm0, %xmm0
	movss	-636(%rbp), %xmm1       # 4-byte Reload
                                        # xmm1 = mem[0],zero,zero,zero
	ucomiss	%xmm0, %xmm1
	seta	%dl
	movb	%dl, %sil
	xorb	$-1, %sil
	testb	$1, %dl
	movb	%cl, -641(%rbp)         # 1-byte Spill
	movb	%sil, -642(%rbp)        # 1-byte Spill
	jne	.LBB2_296
	jmp	.LBB2_297
.LBB2_296:
	xorl	%eax, %eax
	movb	%al, %cl
	xorps	%xmm0, %xmm0
	movss	-640(%rbp), %xmm1       # 4-byte Reload
                                        # xmm1 = mem[0],zero,zero,zero
	ucomiss	%xmm0, %xmm1
	setae	%dl
	movb	%dl, %sil
	xorb	$-1, %sil
	testb	$1, %dl
	movb	%cl, -643(%rbp)         # 1-byte Spill
	movb	%sil, -644(%rbp)        # 1-byte Spill
	jne	.LBB2_298
	jmp	.LBB2_299
.LBB2_297:                              # %Flow8
	movb	-642(%rbp), %al         # 1-byte Reload
	movb	-641(%rbp), %cl         # 1-byte Reload
	xorl	%edx, %edx
	movb	%dl, %sil
	testb	$1, %al
	movb	%sil, -645(%rbp)        # 1-byte Spill
	movb	%cl, -646(%rbp)         # 1-byte Spill
	jne	.LBB2_300
	jmp	.LBB2_301
.LBB2_298:
	movss	-636(%rbp), %xmm0       # 4-byte Reload
                                        # xmm0 = mem[0],zero,zero,zero
	movss	-640(%rbp), %xmm1       # 4-byte Reload
                                        # xmm1 = mem[0],zero,zero,zero
	ucomiss	%xmm1, %xmm0
	setae	%al
	xorb	$-1, %al
	movb	$1, %cl
	movb	%cl, -643(%rbp)         # 1-byte Spill
	movb	%al, -644(%rbp)         # 1-byte Spill
.LBB2_299:                              # %Flow9
	movb	-644(%rbp), %al         # 1-byte Reload
	movb	-643(%rbp), %cl         # 1-byte Reload
	movb	%cl, -641(%rbp)         # 1-byte Spill
	movb	%al, -642(%rbp)         # 1-byte Spill
	jmp	.LBB2_297
.LBB2_300:
	xorl	%eax, %eax
	movb	%al, %cl
	xorps	%xmm0, %xmm0
	movss	-636(%rbp), %xmm1       # 4-byte Reload
                                        # xmm1 = mem[0],zero,zero,zero
	ucomiss	%xmm1, %xmm0
	seta	%dl
	movb	%dl, %sil
	xorb	$-1, %sil
	testb	$1, %dl
	movb	%sil, -647(%rbp)        # 1-byte Spill
	movb	%cl, -648(%rbp)         # 1-byte Spill
	jne	.LBB2_302
	jmp	.LBB2_303
.LBB2_301:                              # %Flow10
	movb	-646(%rbp), %al         # 1-byte Reload
	movb	-645(%rbp), %cl         # 1-byte Reload
	xorl	%edx, %edx
	movb	%dl, %sil
	testb	$1, %al
	movb	%sil, -649(%rbp)        # 1-byte Spill
	movb	%cl, -650(%rbp)         # 1-byte Spill
	jne	.LBB2_306
	jmp	.LBB2_307
.LBB2_302:
	xorl	%eax, %eax
	movb	%al, %cl
	xorps	%xmm0, %xmm0
	movss	-640(%rbp), %xmm1       # 4-byte Reload
                                        # xmm1 = mem[0],zero,zero,zero
	ucomiss	%xmm1, %xmm0
	setae	%dl
	movb	%dl, %sil
	xorb	$-1, %sil
	testb	$1, %dl
	movb	%sil, -651(%rbp)        # 1-byte Spill
	movb	%cl, -652(%rbp)         # 1-byte Spill
	jne	.LBB2_304
	jmp	.LBB2_305
.LBB2_303:                              # %Flow11
	movb	-648(%rbp), %al         # 1-byte Reload
	movb	-647(%rbp), %cl         # 1-byte Reload
	movb	%cl, -645(%rbp)         # 1-byte Spill
	movb	%al, -646(%rbp)         # 1-byte Spill
	jmp	.LBB2_301
.LBB2_304:
	movss	-640(%rbp), %xmm0       # 4-byte Reload
                                        # xmm0 = mem[0],zero,zero,zero
	movss	-636(%rbp), %xmm1       # 4-byte Reload
                                        # xmm1 = mem[0],zero,zero,zero
	ucomiss	%xmm1, %xmm0
	setae	%al
	movb	$1, %cl
	movb	%cl, -651(%rbp)         # 1-byte Spill
	movb	%al, -652(%rbp)         # 1-byte Spill
.LBB2_305:                              # %Flow12
	movb	-652(%rbp), %al         # 1-byte Reload
	movb	-651(%rbp), %cl         # 1-byte Reload
	movb	%cl, -647(%rbp)         # 1-byte Spill
	movb	%al, -648(%rbp)         # 1-byte Spill
	jmp	.LBB2_303
.LBB2_306:
	movss	-492(%rbp), %xmm0       # 4-byte Reload
                                        # xmm0 = mem[0],zero,zero,zero
	movss	-632(%rbp), %xmm1       # 4-byte Reload
                                        # xmm1 = mem[0],zero,zero,zero
	mulss	%xmm1, %xmm0
	movss	-496(%rbp), %xmm2       # 4-byte Reload
                                        # xmm2 = mem[0],zero,zero,zero
	movss	-628(%rbp), %xmm3       # 4-byte Reload
                                        # xmm3 = mem[0],zero,zero,zero
	mulss	%xmm3, %xmm2
	subss	%xmm2, %xmm0
	movss	%xmm0, -656(%rbp)       # 4-byte Spill
	jmp	.LBB2_308
.LBB2_307:                              # %Flow13
	movb	-650(%rbp), %al         # 1-byte Reload
	movb	-649(%rbp), %cl         # 1-byte Reload
	testb	$1, %al
	movl	$1, %edx
	movb	%cl, -657(%rbp)         # 1-byte Spill
	movl	%edx, -664(%rbp)        # 4-byte Spill
	jne	.LBB2_327
	jmp	.LBB2_328
.LBB2_308:
	jmp	.LBB2_309
.LBB2_309:
	xorl	%eax, %eax
	movb	%al, %cl
	xorps	%xmm0, %xmm0
	movss	-636(%rbp), %xmm1       # 4-byte Reload
                                        # xmm1 = mem[0],zero,zero,zero
	ucomiss	%xmm0, %xmm1
	seta	%dl
	xorb	$-1, %dl
	testb	$1, %dl
	movb	$1, %dl
	movb	%cl, -665(%rbp)         # 1-byte Spill
	movb	%dl, -666(%rbp)         # 1-byte Spill
	jne	.LBB2_317
	jmp	.LBB2_318
.LBB2_310:                              # %Flow17
	xorl	%eax, %eax
	movb	%al, %cl
	movb	-667(%rbp), %dl         # 1-byte Reload
	movb	%dl, -665(%rbp)         # 1-byte Spill
	movb	%cl, -666(%rbp)         # 1-byte Spill
	jmp	.LBB2_318
.LBB2_311:
	xorl	%eax, %eax
	movb	%al, %cl
	xorps	%xmm0, %xmm0
	movss	-656(%rbp), %xmm1       # 4-byte Reload
                                        # xmm1 = mem[0],zero,zero,zero
	ucomiss	%xmm0, %xmm1
	setae	%dl
	movb	%dl, %sil
	xorb	$-1, %sil
	testb	$1, %dl
	movb	%cl, -668(%rbp)         # 1-byte Spill
	movb	%sil, -669(%rbp)        # 1-byte Spill
	jne	.LBB2_313
	jmp	.LBB2_315
.LBB2_312:                              # %Flow18
	movb	-670(%rbp), %al         # 1-byte Reload
	movb	-671(%rbp), %cl         # 1-byte Reload
	xorl	%edx, %edx
	movb	%dl, %sil
	testb	$1, %al
	movb	%cl, -672(%rbp)         # 1-byte Spill
	movb	%sil, -673(%rbp)        # 1-byte Spill
	jne	.LBB2_325
	jmp	.LBB2_326
.LBB2_313:
	movss	-636(%rbp), %xmm0       # 4-byte Reload
                                        # xmm0 = mem[0],zero,zero,zero
	movss	-656(%rbp), %xmm1       # 4-byte Reload
                                        # xmm1 = mem[0],zero,zero,zero
	ucomiss	%xmm1, %xmm0
	setae	%al
	xorb	$-1, %al
	movb	$1, %cl
	movb	%cl, -668(%rbp)         # 1-byte Spill
	movb	%al, -669(%rbp)         # 1-byte Spill
	jmp	.LBB2_315
.LBB2_314:
	movl	$1, %eax
	movl	%eax, -680(%rbp)        # 4-byte Spill
	jmp	.LBB2_349
.LBB2_315:                              # %Flow19
	movb	-669(%rbp), %al         # 1-byte Reload
	movb	-668(%rbp), %cl         # 1-byte Reload
	testb	$1, %al
	movb	-681(%rbp), %al         # 1-byte Reload
	movb	%cl, -682(%rbp)         # 1-byte Spill
	movb	%al, -683(%rbp)         # 1-byte Spill
	jne	.LBB2_316
	jmp	.LBB2_324
.LBB2_316:
	xorl	%eax, %eax
	movb	%al, %cl
	movb	$1, %dl
	movb	%cl, -682(%rbp)         # 1-byte Spill
	movb	%dl, -683(%rbp)         # 1-byte Spill
	jmp	.LBB2_324
.LBB2_317:
	xorl	%eax, %eax
	movb	%al, %cl
	xorps	%xmm0, %xmm0
	movss	-656(%rbp), %xmm1       # 4-byte Reload
                                        # xmm1 = mem[0],zero,zero,zero
	ucomiss	%xmm1, %xmm0
	setae	%dl
	movb	%dl, %sil
	xorb	$-1, %sil
	testb	$1, %dl
	movb	%cl, -684(%rbp)         # 1-byte Spill
	movb	%sil, -685(%rbp)        # 1-byte Spill
	jne	.LBB2_319
	jmp	.LBB2_322
.LBB2_318:                              # %Flow14
	movb	-666(%rbp), %al         # 1-byte Reload
	movb	-665(%rbp), %cl         # 1-byte Reload
	xorl	%edx, %edx
	movb	%dl, %sil
	testb	$1, %al
	movb	%cl, %al
	movb	%cl, -681(%rbp)         # 1-byte Spill
	movb	%sil, -671(%rbp)        # 1-byte Spill
	movb	%al, -670(%rbp)         # 1-byte Spill
	jne	.LBB2_311
	jmp	.LBB2_312
.LBB2_319:
	movss	-656(%rbp), %xmm0       # 4-byte Reload
                                        # xmm0 = mem[0],zero,zero,zero
	movss	-636(%rbp), %xmm1       # 4-byte Reload
                                        # xmm1 = mem[0],zero,zero,zero
	ucomiss	%xmm1, %xmm0
	setae	%al
	xorb	$-1, %al
	movb	$1, %cl
	movb	%cl, -684(%rbp)         # 1-byte Spill
	movb	%al, -685(%rbp)         # 1-byte Spill
	jmp	.LBB2_322
.LBB2_320:                              # %Flow16
	movb	-686(%rbp), %al         # 1-byte Reload
	movb	-687(%rbp), %cl         # 1-byte Reload
	testb	$1, %al
	movb	%cl, -667(%rbp)         # 1-byte Spill
	jne	.LBB2_321
	jmp	.LBB2_310
.LBB2_321:
	jmp	.LBB2_310
.LBB2_322:                              # %Flow15
	movb	-685(%rbp), %al         # 1-byte Reload
	movb	-684(%rbp), %cl         # 1-byte Reload
	xorl	%edx, %edx
	movb	%dl, %sil
	testb	$1, %al
	movb	%sil, -687(%rbp)        # 1-byte Spill
	movb	%cl, -686(%rbp)         # 1-byte Spill
	jne	.LBB2_323
	jmp	.LBB2_320
.LBB2_323:
	xorl	%eax, %eax
	movb	%al, %cl
	movb	$1, %dl
	movb	%dl, -687(%rbp)         # 1-byte Spill
	movb	%cl, -686(%rbp)         # 1-byte Spill
	jmp	.LBB2_320
.LBB2_324:                              # %Flow20
	movb	-683(%rbp), %al         # 1-byte Reload
	movb	-682(%rbp), %cl         # 1-byte Reload
	movb	%cl, -671(%rbp)         # 1-byte Spill
	movb	%al, -670(%rbp)         # 1-byte Spill
	jmp	.LBB2_312
.LBB2_325:
	movb	$1, %al
	movb	%al, -673(%rbp)         # 1-byte Spill
	jmp	.LBB2_326
.LBB2_326:                              # %Flow21
	movb	-673(%rbp), %al         # 1-byte Reload
	movb	-672(%rbp), %cl         # 1-byte Reload
	movb	%cl, -649(%rbp)         # 1-byte Spill
	movb	%al, -650(%rbp)         # 1-byte Spill
	jmp	.LBB2_307
.LBB2_327:
	movw	-88(%rbp), %ax          # 2-byte Reload
	movswq	%ax, %rcx
	movq	-32(%rbp), %rdx         # 8-byte Reload
	movss	(%rdx,%rcx,4), %xmm0    # xmm0 = mem[0],zero,zero,zero
	movswq	%ax, %rcx
	movq	-40(%rbp), %rsi         # 8-byte Reload
	subss	(%rsi,%rcx,4), %xmm0
	movw	-86(%rbp), %di          # 2-byte Reload
	movswq	%di, %rcx
	movss	(%rdx,%rcx,4), %xmm1    # xmm1 = mem[0],zero,zero,zero
	movswq	%di, %rcx
	subss	(%rsi,%rcx,4), %xmm1
	movd	%xmm1, %r8d
	xorl	$2147483648, %r8d       # imm = 0x80000000
	movd	%r8d, %xmm1
	movd	%xmm0, %r8d
	xorl	$2147483648, %r8d       # imm = 0x80000000
	movd	%r8d, %xmm2
	movswq	%di, %rcx
	mulss	(%rsi,%rcx,4), %xmm2
	movswq	%ax, %rcx
	movaps	%xmm1, %xmm3
	mulss	(%rsi,%rcx,4), %xmm3
	subss	%xmm3, %xmm2
	movswq	%di, %rcx
	movq	-64(%rbp), %r9          # 8-byte Reload
	mulss	(%r9,%rcx,4), %xmm0
	movswq	%ax, %rcx
	mulss	(%r9,%rcx,4), %xmm1
	addss	%xmm1, %xmm0
	addss	%xmm2, %xmm0
	movswq	%ax, %rcx
	movq	-24(%rbp), %r10         # 8-byte Reload
	movss	(%r10,%rcx,4), %xmm1    # xmm1 = mem[0],zero,zero,zero
	movswq	%ax, %rcx
	subss	(%rdx,%rcx,4), %xmm1
	movswq	%di, %rcx
	movss	(%r10,%rcx,4), %xmm2    # xmm2 = mem[0],zero,zero,zero
	movswq	%di, %rcx
	subss	(%rdx,%rcx,4), %xmm2
	movd	%xmm2, %r8d
	xorl	$2147483648, %r8d       # imm = 0x80000000
	movd	%r8d, %xmm2
	movd	%xmm1, %r8d
	xorl	$2147483648, %r8d       # imm = 0x80000000
	movd	%r8d, %xmm3
	movswq	%di, %rcx
	mulss	(%rdx,%rcx,4), %xmm3
	movswq	%ax, %rcx
	movaps	%xmm2, %xmm4
	mulss	(%rdx,%rcx,4), %xmm4
	subss	%xmm4, %xmm3
	movswq	%di, %rcx
	mulss	(%r9,%rcx,4), %xmm1
	movswq	%ax, %rcx
	mulss	(%r9,%rcx,4), %xmm2
	addss	%xmm2, %xmm1
	addss	%xmm3, %xmm1
	movswq	%ax, %rcx
	movss	(%rsi,%rcx,4), %xmm2    # xmm2 = mem[0],zero,zero,zero
	movswq	%ax, %rcx
	subss	(%r10,%rcx,4), %xmm2
	movswq	%di, %rcx
	movss	(%rsi,%rcx,4), %xmm3    # xmm3 = mem[0],zero,zero,zero
	movswq	%di, %rcx
	subss	(%r10,%rcx,4), %xmm3
	movd	%xmm3, %r8d
	xorl	$2147483648, %r8d       # imm = 0x80000000
	movd	%r8d, %xmm3
	movd	%xmm2, %r8d
	xorl	$2147483648, %r8d       # imm = 0x80000000
	movd	%r8d, %xmm4
	movswq	%di, %rcx
	mulss	(%r10,%rcx,4), %xmm4
	movswq	%ax, %rcx
	movaps	%xmm3, %xmm5
	mulss	(%r10,%rcx,4), %xmm5
	subss	%xmm5, %xmm4
	movswq	%di, %rcx
	mulss	(%r9,%rcx,4), %xmm2
	movswq	%ax, %rcx
	mulss	(%r9,%rcx,4), %xmm3
	addss	%xmm3, %xmm2
	addss	%xmm4, %xmm2
	movaps	%xmm0, %xmm3
	mulss	%xmm1, %xmm3
	mulss	%xmm2, %xmm0
	movss	%xmm3, -692(%rbp)       # 4-byte Spill
	movss	%xmm0, -696(%rbp)       # 4-byte Spill
	jmp	.LBB2_329
.LBB2_328:                              # %Flow22
	movl	-664(%rbp), %eax        # 4-byte Reload
	movb	-657(%rbp), %cl         # 1-byte Reload
	testb	$1, %cl
	movl	%eax, -680(%rbp)        # 4-byte Spill
	jne	.LBB2_314
	jmp	.LBB2_349
.LBB2_329:
	jmp	.LBB2_330
.LBB2_330:
	xorl	%eax, %eax
	movb	%al, %cl
	movss	-692(%rbp), %xmm0       # 4-byte Reload
                                        # xmm0 = mem[0],zero,zero,zero
	cvtss2sd	%xmm0, %xmm1
	xorps	%xmm2, %xmm2
	ucomisd	%xmm2, %xmm1
	movb	$1, %dl
	movb	%cl, -697(%rbp)         # 1-byte Spill
	movb	%dl, -698(%rbp)         # 1-byte Spill
	jbe	.LBB2_333
# %bb.331:
	xorl	%eax, %eax
	movb	%al, %cl
	movss	-696(%rbp), %xmm0       # 4-byte Reload
                                        # xmm0 = mem[0],zero,zero,zero
	cvtss2sd	%xmm0, %xmm1
	xorps	%xmm2, %xmm2
	ucomisd	%xmm2, %xmm1
	seta	%dl
	xorb	$-1, %dl
	testb	$1, %dl
	movb	$1, %dl
	movb	%dl, -699(%rbp)         # 1-byte Spill
	movb	%cl, -700(%rbp)         # 1-byte Spill
	jne	.LBB2_334
	jmp	.LBB2_335
.LBB2_332:
	movl	$1, %eax
	movl	%eax, -704(%rbp)        # 4-byte Spill
	jmp	.LBB2_348
.LBB2_333:                              # %Flow4
	movb	-698(%rbp), %al         # 1-byte Reload
	movb	-697(%rbp), %cl         # 1-byte Reload
	testb	$1, %al
                                        # implicit-def: $edx
	movb	%cl, -705(%rbp)         # 1-byte Spill
	movl	%edx, -712(%rbp)        # 4-byte Spill
	jne	.LBB2_336
	jmp	.LBB2_337
.LBB2_334:
	xorl	%eax, %eax
	movb	%al, %cl
	movb	$1, %dl
	movb	%cl, -699(%rbp)         # 1-byte Spill
	movb	%dl, -700(%rbp)         # 1-byte Spill
	jmp	.LBB2_335
.LBB2_335:                              # %Flow5
	movb	-700(%rbp), %al         # 1-byte Reload
	movb	-699(%rbp), %cl         # 1-byte Reload
	movb	%cl, -697(%rbp)         # 1-byte Spill
	movb	%al, -698(%rbp)         # 1-byte Spill
	jmp	.LBB2_333
.LBB2_336:
	movw	-88(%rbp), %ax          # 2-byte Reload
	movswq	%ax, %rcx
	movq	-56(%rbp), %rdx         # 8-byte Reload
	movss	(%rdx,%rcx,4), %xmm0    # xmm0 = mem[0],zero,zero,zero
	movswq	%ax, %rcx
	movq	-64(%rbp), %rsi         # 8-byte Reload
	subss	(%rsi,%rcx,4), %xmm0
	movw	-86(%rbp), %di          # 2-byte Reload
	movswq	%di, %rcx
	movss	(%rdx,%rcx,4), %xmm1    # xmm1 = mem[0],zero,zero,zero
	movswq	%di, %rcx
	subss	(%rsi,%rcx,4), %xmm1
	movd	%xmm1, %r8d
	xorl	$2147483648, %r8d       # imm = 0x80000000
	movd	%r8d, %xmm1
	movd	%xmm0, %r8d
	xorl	$2147483648, %r8d       # imm = 0x80000000
	movd	%r8d, %xmm2
	movswq	%di, %rcx
	mulss	(%rsi,%rcx,4), %xmm2
	movswq	%ax, %rcx
	movaps	%xmm1, %xmm3
	mulss	(%rsi,%rcx,4), %xmm3
	subss	%xmm3, %xmm2
	movswq	%di, %rcx
	movq	-40(%rbp), %r9          # 8-byte Reload
	mulss	(%r9,%rcx,4), %xmm0
	movswq	%ax, %rcx
	mulss	(%r9,%rcx,4), %xmm1
	addss	%xmm1, %xmm0
	addss	%xmm2, %xmm0
	movswq	%ax, %rcx
	movq	-48(%rbp), %r10         # 8-byte Reload
	movss	(%r10,%rcx,4), %xmm1    # xmm1 = mem[0],zero,zero,zero
	movswq	%ax, %rcx
	subss	(%rdx,%rcx,4), %xmm1
	movswq	%di, %rcx
	movss	(%r10,%rcx,4), %xmm2    # xmm2 = mem[0],zero,zero,zero
	movswq	%di, %rcx
	subss	(%rdx,%rcx,4), %xmm2
	movd	%xmm2, %r8d
	xorl	$2147483648, %r8d       # imm = 0x80000000
	movd	%r8d, %xmm2
	movd	%xmm1, %r8d
	xorl	$2147483648, %r8d       # imm = 0x80000000
	movd	%r8d, %xmm3
	movswq	%di, %rcx
	mulss	(%rdx,%rcx,4), %xmm3
	movswq	%ax, %rcx
	movaps	%xmm2, %xmm4
	mulss	(%rdx,%rcx,4), %xmm4
	subss	%xmm4, %xmm3
	movswq	%di, %rcx
	mulss	(%r9,%rcx,4), %xmm1
	movswq	%ax, %rcx
	mulss	(%r9,%rcx,4), %xmm2
	addss	%xmm2, %xmm1
	addss	%xmm3, %xmm1
	movswq	%ax, %rcx
	movss	(%rsi,%rcx,4), %xmm2    # xmm2 = mem[0],zero,zero,zero
	movswq	%ax, %rcx
	subss	(%r10,%rcx,4), %xmm2
	movswq	%di, %rcx
	movss	(%rsi,%rcx,4), %xmm3    # xmm3 = mem[0],zero,zero,zero
	movswq	%di, %rcx
	subss	(%r10,%rcx,4), %xmm3
	movd	%xmm3, %r8d
	xorl	$2147483648, %r8d       # imm = 0x80000000
	movd	%r8d, %xmm3
	movd	%xmm2, %r8d
	xorl	$2147483648, %r8d       # imm = 0x80000000
	movd	%r8d, %xmm4
	movswq	%di, %rcx
	mulss	(%r10,%rcx,4), %xmm4
	movswq	%ax, %rcx
	movaps	%xmm3, %xmm5
	mulss	(%r10,%rcx,4), %xmm5
	subss	%xmm5, %xmm4
	movswq	%di, %rcx
	mulss	(%r9,%rcx,4), %xmm2
	movswq	%ax, %rcx
	mulss	(%r9,%rcx,4), %xmm3
	addss	%xmm3, %xmm2
	addss	%xmm4, %xmm2
	movaps	%xmm0, %xmm3
	mulss	%xmm1, %xmm3
	mulss	%xmm2, %xmm0
	movss	%xmm3, -716(%rbp)       # 4-byte Spill
	movss	%xmm0, -720(%rbp)       # 4-byte Spill
	jmp	.LBB2_338
.LBB2_337:                              # %Flow6
	movl	-712(%rbp), %eax        # 4-byte Reload
	movb	-705(%rbp), %cl         # 1-byte Reload
	testb	$1, %cl
	movl	%eax, -704(%rbp)        # 4-byte Spill
	jne	.LBB2_332
	jmp	.LBB2_348
.LBB2_338:
	jmp	.LBB2_339
.LBB2_339:
	xorl	%eax, %eax
	movb	%al, %cl
	movss	-716(%rbp), %xmm0       # 4-byte Reload
                                        # xmm0 = mem[0],zero,zero,zero
	cvtss2sd	%xmm0, %xmm1
	xorps	%xmm2, %xmm2
	ucomisd	%xmm2, %xmm1
	movb	$1, %dl
	movb	%cl, -721(%rbp)         # 1-byte Spill
	movb	%dl, -722(%rbp)         # 1-byte Spill
	jbe	.LBB2_343
# %bb.340:
	xorl	%eax, %eax
	movb	%al, %cl
	movss	-720(%rbp), %xmm0       # 4-byte Reload
                                        # xmm0 = mem[0],zero,zero,zero
	cvtss2sd	%xmm0, %xmm1
	xorps	%xmm2, %xmm2
	ucomisd	%xmm2, %xmm1
	seta	%dl
	xorb	$-1, %dl
	testb	$1, %dl
	movb	$1, %dl
	movb	%dl, -723(%rbp)         # 1-byte Spill
	movb	%cl, -724(%rbp)         # 1-byte Spill
	jne	.LBB2_344
	jmp	.LBB2_345
.LBB2_341:                              # %Flow2
	xorl	%eax, %eax
	movb	-725(%rbp), %cl         # 1-byte Reload
	testb	$1, %cl
	movl	%eax, -732(%rbp)        # 4-byte Spill
	jne	.LBB2_342
	jmp	.LBB2_347
.LBB2_342:
	movl	$1, %eax
	movl	%eax, -732(%rbp)        # 4-byte Spill
	jmp	.LBB2_347
.LBB2_343:                              # %Flow
	movb	-722(%rbp), %al         # 1-byte Reload
	movb	-721(%rbp), %cl         # 1-byte Reload
	testb	$1, %al
	movb	%cl, -725(%rbp)         # 1-byte Spill
	jne	.LBB2_346
	jmp	.LBB2_341
.LBB2_344:
	xorl	%eax, %eax
	movb	%al, %cl
	movb	$1, %dl
	movb	%cl, -723(%rbp)         # 1-byte Spill
	movb	%dl, -724(%rbp)         # 1-byte Spill
	jmp	.LBB2_345
.LBB2_345:                              # %Flow1
	movb	-724(%rbp), %al         # 1-byte Reload
	movb	-723(%rbp), %cl         # 1-byte Reload
	movb	%cl, -721(%rbp)         # 1-byte Spill
	movb	%al, -722(%rbp)         # 1-byte Spill
	jmp	.LBB2_343
.LBB2_346:
	jmp	.LBB2_341
.LBB2_347:                              # %Flow3
	movl	-732(%rbp), %eax        # 4-byte Reload
	movl	%eax, -712(%rbp)        # 4-byte Spill
	jmp	.LBB2_337
.LBB2_348:                              # %Flow7
	movl	-704(%rbp), %eax        # 4-byte Reload
	movl	%eax, -664(%rbp)        # 4-byte Spill
	jmp	.LBB2_328
.LBB2_349:                              # %Flow23
	movl	-680(%rbp), %eax        # 4-byte Reload
	movl	%eax, -600(%rbp)        # 4-byte Spill
	jmp	.LBB2_293
.LBB2_350:                              # %Flow39
	movl	-616(%rbp), %eax        # 4-byte Reload
	movl	%eax, -536(%rbp)        # 4-byte Spill
	jmp	.LBB2_258
.LBB2_351:                              # %Flow55
	movl	-552(%rbp), %eax        # 4-byte Reload
	movl	%eax, -464(%rbp)        # 4-byte Spill
	jmp	.LBB2_223
.LBB2_352:                              # %Flow71
	movl	-480(%rbp), %eax        # 4-byte Reload
	movl	%eax, -400(%rbp)        # 4-byte Spill
	jmp	.LBB2_188
.LBB2_353:                              # %Flow87
	movl	-416(%rbp), %eax        # 4-byte Reload
	movl	%eax, -336(%rbp)        # 4-byte Spill
	jmp	.LBB2_153
.LBB2_354:                              # %Flow103
	movl	-352(%rbp), %eax        # 4-byte Reload
	movl	%eax, -264(%rbp)        # 4-byte Spill
	jmp	.LBB2_118
.LBB2_355:                              # %Flow119
	movl	-280(%rbp), %eax        # 4-byte Reload
	movl	%eax, -200(%rbp)        # 4-byte Spill
	jmp	.LBB2_83
.LBB2_356:                              # %Flow135
	movl	-216(%rbp), %eax        # 4-byte Reload
	movl	%eax, -136(%rbp)        # 4-byte Spill
	jmp	.LBB2_48
.LBB2_357:
	movl	-152(%rbp), %eax        # 4-byte Reload
	addq	$608, %rsp              # imm = 0x260
	popq	%rbp
	.cfi_def_cfa %rsp, 8
	retq
.Lfunc_end2:
	.size	_Z16coplanar_tri_triPfS_S_S_S_S_S_, .Lfunc_end2-_Z16coplanar_tri_triPfS_S_S_S_S_S_
	.cfi_endproc
                                        # -- End function
	.section	.rodata.cst8,"aM",@progbits,8
	.p2align	3               # -- Begin function _Z17tri_tri_intersectPfS_S_S_S_S_S_Pi
.LCPI3_0:
	.quad	4517329193108106637     # double 9.9999999999999995E-7
.LCPI3_3:
	.quad	4724276009111650304     # double 67108864
.LCPI3_5:
	.quad	4728779608739020800     # double 134217728
	.section	.rodata.cst16,"aM",@progbits,16
	.p2align	4
.LCPI3_1:
	.quad	9223372036854775807     # double NaN
	.quad	9223372036854775807     # double NaN
	.section	.rodata.cst4,"aM",@progbits,4
	.p2align	2
.LCPI3_2:
	.long	1283457024              # float 67108864
.LCPI3_4:
	.long	1291845632              # float 134217728
	.text
	.globl	_Z17tri_tri_intersectPfS_S_S_S_S_S_Pi
	.p2align	4, 0x90
	.type	_Z17tri_tri_intersectPfS_S_S_S_S_S_Pi,@function
_Z17tri_tri_intersectPfS_S_S_S_S_S_Pi:  # @_Z17tri_tri_intersectPfS_S_S_S_S_S_Pi
	.cfi_startproc
# %bb.0:
	pushq	%rbp
	.cfi_def_cfa_offset 16
	.cfi_offset %rbp, -16
	movq	%rsp, %rbp
	.cfi_def_cfa_register %rbp
	pushq	%r14
	pushq	%rbx
	subq	$592, %rsp              # imm = 0x250
	.cfi_offset %rbx, -32
	.cfi_offset %r14, -24
	movq	24(%rbp), %rax
	movq	16(%rbp), %r10
	movsd	.LCPI3_0(%rip), %xmm0   # xmm0 = mem[0],zero
	movss	(%rsi), %xmm1           # xmm1 = mem[0],zero,zero,zero
	subss	(%rdi), %xmm1
	movss	%xmm1, -28(%rbp)
	movss	4(%rsi), %xmm1          # xmm1 = mem[0],zero,zero,zero
	subss	4(%rdi), %xmm1
	movss	%xmm1, -24(%rbp)
	movss	8(%rsi), %xmm1          # xmm1 = mem[0],zero,zero,zero
	subss	8(%rdi), %xmm1
	movss	%xmm1, -20(%rbp)
	movss	(%rdx), %xmm1           # xmm1 = mem[0],zero,zero,zero
	subss	(%rdi), %xmm1
	movss	%xmm1, -40(%rbp)
	movss	4(%rdx), %xmm1          # xmm1 = mem[0],zero,zero,zero
	subss	4(%rdi), %xmm1
	movss	%xmm1, -36(%rbp)
	movss	8(%rdx), %xmm1          # xmm1 = mem[0],zero,zero,zero
	subss	8(%rdi), %xmm1
	movss	%xmm1, -32(%rbp)
	movss	-24(%rbp), %xmm1        # xmm1 = mem[0],zero,zero,zero
	mulss	-32(%rbp), %xmm1
	movss	-20(%rbp), %xmm2        # xmm2 = mem[0],zero,zero,zero
	mulss	-36(%rbp), %xmm2
	subss	%xmm2, %xmm1
	movss	%xmm1, -52(%rbp)
	movss	-20(%rbp), %xmm1        # xmm1 = mem[0],zero,zero,zero
	mulss	-40(%rbp), %xmm1
	movss	-28(%rbp), %xmm2        # xmm2 = mem[0],zero,zero,zero
	mulss	-32(%rbp), %xmm2
	subss	%xmm2, %xmm1
	movss	%xmm1, -48(%rbp)
	movss	-28(%rbp), %xmm1        # xmm1 = mem[0],zero,zero,zero
	mulss	-36(%rbp), %xmm1
	movss	-24(%rbp), %xmm2        # xmm2 = mem[0],zero,zero,zero
	mulss	-40(%rbp), %xmm2
	subss	%xmm2, %xmm1
	movss	%xmm1, -44(%rbp)
	movss	-52(%rbp), %xmm1        # xmm1 = mem[0],zero,zero,zero
	mulss	(%rdi), %xmm1
	movss	-48(%rbp), %xmm2        # xmm2 = mem[0],zero,zero,zero
	mulss	4(%rdi), %xmm2
	addss	%xmm2, %xmm1
	movss	-44(%rbp), %xmm2        # xmm2 = mem[0],zero,zero,zero
	mulss	8(%rdi), %xmm2
	addss	%xmm2, %xmm1
	movd	%xmm1, %r11d
	xorl	$2147483648, %r11d      # imm = 0x80000000
	movd	%r11d, %xmm1
	movss	-52(%rbp), %xmm2        # xmm2 = mem[0],zero,zero,zero
	mulss	(%rcx), %xmm2
	movss	-48(%rbp), %xmm3        # xmm3 = mem[0],zero,zero,zero
	mulss	4(%rcx), %xmm3
	addss	%xmm3, %xmm2
	movss	-44(%rbp), %xmm3        # xmm3 = mem[0],zero,zero,zero
	mulss	8(%rcx), %xmm3
	addss	%xmm3, %xmm2
	addss	%xmm1, %xmm2
	movss	-52(%rbp), %xmm3        # xmm3 = mem[0],zero,zero,zero
	mulss	(%r8), %xmm3
	movss	-48(%rbp), %xmm4        # xmm4 = mem[0],zero,zero,zero
	mulss	4(%r8), %xmm4
	addss	%xmm4, %xmm3
	movss	-44(%rbp), %xmm4        # xmm4 = mem[0],zero,zero,zero
	mulss	8(%r8), %xmm4
	addss	%xmm4, %xmm3
	addss	%xmm1, %xmm3
	movss	-52(%rbp), %xmm4        # xmm4 = mem[0],zero,zero,zero
	mulss	(%r9), %xmm4
	movss	-48(%rbp), %xmm5        # xmm5 = mem[0],zero,zero,zero
	mulss	4(%r9), %xmm5
	addss	%xmm5, %xmm4
	movss	-44(%rbp), %xmm5        # xmm5 = mem[0],zero,zero,zero
	mulss	8(%r9), %xmm5
	addss	%xmm5, %xmm4
	addss	%xmm1, %xmm4
	cvtss2sd	%xmm2, %xmm1
	movaps	.LCPI3_1(%rip), %xmm5   # xmm5 = [NaN,NaN]
	pand	%xmm5, %xmm1
	ucomisd	%xmm1, %xmm0
	movq	%rax, -104(%rbp)        # 8-byte Spill
	movq	%r10, -112(%rbp)        # 8-byte Spill
	movq	%r9, -120(%rbp)         # 8-byte Spill
	movq	%r8, -128(%rbp)         # 8-byte Spill
	movq	%rcx, -136(%rbp)        # 8-byte Spill
	movq	%rdx, -144(%rbp)        # 8-byte Spill
	movq	%rsi, -152(%rbp)        # 8-byte Spill
	movq	%rdi, -160(%rbp)        # 8-byte Spill
	movss	%xmm3, -164(%rbp)       # 4-byte Spill
	movss	%xmm4, -168(%rbp)       # 4-byte Spill
	movss	%xmm2, -172(%rbp)       # 4-byte Spill
	jbe	.LBB3_2
# %bb.1:
	xorps	%xmm0, %xmm0
	movss	%xmm0, -172(%rbp)       # 4-byte Spill
	jmp	.LBB3_2
.LBB3_2:
	movss	-172(%rbp), %xmm0       # 4-byte Reload
                                        # xmm0 = mem[0],zero,zero,zero
	movsd	.LCPI3_0(%rip), %xmm1   # xmm1 = mem[0],zero
	movss	-164(%rbp), %xmm2       # 4-byte Reload
                                        # xmm2 = mem[0],zero,zero,zero
	cvtss2sd	%xmm2, %xmm3
	movaps	.LCPI3_1(%rip), %xmm4   # xmm4 = [NaN,NaN]
	pand	%xmm4, %xmm3
	ucomisd	%xmm3, %xmm1
	movss	%xmm0, -176(%rbp)       # 4-byte Spill
	movss	%xmm2, -180(%rbp)       # 4-byte Spill
	jbe	.LBB3_4
# %bb.3:
	xorps	%xmm0, %xmm0
	movss	%xmm0, -180(%rbp)       # 4-byte Spill
	jmp	.LBB3_4
.LBB3_4:
	movss	-180(%rbp), %xmm0       # 4-byte Reload
                                        # xmm0 = mem[0],zero,zero,zero
	movsd	.LCPI3_0(%rip), %xmm1   # xmm1 = mem[0],zero
	movss	-168(%rbp), %xmm2       # 4-byte Reload
                                        # xmm2 = mem[0],zero,zero,zero
	cvtss2sd	%xmm2, %xmm3
	movaps	.LCPI3_1(%rip), %xmm4   # xmm4 = [NaN,NaN]
	pand	%xmm4, %xmm3
	ucomisd	%xmm3, %xmm1
	movss	%xmm0, -184(%rbp)       # 4-byte Spill
	movss	%xmm2, -188(%rbp)       # 4-byte Spill
	jbe	.LBB3_6
# %bb.5:
	xorps	%xmm0, %xmm0
	movss	%xmm0, -188(%rbp)       # 4-byte Spill
	jmp	.LBB3_6
.LBB3_6:
	movss	-188(%rbp), %xmm0       # 4-byte Reload
                                        # xmm0 = mem[0],zero,zero,zero
	movss	-176(%rbp), %xmm1       # 4-byte Reload
                                        # xmm1 = mem[0],zero,zero,zero
	movss	-184(%rbp), %xmm2       # 4-byte Reload
                                        # xmm2 = mem[0],zero,zero,zero
	mulss	%xmm2, %xmm1
	movss	-176(%rbp), %xmm3       # 4-byte Reload
                                        # xmm3 = mem[0],zero,zero,zero
	mulss	%xmm0, %xmm3
	movss	%xmm0, -192(%rbp)       # 4-byte Spill
	movss	%xmm1, -196(%rbp)       # 4-byte Spill
	movss	%xmm3, -200(%rbp)       # 4-byte Spill
# %bb.7:
	jmp	.LBB3_8
.LBB3_8:
	xorl	%eax, %eax
	movb	%al, %cl
	xorps	%xmm0, %xmm0
	movss	-196(%rbp), %xmm1       # 4-byte Reload
                                        # xmm1 = mem[0],zero,zero,zero
	ucomiss	%xmm0, %xmm1
	seta	%dl
	movb	%dl, %sil
	xorb	$-1, %sil
	testb	$1, %dl
	movb	%cl, -201(%rbp)         # 1-byte Spill
	movb	%sil, -202(%rbp)        # 1-byte Spill
	jne	.LBB3_9
	jmp	.LBB3_11
.LBB3_9:
	xorps	%xmm0, %xmm0
	movss	-200(%rbp), %xmm1       # 4-byte Reload
                                        # xmm1 = mem[0],zero,zero,zero
	ucomiss	%xmm0, %xmm1
	seta	%al
	xorb	$-1, %al
	movb	$1, %cl
	movb	%cl, -201(%rbp)         # 1-byte Spill
	movb	%al, -202(%rbp)         # 1-byte Spill
	jmp	.LBB3_11
.LBB3_10:
	xorl	%eax, %eax
	movq	-104(%rbp), %rcx        # 8-byte Reload
	movl	$0, (%rcx)
	movl	%eax, -208(%rbp)        # 4-byte Spill
	jmp	.LBB3_186
.LBB3_11:                               # %Flow56
	movb	-202(%rbp), %al         # 1-byte Reload
	movb	-201(%rbp), %cl         # 1-byte Reload
	testb	$1, %al
                                        # implicit-def: $edx
	movl	%edx, -212(%rbp)        # 4-byte Spill
	movb	%cl, -213(%rbp)         # 1-byte Spill
	jne	.LBB3_12
	jmp	.LBB3_14
.LBB3_12:
	movsd	.LCPI3_0(%rip), %xmm0   # xmm0 = mem[0],zero
	movq	-128(%rbp), %rax        # 8-byte Reload
	movss	(%rax), %xmm1           # xmm1 = mem[0],zero,zero,zero
	movq	-136(%rbp), %rcx        # 8-byte Reload
	subss	(%rcx), %xmm1
	movss	%xmm1, -28(%rbp)
	movss	4(%rax), %xmm1          # xmm1 = mem[0],zero,zero,zero
	subss	4(%rcx), %xmm1
	movss	%xmm1, -24(%rbp)
	movss	8(%rax), %xmm1          # xmm1 = mem[0],zero,zero,zero
	subss	8(%rcx), %xmm1
	movss	%xmm1, -20(%rbp)
	movq	-120(%rbp), %rdx        # 8-byte Reload
	movss	(%rdx), %xmm1           # xmm1 = mem[0],zero,zero,zero
	subss	(%rcx), %xmm1
	movss	%xmm1, -40(%rbp)
	movss	4(%rdx), %xmm1          # xmm1 = mem[0],zero,zero,zero
	subss	4(%rcx), %xmm1
	movss	%xmm1, -36(%rbp)
	movss	8(%rdx), %xmm1          # xmm1 = mem[0],zero,zero,zero
	subss	8(%rcx), %xmm1
	movss	%xmm1, -32(%rbp)
	movss	-24(%rbp), %xmm1        # xmm1 = mem[0],zero,zero,zero
	mulss	-32(%rbp), %xmm1
	movss	-20(%rbp), %xmm2        # xmm2 = mem[0],zero,zero,zero
	mulss	-36(%rbp), %xmm2
	subss	%xmm2, %xmm1
	movss	%xmm1, -64(%rbp)
	movss	-20(%rbp), %xmm1        # xmm1 = mem[0],zero,zero,zero
	mulss	-40(%rbp), %xmm1
	movss	-28(%rbp), %xmm2        # xmm2 = mem[0],zero,zero,zero
	mulss	-32(%rbp), %xmm2
	subss	%xmm2, %xmm1
	movss	%xmm1, -60(%rbp)
	movss	-28(%rbp), %xmm1        # xmm1 = mem[0],zero,zero,zero
	mulss	-36(%rbp), %xmm1
	movss	-24(%rbp), %xmm2        # xmm2 = mem[0],zero,zero,zero
	mulss	-40(%rbp), %xmm2
	subss	%xmm2, %xmm1
	movss	%xmm1, -56(%rbp)
	movss	-64(%rbp), %xmm1        # xmm1 = mem[0],zero,zero,zero
	mulss	(%rcx), %xmm1
	movss	-60(%rbp), %xmm2        # xmm2 = mem[0],zero,zero,zero
	mulss	4(%rcx), %xmm2
	addss	%xmm2, %xmm1
	movss	-56(%rbp), %xmm2        # xmm2 = mem[0],zero,zero,zero
	mulss	8(%rcx), %xmm2
	addss	%xmm2, %xmm1
	movd	%xmm1, %esi
	xorl	$2147483648, %esi       # imm = 0x80000000
	movd	%esi, %xmm1
	movss	-64(%rbp), %xmm2        # xmm2 = mem[0],zero,zero,zero
	movq	-160(%rbp), %rdi        # 8-byte Reload
	mulss	(%rdi), %xmm2
	movss	-60(%rbp), %xmm3        # xmm3 = mem[0],zero,zero,zero
	mulss	4(%rdi), %xmm3
	addss	%xmm3, %xmm2
	movss	-56(%rbp), %xmm3        # xmm3 = mem[0],zero,zero,zero
	mulss	8(%rdi), %xmm3
	addss	%xmm3, %xmm2
	addss	%xmm1, %xmm2
	movss	-64(%rbp), %xmm3        # xmm3 = mem[0],zero,zero,zero
	movq	-152(%rbp), %r8         # 8-byte Reload
	mulss	(%r8), %xmm3
	movss	-60(%rbp), %xmm4        # xmm4 = mem[0],zero,zero,zero
	mulss	4(%r8), %xmm4
	addss	%xmm4, %xmm3
	movss	-56(%rbp), %xmm4        # xmm4 = mem[0],zero,zero,zero
	mulss	8(%r8), %xmm4
	addss	%xmm4, %xmm3
	addss	%xmm1, %xmm3
	movss	-64(%rbp), %xmm4        # xmm4 = mem[0],zero,zero,zero
	movq	-144(%rbp), %r9         # 8-byte Reload
	mulss	(%r9), %xmm4
	movss	-60(%rbp), %xmm5        # xmm5 = mem[0],zero,zero,zero
	mulss	4(%r9), %xmm5
	addss	%xmm5, %xmm4
	movss	-56(%rbp), %xmm5        # xmm5 = mem[0],zero,zero,zero
	mulss	8(%r9), %xmm5
	addss	%xmm5, %xmm4
	addss	%xmm1, %xmm4
	cvtss2sd	%xmm2, %xmm1
	movaps	.LCPI3_1(%rip), %xmm5   # xmm5 = [NaN,NaN]
	pand	%xmm5, %xmm1
	ucomisd	%xmm1, %xmm0
	movss	%xmm3, -220(%rbp)       # 4-byte Spill
	movss	%xmm4, -224(%rbp)       # 4-byte Spill
	movss	%xmm2, -228(%rbp)       # 4-byte Spill
	jbe	.LBB3_15
# %bb.13:
	xorps	%xmm0, %xmm0
	movss	%xmm0, -228(%rbp)       # 4-byte Spill
	jmp	.LBB3_15
.LBB3_14:                               # %Flow57
	movb	-213(%rbp), %al         # 1-byte Reload
	movl	-212(%rbp), %ecx        # 4-byte Reload
	testb	$1, %al
	movl	%ecx, -208(%rbp)        # 4-byte Spill
	jne	.LBB3_10
	jmp	.LBB3_186
.LBB3_15:
	movss	-228(%rbp), %xmm0       # 4-byte Reload
                                        # xmm0 = mem[0],zero,zero,zero
	movsd	.LCPI3_0(%rip), %xmm1   # xmm1 = mem[0],zero
	movss	-220(%rbp), %xmm2       # 4-byte Reload
                                        # xmm2 = mem[0],zero,zero,zero
	cvtss2sd	%xmm2, %xmm3
	movaps	.LCPI3_1(%rip), %xmm4   # xmm4 = [NaN,NaN]
	pand	%xmm4, %xmm3
	ucomisd	%xmm3, %xmm1
	movss	%xmm0, -232(%rbp)       # 4-byte Spill
	movss	%xmm2, -236(%rbp)       # 4-byte Spill
	jbe	.LBB3_17
# %bb.16:
	xorps	%xmm0, %xmm0
	movss	%xmm0, -236(%rbp)       # 4-byte Spill
	jmp	.LBB3_17
.LBB3_17:
	movss	-236(%rbp), %xmm0       # 4-byte Reload
                                        # xmm0 = mem[0],zero,zero,zero
	movsd	.LCPI3_0(%rip), %xmm1   # xmm1 = mem[0],zero
	movss	-224(%rbp), %xmm2       # 4-byte Reload
                                        # xmm2 = mem[0],zero,zero,zero
	cvtss2sd	%xmm2, %xmm3
	movaps	.LCPI3_1(%rip), %xmm4   # xmm4 = [NaN,NaN]
	pand	%xmm4, %xmm3
	ucomisd	%xmm3, %xmm1
	movss	%xmm0, -240(%rbp)       # 4-byte Spill
	movss	%xmm2, -244(%rbp)       # 4-byte Spill
	jbe	.LBB3_19
# %bb.18:
	xorps	%xmm0, %xmm0
	movss	%xmm0, -244(%rbp)       # 4-byte Spill
	jmp	.LBB3_19
.LBB3_19:
	movss	-244(%rbp), %xmm0       # 4-byte Reload
                                        # xmm0 = mem[0],zero,zero,zero
	movss	-232(%rbp), %xmm1       # 4-byte Reload
                                        # xmm1 = mem[0],zero,zero,zero
	movss	-240(%rbp), %xmm2       # 4-byte Reload
                                        # xmm2 = mem[0],zero,zero,zero
	mulss	%xmm2, %xmm1
	movss	-232(%rbp), %xmm3       # 4-byte Reload
                                        # xmm3 = mem[0],zero,zero,zero
	mulss	%xmm0, %xmm3
	movss	%xmm0, -248(%rbp)       # 4-byte Spill
	movss	%xmm1, -252(%rbp)       # 4-byte Spill
	movss	%xmm3, -256(%rbp)       # 4-byte Spill
# %bb.20:
	jmp	.LBB3_21
.LBB3_21:
	xorl	%eax, %eax
	movb	%al, %cl
	xorps	%xmm0, %xmm0
	movss	-252(%rbp), %xmm1       # 4-byte Reload
                                        # xmm1 = mem[0],zero,zero,zero
	ucomiss	%xmm0, %xmm1
	seta	%dl
	movb	%dl, %sil
	xorb	$-1, %sil
	testb	$1, %dl
	movb	%cl, -257(%rbp)         # 1-byte Spill
	movb	%sil, -258(%rbp)        # 1-byte Spill
	jne	.LBB3_22
	jmp	.LBB3_24
.LBB3_22:
	xorps	%xmm0, %xmm0
	movss	-256(%rbp), %xmm1       # 4-byte Reload
                                        # xmm1 = mem[0],zero,zero,zero
	ucomiss	%xmm0, %xmm1
	seta	%al
	xorb	$-1, %al
	movb	$1, %cl
	movb	%cl, -257(%rbp)         # 1-byte Spill
	movb	%al, -258(%rbp)         # 1-byte Spill
	jmp	.LBB3_24
.LBB3_23:
	xorl	%eax, %eax
	movq	-104(%rbp), %rcx        # 8-byte Reload
	movl	$1, (%rcx)
	movl	%eax, -264(%rbp)        # 4-byte Spill
	jmp	.LBB3_185
.LBB3_24:                               # %Flow53
	movb	-258(%rbp), %al         # 1-byte Reload
	movb	-257(%rbp), %cl         # 1-byte Reload
	testb	$1, %al
                                        # implicit-def: $edx
	movl	%edx, -268(%rbp)        # 4-byte Spill
	movb	%cl, -269(%rbp)         # 1-byte Spill
	jne	.LBB3_25
	jmp	.LBB3_27
.LBB3_25:
	xorl	%eax, %eax
	movw	%ax, %cx
	movss	-48(%rbp), %xmm0        # xmm0 = mem[0],zero,zero,zero
	mulss	-56(%rbp), %xmm0
	movss	-44(%rbp), %xmm1        # xmm1 = mem[0],zero,zero,zero
	mulss	-60(%rbp), %xmm1
	subss	%xmm1, %xmm0
	movss	%xmm0, -76(%rbp)
	movss	-44(%rbp), %xmm0        # xmm0 = mem[0],zero,zero,zero
	mulss	-64(%rbp), %xmm0
	movss	-52(%rbp), %xmm1        # xmm1 = mem[0],zero,zero,zero
	mulss	-56(%rbp), %xmm1
	subss	%xmm1, %xmm0
	movss	%xmm0, -72(%rbp)
	movss	-52(%rbp), %xmm0        # xmm0 = mem[0],zero,zero,zero
	mulss	-60(%rbp), %xmm0
	movss	-48(%rbp), %xmm1        # xmm1 = mem[0],zero,zero,zero
	mulss	-64(%rbp), %xmm1
	subss	%xmm1, %xmm0
	movss	%xmm0, -68(%rbp)
	movss	-76(%rbp), %xmm0        # xmm0 = mem[0],zero,zero,zero
	cvtss2sd	%xmm0, %xmm0
	movaps	.LCPI3_1(%rip), %xmm1   # xmm1 = [NaN,NaN]
	pand	%xmm1, %xmm0
	cvtsd2ss	%xmm0, %xmm0
	movss	-72(%rbp), %xmm1        # xmm1 = mem[0],zero,zero,zero
	cvtss2sd	%xmm1, %xmm1
	movaps	.LCPI3_1(%rip), %xmm2   # xmm2 = [NaN,NaN]
	pand	%xmm2, %xmm1
	cvtsd2ss	%xmm1, %xmm1
	movss	-68(%rbp), %xmm2        # xmm2 = mem[0],zero,zero,zero
	cvtss2sd	%xmm2, %xmm2
	movaps	.LCPI3_1(%rip), %xmm3   # xmm3 = [NaN,NaN]
	pand	%xmm3, %xmm2
	cvtsd2ss	%xmm2, %xmm2
	ucomiss	%xmm0, %xmm1
	movss	%xmm1, -276(%rbp)       # 4-byte Spill
	movss	%xmm2, -280(%rbp)       # 4-byte Spill
	movss	%xmm0, -284(%rbp)       # 4-byte Spill
	movw	%cx, -286(%rbp)         # 2-byte Spill
	jbe	.LBB3_28
# %bb.26:
	movw	$1, %ax
	movss	-276(%rbp), %xmm0       # 4-byte Reload
                                        # xmm0 = mem[0],zero,zero,zero
	movss	%xmm0, -284(%rbp)       # 4-byte Spill
	movw	%ax, -286(%rbp)         # 2-byte Spill
	jmp	.LBB3_28
.LBB3_27:                               # %Flow54
	movb	-269(%rbp), %al         # 1-byte Reload
	movl	-268(%rbp), %ecx        # 4-byte Reload
	testb	$1, %al
	movl	%ecx, -264(%rbp)        # 4-byte Spill
	jne	.LBB3_23
	jmp	.LBB3_185
.LBB3_28:
	movw	-286(%rbp), %ax         # 2-byte Reload
	movss	-284(%rbp), %xmm0       # 4-byte Reload
                                        # xmm0 = mem[0],zero,zero,zero
	movss	-280(%rbp), %xmm1       # 4-byte Reload
                                        # xmm1 = mem[0],zero,zero,zero
	ucomiss	%xmm0, %xmm1
	movw	%ax, -288(%rbp)         # 2-byte Spill
	jbe	.LBB3_30
# %bb.29:
	movw	$2, %ax
	movw	%ax, -288(%rbp)         # 2-byte Spill
	jmp	.LBB3_30
.LBB3_30:
	movw	-288(%rbp), %ax         # 2-byte Reload
	xorl	%ecx, %ecx
	movb	%cl, %dl
	movswq	%ax, %rsi
	movq	-160(%rbp), %rdi        # 8-byte Reload
	movss	(%rdi,%rsi,4), %xmm0    # xmm0 = mem[0],zero,zero,zero
	movswq	%ax, %rsi
	movq	-152(%rbp), %r8         # 8-byte Reload
	movss	(%r8,%rsi,4), %xmm1     # xmm1 = mem[0],zero,zero,zero
	movswq	%ax, %rsi
	movq	-144(%rbp), %r9         # 8-byte Reload
	movss	(%r9,%rsi,4), %xmm2     # xmm2 = mem[0],zero,zero,zero
	movswq	%ax, %rsi
	movq	-136(%rbp), %r10        # 8-byte Reload
	movss	(%r10,%rsi,4), %xmm3    # xmm3 = mem[0],zero,zero,zero
	movswq	%ax, %rsi
	movq	-128(%rbp), %r11        # 8-byte Reload
	movss	(%r11,%rsi,4), %xmm4    # xmm4 = mem[0],zero,zero,zero
	movswq	%ax, %rsi
	movq	-120(%rbp), %rbx        # 8-byte Reload
	movss	(%rbx,%rsi,4), %xmm5    # xmm5 = mem[0],zero,zero,zero
	movq	-104(%rbp), %rsi        # 8-byte Reload
	movl	$2, (%rsi)
	xorps	%xmm6, %xmm6
	movss	-252(%rbp), %xmm7       # 4-byte Reload
                                        # xmm7 = mem[0],zero,zero,zero
	ucomiss	%xmm6, %xmm7
	seta	%r14b
	xorb	$-1, %r14b
	testb	$1, %r14b
	movb	$1, %r14b
                                        # implicit-def: $ecx
	movss	%xmm0, -292(%rbp)       # 4-byte Spill
	movss	%xmm1, -296(%rbp)       # 4-byte Spill
	movss	%xmm2, -300(%rbp)       # 4-byte Spill
	movss	%xmm3, -304(%rbp)       # 4-byte Spill
	movss	%xmm4, -308(%rbp)       # 4-byte Spill
	movss	%xmm5, -312(%rbp)       # 4-byte Spill
	movl	%ecx, -316(%rbp)        # 4-byte Spill
	movb	%dl, -317(%rbp)         # 1-byte Spill
	movb	%r14b, -318(%rbp)       # 1-byte Spill
	jne	.LBB3_42
	jmp	.LBB3_54
.LBB3_31:                               # %Flow50
	movb	-319(%rbp), %al         # 1-byte Reload
	xorl	%ecx, %ecx
	movb	%cl, %dl
	movl	-324(%rbp), %ecx        # 4-byte Reload
	movl	%ecx, -316(%rbp)        # 4-byte Spill
	movb	%al, -317(%rbp)         # 1-byte Spill
	movb	%dl, -318(%rbp)         # 1-byte Spill
	jmp	.LBB3_54
.LBB3_32:
	movss	-248(%rbp), %xmm0       # 4-byte Reload
                                        # xmm0 = mem[0],zero,zero,zero
	movss	-232(%rbp), %xmm1       # 4-byte Reload
                                        # xmm1 = mem[0],zero,zero,zero
	subss	%xmm1, %xmm0
	movss	-248(%rbp), %xmm2       # 4-byte Reload
                                        # xmm2 = mem[0],zero,zero,zero
	movss	-240(%rbp), %xmm3       # 4-byte Reload
                                        # xmm3 = mem[0],zero,zero,zero
	subss	%xmm3, %xmm2
	xorps	%xmm4, %xmm4
	ucomiss	%xmm4, %xmm0
	setae	%al
	xorb	$-1, %al
	testb	$1, %al
	movb	$1, %al
	movss	%xmm0, -328(%rbp)       # 4-byte Spill
	movss	%xmm2, -332(%rbp)       # 4-byte Spill
	movb	%al, -333(%rbp)         # 1-byte Spill
	jne	.LBB3_35
.LBB3_33:                               # %Flow37
	movb	-333(%rbp), %al         # 1-byte Reload
	testb	$1, %al
	jne	.LBB3_34
	jmp	.LBB3_37
.LBB3_34:
	movss	.LCPI3_4(%rip), %xmm0   # xmm0 = mem[0],zero,zero,zero
	movss	-300(%rbp), %xmm1       # 4-byte Reload
                                        # xmm1 = mem[0],zero,zero,zero
	cvtss2sd	%xmm1, %xmm2
	movss	-292(%rbp), %xmm3       # 4-byte Reload
                                        # xmm3 = mem[0],zero,zero,zero
	subss	%xmm1, %xmm3
	movss	-248(%rbp), %xmm4       # 4-byte Reload
                                        # xmm4 = mem[0],zero,zero,zero
	mulss	%xmm4, %xmm3
	cvtss2sd	%xmm3, %xmm3
	movss	.LCPI3_4(%rip), %xmm5   # xmm5 = mem[0],zero,zero,zero
	movss	-328(%rbp), %xmm6       # 4-byte Reload
                                        # xmm6 = mem[0],zero,zero,zero
	mulss	%xmm5, %xmm6
	cvttss2si	%xmm6, %rax
	movl	%eax, %ecx
	addl	$1342, %ecx             # imm = 0x53E
	movsd	.LCPI3_5(%rip), %xmm5   # xmm5 = mem[0],zero
	mulsd	%xmm5, %xmm3
	cvttsd2si	%xmm3, %rax
	movl	%eax, %edx
	movl	%edx, %edx
	movl	%edx, %eax
	shlq	$27, %rax
	movl	%ecx, %esi
	xorl	%ecx, %ecx
	movl	%ecx, %edx
	divq	%rsi
	movl	%eax, %ecx
	mulsd	%xmm5, %xmm2
	cvttsd2si	%xmm2, %rax
	movl	%eax, %edi
	addl	%ecx, %edi
	movl	%edi, %eax
	cvtsi2ssq	%rax, %xmm2
	divss	%xmm0, %xmm2
	movss	%xmm2, -84(%rbp)
	jmp	.LBB3_37
.LBB3_35:
	xorl	%eax, %eax
	movb	%al, %cl
	movss	.LCPI3_2(%rip), %xmm0   # xmm0 = mem[0],zero,zero,zero
	movsd	.LCPI3_3(%rip), %xmm1   # xmm1 = mem[0],zero
	movss	-300(%rbp), %xmm2       # 4-byte Reload
                                        # xmm2 = mem[0],zero,zero,zero
	cvtss2sd	%xmm2, %xmm3
	movss	-292(%rbp), %xmm4       # 4-byte Reload
                                        # xmm4 = mem[0],zero,zero,zero
	subss	%xmm2, %xmm4
	movss	-248(%rbp), %xmm5       # 4-byte Reload
                                        # xmm5 = mem[0],zero,zero,zero
	mulss	%xmm5, %xmm4
	cvtss2sd	%xmm4, %xmm4
	movaps	%xmm0, %xmm6
	movss	-328(%rbp), %xmm7       # 4-byte Reload
                                        # xmm7 = mem[0],zero,zero,zero
	mulss	%xmm7, %xmm6
	cvttss2si	%xmm6, %eax
	addl	$671, %eax              # imm = 0x29F
	movaps	%xmm1, %xmm6
	mulsd	%xmm4, %xmm6
	cvttsd2si	%xmm6, %edx
	movslq	%edx, %rsi
	shlq	$26, %rsi
	movslq	%eax, %rdi
	movq	%rsi, %rax
	cqto
	idivq	%rdi
	movl	%eax, %r8d
	mulsd	%xmm3, %xmm1
	cvttsd2si	%xmm1, %r9d
	addl	%r8d, %r9d
	cvtsi2ssl	%r9d, %xmm1
	divss	%xmm0, %xmm1
	movss	%xmm1, -84(%rbp)
	movb	%cl, -333(%rbp)         # 1-byte Spill
	jmp	.LBB3_33
.LBB3_36:                               # %Flow51
	movb	-334(%rbp), %al         # 1-byte Reload
	testb	$1, %al
	movl	-340(%rbp), %ecx        # 4-byte Reload
	movl	%ecx, -344(%rbp)        # 4-byte Spill
	jne	.LBB3_100
	jmp	.LBB3_184
.LBB3_37:
	xorps	%xmm0, %xmm0
	movss	-332(%rbp), %xmm1       # 4-byte Reload
                                        # xmm1 = mem[0],zero,zero,zero
	ucomiss	%xmm0, %xmm1
	setae	%al
	xorb	$-1, %al
	testb	$1, %al
	movb	$1, %al
	movb	%al, -345(%rbp)         # 1-byte Spill
	jne	.LBB3_40
.LBB3_38:                               # %Flow36
	movb	-345(%rbp), %al         # 1-byte Reload
	testb	$1, %al
	jne	.LBB3_39
	jmp	.LBB3_41
.LBB3_39:
	movss	.LCPI3_4(%rip), %xmm0   # xmm0 = mem[0],zero,zero,zero
	movss	-300(%rbp), %xmm1       # 4-byte Reload
                                        # xmm1 = mem[0],zero,zero,zero
	cvtss2sd	%xmm1, %xmm2
	movss	-296(%rbp), %xmm3       # 4-byte Reload
                                        # xmm3 = mem[0],zero,zero,zero
	subss	%xmm1, %xmm3
	movss	-248(%rbp), %xmm4       # 4-byte Reload
                                        # xmm4 = mem[0],zero,zero,zero
	mulss	%xmm4, %xmm3
	cvtss2sd	%xmm3, %xmm3
	movss	.LCPI3_4(%rip), %xmm5   # xmm5 = mem[0],zero,zero,zero
	movss	-332(%rbp), %xmm6       # 4-byte Reload
                                        # xmm6 = mem[0],zero,zero,zero
	mulss	%xmm5, %xmm6
	cvttss2si	%xmm6, %rax
	movl	%eax, %ecx
	addl	$1342, %ecx             # imm = 0x53E
	movsd	.LCPI3_5(%rip), %xmm5   # xmm5 = mem[0],zero
	mulsd	%xmm5, %xmm3
	cvttsd2si	%xmm3, %rax
	movl	%eax, %edx
	movl	%edx, %edx
	movl	%edx, %eax
	shlq	$27, %rax
	movl	%ecx, %esi
	xorl	%ecx, %ecx
	movl	%ecx, %edx
	divq	%rsi
	movl	%eax, %ecx
	mulsd	%xmm5, %xmm2
	cvttsd2si	%xmm2, %rax
	movl	%eax, %edi
	addl	%ecx, %edi
	movl	%edi, %eax
	cvtsi2ssq	%rax, %xmm2
	divss	%xmm0, %xmm2
	movss	%xmm2, -80(%rbp)
	jmp	.LBB3_41
.LBB3_40:
	xorl	%eax, %eax
	movb	%al, %cl
	movss	.LCPI3_2(%rip), %xmm0   # xmm0 = mem[0],zero,zero,zero
	movsd	.LCPI3_3(%rip), %xmm1   # xmm1 = mem[0],zero
	movss	-300(%rbp), %xmm2       # 4-byte Reload
                                        # xmm2 = mem[0],zero,zero,zero
	cvtss2sd	%xmm2, %xmm3
	movss	-296(%rbp), %xmm4       # 4-byte Reload
                                        # xmm4 = mem[0],zero,zero,zero
	subss	%xmm2, %xmm4
	movss	-248(%rbp), %xmm5       # 4-byte Reload
                                        # xmm5 = mem[0],zero,zero,zero
	mulss	%xmm5, %xmm4
	cvtss2sd	%xmm4, %xmm4
	movaps	%xmm0, %xmm6
	movss	-332(%rbp), %xmm7       # 4-byte Reload
                                        # xmm7 = mem[0],zero,zero,zero
	mulss	%xmm7, %xmm6
	cvttss2si	%xmm6, %eax
	addl	$671, %eax              # imm = 0x29F
	movaps	%xmm1, %xmm6
	mulsd	%xmm4, %xmm6
	cvttsd2si	%xmm6, %edx
	movslq	%edx, %rsi
	shlq	$26, %rsi
	movslq	%eax, %rdi
	movq	%rsi, %rax
	cqto
	idivq	%rdi
	movl	%eax, %r8d
	mulsd	%xmm3, %xmm1
	cvttsd2si	%xmm1, %r9d
	addl	%r8d, %r9d
	cvtsi2ssl	%r9d, %xmm1
	divss	%xmm0, %xmm1
	movss	%xmm1, -80(%rbp)
	movb	%cl, -345(%rbp)         # 1-byte Spill
	jmp	.LBB3_38
.LBB3_41:
	movb	$1, %al
	movb	%al, -334(%rbp)         # 1-byte Spill
	jmp	.LBB3_36
.LBB3_42:
	xorl	%eax, %eax
	movb	%al, %cl
	xorps	%xmm0, %xmm0
	movss	-256(%rbp), %xmm1       # 4-byte Reload
                                        # xmm1 = mem[0],zero,zero,zero
	ucomiss	%xmm0, %xmm1
	seta	%dl
	xorb	$-1, %dl
	testb	$1, %dl
	movb	$1, %dl
                                        # implicit-def: $eax
	movl	%eax, -352(%rbp)        # 4-byte Spill
	movb	%cl, -353(%rbp)         # 1-byte Spill
	movb	%dl, -354(%rbp)         # 1-byte Spill
	jne	.LBB3_55
	jmp	.LBB3_56
.LBB3_43:                               # %Flow48
	movb	-355(%rbp), %al         # 1-byte Reload
	xorl	%ecx, %ecx
	movb	%cl, %dl
	movl	-360(%rbp), %ecx        # 4-byte Reload
	movl	%ecx, -352(%rbp)        # 4-byte Spill
	movb	%al, -353(%rbp)         # 1-byte Spill
	movb	%dl, -354(%rbp)         # 1-byte Spill
	jmp	.LBB3_56
.LBB3_44:
	movss	-240(%rbp), %xmm0       # 4-byte Reload
                                        # xmm0 = mem[0],zero,zero,zero
	movss	-232(%rbp), %xmm1       # 4-byte Reload
                                        # xmm1 = mem[0],zero,zero,zero
	subss	%xmm1, %xmm0
	movss	-240(%rbp), %xmm2       # 4-byte Reload
                                        # xmm2 = mem[0],zero,zero,zero
	movss	-248(%rbp), %xmm3       # 4-byte Reload
                                        # xmm3 = mem[0],zero,zero,zero
	subss	%xmm3, %xmm2
	xorps	%xmm4, %xmm4
	ucomiss	%xmm4, %xmm0
	setae	%al
	xorb	$-1, %al
	testb	$1, %al
	movb	$1, %al
	movss	%xmm0, -364(%rbp)       # 4-byte Spill
	movss	%xmm2, -368(%rbp)       # 4-byte Spill
	movb	%al, -369(%rbp)         # 1-byte Spill
	jne	.LBB3_47
.LBB3_45:                               # %Flow7
	movb	-369(%rbp), %al         # 1-byte Reload
	testb	$1, %al
	jne	.LBB3_46
	jmp	.LBB3_49
.LBB3_46:
	movss	.LCPI3_4(%rip), %xmm0   # xmm0 = mem[0],zero,zero,zero
	movss	-296(%rbp), %xmm1       # 4-byte Reload
                                        # xmm1 = mem[0],zero,zero,zero
	cvtss2sd	%xmm1, %xmm2
	movss	-292(%rbp), %xmm3       # 4-byte Reload
                                        # xmm3 = mem[0],zero,zero,zero
	subss	%xmm1, %xmm3
	movss	-240(%rbp), %xmm4       # 4-byte Reload
                                        # xmm4 = mem[0],zero,zero,zero
	mulss	%xmm4, %xmm3
	cvtss2sd	%xmm3, %xmm3
	movss	.LCPI3_4(%rip), %xmm5   # xmm5 = mem[0],zero,zero,zero
	movss	-364(%rbp), %xmm6       # 4-byte Reload
                                        # xmm6 = mem[0],zero,zero,zero
	mulss	%xmm5, %xmm6
	cvttss2si	%xmm6, %rax
	movl	%eax, %ecx
	addl	$1342, %ecx             # imm = 0x53E
	movsd	.LCPI3_5(%rip), %xmm5   # xmm5 = mem[0],zero
	mulsd	%xmm5, %xmm3
	cvttsd2si	%xmm3, %rax
	movl	%eax, %edx
	movl	%edx, %edx
	movl	%edx, %eax
	shlq	$27, %rax
	movl	%ecx, %esi
	xorl	%ecx, %ecx
	movl	%ecx, %edx
	divq	%rsi
	movl	%eax, %ecx
	mulsd	%xmm5, %xmm2
	cvttsd2si	%xmm2, %rax
	movl	%eax, %edi
	addl	%ecx, %edi
	movl	%edi, %eax
	cvtsi2ssq	%rax, %xmm2
	divss	%xmm0, %xmm2
	movss	%xmm2, -84(%rbp)
	jmp	.LBB3_49
.LBB3_47:
	xorl	%eax, %eax
	movb	%al, %cl
	movss	.LCPI3_2(%rip), %xmm0   # xmm0 = mem[0],zero,zero,zero
	movsd	.LCPI3_3(%rip), %xmm1   # xmm1 = mem[0],zero
	movss	-296(%rbp), %xmm2       # 4-byte Reload
                                        # xmm2 = mem[0],zero,zero,zero
	cvtss2sd	%xmm2, %xmm3
	movss	-292(%rbp), %xmm4       # 4-byte Reload
                                        # xmm4 = mem[0],zero,zero,zero
	subss	%xmm2, %xmm4
	movss	-240(%rbp), %xmm5       # 4-byte Reload
                                        # xmm5 = mem[0],zero,zero,zero
	mulss	%xmm5, %xmm4
	cvtss2sd	%xmm4, %xmm4
	movaps	%xmm0, %xmm6
	movss	-364(%rbp), %xmm7       # 4-byte Reload
                                        # xmm7 = mem[0],zero,zero,zero
	mulss	%xmm7, %xmm6
	cvttss2si	%xmm6, %eax
	addl	$671, %eax              # imm = 0x29F
	movaps	%xmm1, %xmm6
	mulsd	%xmm4, %xmm6
	cvttsd2si	%xmm6, %edx
	movslq	%edx, %rsi
	shlq	$26, %rsi
	movslq	%eax, %rdi
	movq	%rsi, %rax
	cqto
	idivq	%rdi
	movl	%eax, %r8d
	mulsd	%xmm3, %xmm1
	cvttsd2si	%xmm1, %r9d
	addl	%r8d, %r9d
	cvtsi2ssl	%r9d, %xmm1
	divss	%xmm0, %xmm1
	movss	%xmm1, -84(%rbp)
	movb	%cl, -369(%rbp)         # 1-byte Spill
	jmp	.LBB3_45
.LBB3_48:                               # %Flow49
	movb	-370(%rbp), %al         # 1-byte Reload
	xorl	%ecx, %ecx
	movb	%cl, %dl
	testb	$1, %al
	movb	%dl, -319(%rbp)         # 1-byte Spill
	jne	.LBB3_99
	jmp	.LBB3_31
.LBB3_49:
	xorps	%xmm0, %xmm0
	movss	-368(%rbp), %xmm1       # 4-byte Reload
                                        # xmm1 = mem[0],zero,zero,zero
	ucomiss	%xmm0, %xmm1
	setae	%al
	xorb	$-1, %al
	testb	$1, %al
	movb	$1, %al
	movb	%al, -371(%rbp)         # 1-byte Spill
	jne	.LBB3_52
.LBB3_50:                               # %Flow6
	movb	-371(%rbp), %al         # 1-byte Reload
	testb	$1, %al
	jne	.LBB3_51
	jmp	.LBB3_53
.LBB3_51:
	movss	.LCPI3_4(%rip), %xmm0   # xmm0 = mem[0],zero,zero,zero
	movss	-296(%rbp), %xmm1       # 4-byte Reload
                                        # xmm1 = mem[0],zero,zero,zero
	cvtss2sd	%xmm1, %xmm2
	movss	-300(%rbp), %xmm3       # 4-byte Reload
                                        # xmm3 = mem[0],zero,zero,zero
	subss	%xmm1, %xmm3
	movss	-240(%rbp), %xmm4       # 4-byte Reload
                                        # xmm4 = mem[0],zero,zero,zero
	mulss	%xmm4, %xmm3
	cvtss2sd	%xmm3, %xmm3
	movss	.LCPI3_4(%rip), %xmm5   # xmm5 = mem[0],zero,zero,zero
	movss	-368(%rbp), %xmm6       # 4-byte Reload
                                        # xmm6 = mem[0],zero,zero,zero
	mulss	%xmm5, %xmm6
	cvttss2si	%xmm6, %rax
	movl	%eax, %ecx
	addl	$1342, %ecx             # imm = 0x53E
	movsd	.LCPI3_5(%rip), %xmm5   # xmm5 = mem[0],zero
	mulsd	%xmm5, %xmm3
	cvttsd2si	%xmm3, %rax
	movl	%eax, %edx
	movl	%edx, %edx
	movl	%edx, %eax
	shlq	$27, %rax
	movl	%ecx, %esi
	xorl	%ecx, %ecx
	movl	%ecx, %edx
	divq	%rsi
	movl	%eax, %ecx
	mulsd	%xmm5, %xmm2
	cvttsd2si	%xmm2, %rax
	movl	%eax, %edi
	addl	%ecx, %edi
	movl	%edi, %eax
	cvtsi2ssq	%rax, %xmm2
	divss	%xmm0, %xmm2
	movss	%xmm2, -80(%rbp)
	jmp	.LBB3_53
.LBB3_52:
	xorl	%eax, %eax
	movb	%al, %cl
	movss	.LCPI3_2(%rip), %xmm0   # xmm0 = mem[0],zero,zero,zero
	movsd	.LCPI3_3(%rip), %xmm1   # xmm1 = mem[0],zero
	movss	-296(%rbp), %xmm2       # 4-byte Reload
                                        # xmm2 = mem[0],zero,zero,zero
	cvtss2sd	%xmm2, %xmm3
	movss	-300(%rbp), %xmm4       # 4-byte Reload
                                        # xmm4 = mem[0],zero,zero,zero
	subss	%xmm2, %xmm4
	movss	-240(%rbp), %xmm5       # 4-byte Reload
                                        # xmm5 = mem[0],zero,zero,zero
	mulss	%xmm5, %xmm4
	cvtss2sd	%xmm4, %xmm4
	movaps	%xmm0, %xmm6
	movss	-368(%rbp), %xmm7       # 4-byte Reload
                                        # xmm7 = mem[0],zero,zero,zero
	mulss	%xmm7, %xmm6
	cvttss2si	%xmm6, %eax
	addl	$671, %eax              # imm = 0x29F
	movaps	%xmm1, %xmm6
	mulsd	%xmm4, %xmm6
	cvttsd2si	%xmm6, %edx
	movslq	%edx, %rsi
	shlq	$26, %rsi
	movslq	%eax, %rdi
	movq	%rsi, %rax
	cqto
	idivq	%rdi
	movl	%eax, %r8d
	mulsd	%xmm3, %xmm1
	cvttsd2si	%xmm1, %r9d
	addl	%r8d, %r9d
	cvtsi2ssl	%r9d, %xmm1
	divss	%xmm0, %xmm1
	movss	%xmm1, -80(%rbp)
	movb	%cl, -371(%rbp)         # 1-byte Spill
	jmp	.LBB3_50
.LBB3_53:
	movb	$1, %al
	movb	%al, -370(%rbp)         # 1-byte Spill
	jmp	.LBB3_48
.LBB3_54:                               # %Flow38
	movb	-318(%rbp), %al         # 1-byte Reload
	movb	-317(%rbp), %cl         # 1-byte Reload
	movl	-316(%rbp), %edx        # 4-byte Reload
	testb	$1, %al
	movl	%edx, -340(%rbp)        # 4-byte Spill
	movb	%cl, -334(%rbp)         # 1-byte Spill
	jne	.LBB3_32
	jmp	.LBB3_36
.LBB3_55:
	xorl	%eax, %eax
	movb	%al, %cl
	movss	-240(%rbp), %xmm0       # 4-byte Reload
                                        # xmm0 = mem[0],zero,zero,zero
	movss	-248(%rbp), %xmm1       # 4-byte Reload
                                        # xmm1 = mem[0],zero,zero,zero
	mulss	%xmm1, %xmm0
	xorps	%xmm2, %xmm2
	ucomiss	%xmm2, %xmm0
	seta	%dl
	movb	%dl, %sil
	xorb	$-1, %sil
	testb	$1, %sil
                                        # implicit-def: $eax
	movl	%eax, -376(%rbp)        # 4-byte Spill
	movb	%cl, -377(%rbp)         # 1-byte Spill
	movb	%dl, -378(%rbp)         # 1-byte Spill
	jne	.LBB3_57
	jmp	.LBB3_69
.LBB3_56:                               # %Flow39
	movb	-354(%rbp), %al         # 1-byte Reload
	movb	-353(%rbp), %cl         # 1-byte Reload
	movl	-352(%rbp), %edx        # 4-byte Reload
	testb	$1, %al
	movl	%edx, -324(%rbp)        # 4-byte Spill
	movb	%cl, -370(%rbp)         # 1-byte Spill
	jne	.LBB3_44
	jmp	.LBB3_48
.LBB3_57:
	xorl	%eax, %eax
	movb	%al, %cl
	xorps	%xmm0, %xmm0
	movss	-232(%rbp), %xmm1       # 4-byte Reload
                                        # xmm1 = mem[0],zero,zero,zero
	ucomiss	%xmm0, %xmm1
	setne	%dl
	setp	%sil
	orb	%sil, %dl
	xorb	$-1, %dl
	testb	$1, %dl
	movb	$1, %dl
                                        # implicit-def: $eax
	movl	%eax, -384(%rbp)        # 4-byte Spill
	movb	%cl, -385(%rbp)         # 1-byte Spill
	movb	%dl, -386(%rbp)         # 1-byte Spill
	jne	.LBB3_70
	jmp	.LBB3_81
.LBB3_58:                               # %Flow46
	movb	-387(%rbp), %al         # 1-byte Reload
	xorl	%ecx, %ecx
	movb	%cl, %dl
	movl	-392(%rbp), %ecx        # 4-byte Reload
	movl	%ecx, -384(%rbp)        # 4-byte Spill
	movb	%al, -385(%rbp)         # 1-byte Spill
	movb	%dl, -386(%rbp)         # 1-byte Spill
	jmp	.LBB3_81
.LBB3_59:
	movss	-232(%rbp), %xmm0       # 4-byte Reload
                                        # xmm0 = mem[0],zero,zero,zero
	movss	-240(%rbp), %xmm1       # 4-byte Reload
                                        # xmm1 = mem[0],zero,zero,zero
	subss	%xmm1, %xmm0
	movss	-232(%rbp), %xmm2       # 4-byte Reload
                                        # xmm2 = mem[0],zero,zero,zero
	movss	-248(%rbp), %xmm3       # 4-byte Reload
                                        # xmm3 = mem[0],zero,zero,zero
	subss	%xmm3, %xmm2
	xorps	%xmm4, %xmm4
	ucomiss	%xmm4, %xmm0
	setae	%al
	xorb	$-1, %al
	testb	$1, %al
	movb	$1, %al
	movss	%xmm0, -396(%rbp)       # 4-byte Spill
	movss	%xmm2, -400(%rbp)       # 4-byte Spill
	movb	%al, -401(%rbp)         # 1-byte Spill
	jne	.LBB3_62
.LBB3_60:                               # %Flow5
	movb	-401(%rbp), %al         # 1-byte Reload
	testb	$1, %al
	jne	.LBB3_61
	jmp	.LBB3_64
.LBB3_61:
	movss	.LCPI3_4(%rip), %xmm0   # xmm0 = mem[0],zero,zero,zero
	movss	-292(%rbp), %xmm1       # 4-byte Reload
                                        # xmm1 = mem[0],zero,zero,zero
	cvtss2sd	%xmm1, %xmm2
	movss	-296(%rbp), %xmm3       # 4-byte Reload
                                        # xmm3 = mem[0],zero,zero,zero
	subss	%xmm1, %xmm3
	movss	-232(%rbp), %xmm4       # 4-byte Reload
                                        # xmm4 = mem[0],zero,zero,zero
	mulss	%xmm4, %xmm3
	cvtss2sd	%xmm3, %xmm3
	movss	.LCPI3_4(%rip), %xmm5   # xmm5 = mem[0],zero,zero,zero
	movss	-396(%rbp), %xmm6       # 4-byte Reload
                                        # xmm6 = mem[0],zero,zero,zero
	mulss	%xmm5, %xmm6
	cvttss2si	%xmm6, %rax
	movl	%eax, %ecx
	addl	$1342, %ecx             # imm = 0x53E
	movsd	.LCPI3_5(%rip), %xmm5   # xmm5 = mem[0],zero
	mulsd	%xmm5, %xmm3
	cvttsd2si	%xmm3, %rax
	movl	%eax, %edx
	movl	%edx, %edx
	movl	%edx, %eax
	shlq	$27, %rax
	movl	%ecx, %esi
	xorl	%ecx, %ecx
	movl	%ecx, %edx
	divq	%rsi
	movl	%eax, %ecx
	mulsd	%xmm5, %xmm2
	cvttsd2si	%xmm2, %rax
	movl	%eax, %edi
	addl	%ecx, %edi
	movl	%edi, %eax
	cvtsi2ssq	%rax, %xmm2
	divss	%xmm0, %xmm2
	movss	%xmm2, -84(%rbp)
	jmp	.LBB3_64
.LBB3_62:
	xorl	%eax, %eax
	movb	%al, %cl
	movss	.LCPI3_2(%rip), %xmm0   # xmm0 = mem[0],zero,zero,zero
	movsd	.LCPI3_3(%rip), %xmm1   # xmm1 = mem[0],zero
	movss	-292(%rbp), %xmm2       # 4-byte Reload
                                        # xmm2 = mem[0],zero,zero,zero
	cvtss2sd	%xmm2, %xmm3
	movss	-296(%rbp), %xmm4       # 4-byte Reload
                                        # xmm4 = mem[0],zero,zero,zero
	subss	%xmm2, %xmm4
	movss	-232(%rbp), %xmm5       # 4-byte Reload
                                        # xmm5 = mem[0],zero,zero,zero
	mulss	%xmm5, %xmm4
	cvtss2sd	%xmm4, %xmm4
	movaps	%xmm0, %xmm6
	movss	-396(%rbp), %xmm7       # 4-byte Reload
                                        # xmm7 = mem[0],zero,zero,zero
	mulss	%xmm7, %xmm6
	cvttss2si	%xmm6, %eax
	addl	$671, %eax              # imm = 0x29F
	movaps	%xmm1, %xmm6
	mulsd	%xmm4, %xmm6
	cvttsd2si	%xmm6, %edx
	movslq	%edx, %rsi
	shlq	$26, %rsi
	movslq	%eax, %rdi
	movq	%rsi, %rax
	cqto
	idivq	%rdi
	movl	%eax, %r8d
	mulsd	%xmm3, %xmm1
	cvttsd2si	%xmm1, %r9d
	addl	%r8d, %r9d
	cvtsi2ssl	%r9d, %xmm1
	divss	%xmm0, %xmm1
	movss	%xmm1, -84(%rbp)
	movb	%cl, -401(%rbp)         # 1-byte Spill
	jmp	.LBB3_60
.LBB3_63:                               # %Flow47
	movb	-402(%rbp), %al         # 1-byte Reload
	xorl	%ecx, %ecx
	movb	%cl, %dl
	testb	$1, %al
	movb	%dl, -355(%rbp)         # 1-byte Spill
	jne	.LBB3_98
	jmp	.LBB3_43
.LBB3_64:
	xorps	%xmm0, %xmm0
	movss	-400(%rbp), %xmm1       # 4-byte Reload
                                        # xmm1 = mem[0],zero,zero,zero
	ucomiss	%xmm0, %xmm1
	setae	%al
	xorb	$-1, %al
	testb	$1, %al
	movb	$1, %al
	movb	%al, -403(%rbp)         # 1-byte Spill
	jne	.LBB3_67
.LBB3_65:                               # %Flow4
	movb	-403(%rbp), %al         # 1-byte Reload
	testb	$1, %al
	jne	.LBB3_66
	jmp	.LBB3_68
.LBB3_66:
	movss	.LCPI3_4(%rip), %xmm0   # xmm0 = mem[0],zero,zero,zero
	movss	-292(%rbp), %xmm1       # 4-byte Reload
                                        # xmm1 = mem[0],zero,zero,zero
	cvtss2sd	%xmm1, %xmm2
	movss	-300(%rbp), %xmm3       # 4-byte Reload
                                        # xmm3 = mem[0],zero,zero,zero
	subss	%xmm1, %xmm3
	movss	-232(%rbp), %xmm4       # 4-byte Reload
                                        # xmm4 = mem[0],zero,zero,zero
	mulss	%xmm4, %xmm3
	cvtss2sd	%xmm3, %xmm3
	movss	.LCPI3_4(%rip), %xmm5   # xmm5 = mem[0],zero,zero,zero
	movss	-400(%rbp), %xmm6       # 4-byte Reload
                                        # xmm6 = mem[0],zero,zero,zero
	mulss	%xmm5, %xmm6
	cvttss2si	%xmm6, %rax
	movl	%eax, %ecx
	addl	$1342, %ecx             # imm = 0x53E
	movsd	.LCPI3_5(%rip), %xmm5   # xmm5 = mem[0],zero
	mulsd	%xmm5, %xmm3
	cvttsd2si	%xmm3, %rax
	movl	%eax, %edx
	movl	%edx, %edx
	movl	%edx, %eax
	shlq	$27, %rax
	movl	%ecx, %esi
	xorl	%ecx, %ecx
	movl	%ecx, %edx
	divq	%rsi
	movl	%eax, %ecx
	mulsd	%xmm5, %xmm2
	cvttsd2si	%xmm2, %rax
	movl	%eax, %edi
	addl	%ecx, %edi
	movl	%edi, %eax
	cvtsi2ssq	%rax, %xmm2
	divss	%xmm0, %xmm2
	movss	%xmm2, -80(%rbp)
	jmp	.LBB3_68
.LBB3_67:
	xorl	%eax, %eax
	movb	%al, %cl
	movss	.LCPI3_2(%rip), %xmm0   # xmm0 = mem[0],zero,zero,zero
	movsd	.LCPI3_3(%rip), %xmm1   # xmm1 = mem[0],zero
	movss	-292(%rbp), %xmm2       # 4-byte Reload
                                        # xmm2 = mem[0],zero,zero,zero
	cvtss2sd	%xmm2, %xmm3
	movss	-300(%rbp), %xmm4       # 4-byte Reload
                                        # xmm4 = mem[0],zero,zero,zero
	subss	%xmm2, %xmm4
	movss	-232(%rbp), %xmm5       # 4-byte Reload
                                        # xmm5 = mem[0],zero,zero,zero
	mulss	%xmm5, %xmm4
	cvtss2sd	%xmm4, %xmm4
	movaps	%xmm0, %xmm6
	movss	-400(%rbp), %xmm7       # 4-byte Reload
                                        # xmm7 = mem[0],zero,zero,zero
	mulss	%xmm7, %xmm6
	cvttss2si	%xmm6, %eax
	addl	$671, %eax              # imm = 0x29F
	movaps	%xmm1, %xmm6
	mulsd	%xmm4, %xmm6
	cvttsd2si	%xmm6, %edx
	movslq	%edx, %rsi
	shlq	$26, %rsi
	movslq	%eax, %rdi
	movq	%rsi, %rax
	cqto
	idivq	%rdi
	movl	%eax, %r8d
	mulsd	%xmm3, %xmm1
	cvttsd2si	%xmm1, %r9d
	addl	%r8d, %r9d
	cvtsi2ssl	%r9d, %xmm1
	divss	%xmm0, %xmm1
	movss	%xmm1, -80(%rbp)
	movb	%cl, -403(%rbp)         # 1-byte Spill
	jmp	.LBB3_65
.LBB3_68:
	movb	$1, %al
	movb	%al, -402(%rbp)         # 1-byte Spill
	jmp	.LBB3_63
.LBB3_69:                               # %Flow40
	movb	-378(%rbp), %al         # 1-byte Reload
	movb	-377(%rbp), %cl         # 1-byte Reload
	movl	-376(%rbp), %edx        # 4-byte Reload
	testb	$1, %al
	movl	%edx, -360(%rbp)        # 4-byte Spill
	movb	%cl, -402(%rbp)         # 1-byte Spill
	jne	.LBB3_59
	jmp	.LBB3_63
.LBB3_70:
	xorl	%eax, %eax
	movb	%al, %cl
	xorps	%xmm0, %xmm0
	movss	-240(%rbp), %xmm1       # 4-byte Reload
                                        # xmm1 = mem[0],zero,zero,zero
	ucomiss	%xmm0, %xmm1
	setne	%dl
	setp	%sil
	orb	%sil, %dl
	xorb	$-1, %dl
	testb	$1, %dl
	movb	$1, %dl
                                        # implicit-def: $eax
	movl	%eax, -408(%rbp)        # 4-byte Spill
	movb	%cl, -409(%rbp)         # 1-byte Spill
	movb	%dl, -410(%rbp)         # 1-byte Spill
	jne	.LBB3_82
	jmp	.LBB3_94
.LBB3_71:
	movss	-240(%rbp), %xmm0       # 4-byte Reload
                                        # xmm0 = mem[0],zero,zero,zero
	movss	-232(%rbp), %xmm1       # 4-byte Reload
                                        # xmm1 = mem[0],zero,zero,zero
	subss	%xmm1, %xmm0
	movss	-240(%rbp), %xmm2       # 4-byte Reload
                                        # xmm2 = mem[0],zero,zero,zero
	movss	-248(%rbp), %xmm3       # 4-byte Reload
                                        # xmm3 = mem[0],zero,zero,zero
	subss	%xmm3, %xmm2
	xorps	%xmm4, %xmm4
	ucomiss	%xmm4, %xmm0
	setae	%al
	xorb	$-1, %al
	testb	$1, %al
	movb	$1, %al
	movss	%xmm0, -416(%rbp)       # 4-byte Spill
	movss	%xmm2, -420(%rbp)       # 4-byte Spill
	movb	%al, -421(%rbp)         # 1-byte Spill
	jne	.LBB3_74
.LBB3_72:                               # %Flow3
	movb	-421(%rbp), %al         # 1-byte Reload
	testb	$1, %al
	jne	.LBB3_73
	jmp	.LBB3_76
.LBB3_73:
	movss	.LCPI3_4(%rip), %xmm0   # xmm0 = mem[0],zero,zero,zero
	movss	-296(%rbp), %xmm1       # 4-byte Reload
                                        # xmm1 = mem[0],zero,zero,zero
	cvtss2sd	%xmm1, %xmm2
	movss	-292(%rbp), %xmm3       # 4-byte Reload
                                        # xmm3 = mem[0],zero,zero,zero
	subss	%xmm1, %xmm3
	movss	-240(%rbp), %xmm4       # 4-byte Reload
                                        # xmm4 = mem[0],zero,zero,zero
	mulss	%xmm4, %xmm3
	cvtss2sd	%xmm3, %xmm3
	movss	.LCPI3_4(%rip), %xmm5   # xmm5 = mem[0],zero,zero,zero
	movss	-416(%rbp), %xmm6       # 4-byte Reload
                                        # xmm6 = mem[0],zero,zero,zero
	mulss	%xmm5, %xmm6
	cvttss2si	%xmm6, %rax
	movl	%eax, %ecx
	addl	$1342, %ecx             # imm = 0x53E
	movsd	.LCPI3_5(%rip), %xmm5   # xmm5 = mem[0],zero
	mulsd	%xmm5, %xmm3
	cvttsd2si	%xmm3, %rax
	movl	%eax, %edx
	movl	%edx, %edx
	movl	%edx, %eax
	shlq	$27, %rax
	movl	%ecx, %esi
	xorl	%ecx, %ecx
	movl	%ecx, %edx
	divq	%rsi
	movl	%eax, %ecx
	mulsd	%xmm5, %xmm2
	cvttsd2si	%xmm2, %rax
	movl	%eax, %edi
	addl	%ecx, %edi
	movl	%edi, %eax
	cvtsi2ssq	%rax, %xmm2
	divss	%xmm0, %xmm2
	movss	%xmm2, -84(%rbp)
	jmp	.LBB3_76
.LBB3_74:
	xorl	%eax, %eax
	movb	%al, %cl
	movss	.LCPI3_2(%rip), %xmm0   # xmm0 = mem[0],zero,zero,zero
	movsd	.LCPI3_3(%rip), %xmm1   # xmm1 = mem[0],zero
	movss	-296(%rbp), %xmm2       # 4-byte Reload
                                        # xmm2 = mem[0],zero,zero,zero
	cvtss2sd	%xmm2, %xmm3
	movss	-292(%rbp), %xmm4       # 4-byte Reload
                                        # xmm4 = mem[0],zero,zero,zero
	subss	%xmm2, %xmm4
	movss	-240(%rbp), %xmm5       # 4-byte Reload
                                        # xmm5 = mem[0],zero,zero,zero
	mulss	%xmm5, %xmm4
	cvtss2sd	%xmm4, %xmm4
	movaps	%xmm0, %xmm6
	movss	-416(%rbp), %xmm7       # 4-byte Reload
                                        # xmm7 = mem[0],zero,zero,zero
	mulss	%xmm7, %xmm6
	cvttss2si	%xmm6, %eax
	addl	$671, %eax              # imm = 0x29F
	movaps	%xmm1, %xmm6
	mulsd	%xmm4, %xmm6
	cvttsd2si	%xmm6, %edx
	movslq	%edx, %rsi
	shlq	$26, %rsi
	movslq	%eax, %rdi
	movq	%rsi, %rax
	cqto
	idivq	%rdi
	movl	%eax, %r8d
	mulsd	%xmm3, %xmm1
	cvttsd2si	%xmm1, %r9d
	addl	%r8d, %r9d
	cvtsi2ssl	%r9d, %xmm1
	divss	%xmm0, %xmm1
	movss	%xmm1, -84(%rbp)
	movb	%cl, -421(%rbp)         # 1-byte Spill
	jmp	.LBB3_72
.LBB3_75:                               # %Flow45
	movb	-422(%rbp), %al         # 1-byte Reload
	xorl	%ecx, %ecx
	movb	%cl, %dl
	testb	$1, %al
	movb	%dl, -387(%rbp)         # 1-byte Spill
	jne	.LBB3_97
	jmp	.LBB3_58
.LBB3_76:
	xorps	%xmm0, %xmm0
	movss	-420(%rbp), %xmm1       # 4-byte Reload
                                        # xmm1 = mem[0],zero,zero,zero
	ucomiss	%xmm0, %xmm1
	setae	%al
	xorb	$-1, %al
	testb	$1, %al
	movb	$1, %al
	movb	%al, -423(%rbp)         # 1-byte Spill
	jne	.LBB3_79
.LBB3_77:                               # %Flow2
	movb	-423(%rbp), %al         # 1-byte Reload
	testb	$1, %al
	jne	.LBB3_78
	jmp	.LBB3_80
.LBB3_78:
	movss	.LCPI3_4(%rip), %xmm0   # xmm0 = mem[0],zero,zero,zero
	movss	-296(%rbp), %xmm1       # 4-byte Reload
                                        # xmm1 = mem[0],zero,zero,zero
	cvtss2sd	%xmm1, %xmm2
	movss	-300(%rbp), %xmm3       # 4-byte Reload
                                        # xmm3 = mem[0],zero,zero,zero
	subss	%xmm1, %xmm3
	movss	-240(%rbp), %xmm4       # 4-byte Reload
                                        # xmm4 = mem[0],zero,zero,zero
	mulss	%xmm4, %xmm3
	cvtss2sd	%xmm3, %xmm3
	movss	.LCPI3_4(%rip), %xmm5   # xmm5 = mem[0],zero,zero,zero
	movss	-420(%rbp), %xmm6       # 4-byte Reload
                                        # xmm6 = mem[0],zero,zero,zero
	mulss	%xmm5, %xmm6
	cvttss2si	%xmm6, %rax
	movl	%eax, %ecx
	addl	$1342, %ecx             # imm = 0x53E
	movsd	.LCPI3_5(%rip), %xmm5   # xmm5 = mem[0],zero
	mulsd	%xmm5, %xmm3
	cvttsd2si	%xmm3, %rax
	movl	%eax, %edx
	movl	%edx, %edx
	movl	%edx, %eax
	shlq	$27, %rax
	movl	%ecx, %esi
	xorl	%ecx, %ecx
	movl	%ecx, %edx
	divq	%rsi
	movl	%eax, %ecx
	mulsd	%xmm5, %xmm2
	cvttsd2si	%xmm2, %rax
	movl	%eax, %edi
	addl	%ecx, %edi
	movl	%edi, %eax
	cvtsi2ssq	%rax, %xmm2
	divss	%xmm0, %xmm2
	movss	%xmm2, -80(%rbp)
	jmp	.LBB3_80
.LBB3_79:
	xorl	%eax, %eax
	movb	%al, %cl
	movss	.LCPI3_2(%rip), %xmm0   # xmm0 = mem[0],zero,zero,zero
	movsd	.LCPI3_3(%rip), %xmm1   # xmm1 = mem[0],zero
	movss	-296(%rbp), %xmm2       # 4-byte Reload
                                        # xmm2 = mem[0],zero,zero,zero
	cvtss2sd	%xmm2, %xmm3
	movss	-300(%rbp), %xmm4       # 4-byte Reload
                                        # xmm4 = mem[0],zero,zero,zero
	subss	%xmm2, %xmm4
	movss	-240(%rbp), %xmm5       # 4-byte Reload
                                        # xmm5 = mem[0],zero,zero,zero
	mulss	%xmm5, %xmm4
	cvtss2sd	%xmm4, %xmm4
	movaps	%xmm0, %xmm6
	movss	-420(%rbp), %xmm7       # 4-byte Reload
                                        # xmm7 = mem[0],zero,zero,zero
	mulss	%xmm7, %xmm6
	cvttss2si	%xmm6, %eax
	addl	$671, %eax              # imm = 0x29F
	movaps	%xmm1, %xmm6
	mulsd	%xmm4, %xmm6
	cvttsd2si	%xmm6, %edx
	movslq	%edx, %rsi
	shlq	$26, %rsi
	movslq	%eax, %rdi
	movq	%rsi, %rax
	cqto
	idivq	%rdi
	movl	%eax, %r8d
	mulsd	%xmm3, %xmm1
	cvttsd2si	%xmm1, %r9d
	addl	%r8d, %r9d
	cvtsi2ssl	%r9d, %xmm1
	divss	%xmm0, %xmm1
	movss	%xmm1, -80(%rbp)
	movb	%cl, -423(%rbp)         # 1-byte Spill
	jmp	.LBB3_77
.LBB3_80:
	movb	$1, %al
	movb	%al, -422(%rbp)         # 1-byte Spill
	jmp	.LBB3_75
.LBB3_81:                               # %Flow41
	movb	-386(%rbp), %al         # 1-byte Reload
	movb	-385(%rbp), %cl         # 1-byte Reload
	movl	-384(%rbp), %edx        # 4-byte Reload
	movl	%edx, -376(%rbp)        # 4-byte Spill
	movb	%cl, -377(%rbp)         # 1-byte Spill
	movb	%al, -378(%rbp)         # 1-byte Spill
	jmp	.LBB3_69
.LBB3_82:
	xorps	%xmm0, %xmm0
	movss	-248(%rbp), %xmm1       # 4-byte Reload
                                        # xmm1 = mem[0],zero,zero,zero
	ucomiss	%xmm0, %xmm1
	setne	%al
	setp	%cl
	orb	%cl, %al
	xorb	$-1, %al
	testb	$1, %al
	movb	$1, %al
                                        # implicit-def: $edx
	movl	%edx, -428(%rbp)        # 4-byte Spill
	movb	%al, -429(%rbp)         # 1-byte Spill
	jne	.LBB3_95
.LBB3_83:                               # %Flow43
	movb	-429(%rbp), %al         # 1-byte Reload
	movl	-428(%rbp), %ecx        # 4-byte Reload
	xorl	%edx, %edx
	movb	%dl, %sil
	testb	$1, %al
	movl	%ecx, -436(%rbp)        # 4-byte Spill
	movb	%sil, -437(%rbp)        # 1-byte Spill
	jne	.LBB3_84
	jmp	.LBB3_88
.LBB3_84:
	movss	-248(%rbp), %xmm0       # 4-byte Reload
                                        # xmm0 = mem[0],zero,zero,zero
	movss	-232(%rbp), %xmm1       # 4-byte Reload
                                        # xmm1 = mem[0],zero,zero,zero
	subss	%xmm1, %xmm0
	movss	-248(%rbp), %xmm2       # 4-byte Reload
                                        # xmm2 = mem[0],zero,zero,zero
	movss	-240(%rbp), %xmm3       # 4-byte Reload
                                        # xmm3 = mem[0],zero,zero,zero
	subss	%xmm3, %xmm2
	xorps	%xmm4, %xmm4
	ucomiss	%xmm4, %xmm0
	setae	%al
	xorb	$-1, %al
	testb	$1, %al
	movb	$1, %al
	movss	%xmm0, -444(%rbp)       # 4-byte Spill
	movss	%xmm2, -448(%rbp)       # 4-byte Spill
	movb	%al, -449(%rbp)         # 1-byte Spill
	jne	.LBB3_87
.LBB3_85:                               # %Flow1
	movb	-449(%rbp), %al         # 1-byte Reload
	testb	$1, %al
	jne	.LBB3_86
	jmp	.LBB3_89
.LBB3_86:
	movss	.LCPI3_4(%rip), %xmm0   # xmm0 = mem[0],zero,zero,zero
	movss	-300(%rbp), %xmm1       # 4-byte Reload
                                        # xmm1 = mem[0],zero,zero,zero
	cvtss2sd	%xmm1, %xmm2
	movss	-292(%rbp), %xmm3       # 4-byte Reload
                                        # xmm3 = mem[0],zero,zero,zero
	subss	%xmm1, %xmm3
	movss	-248(%rbp), %xmm4       # 4-byte Reload
                                        # xmm4 = mem[0],zero,zero,zero
	mulss	%xmm4, %xmm3
	cvtss2sd	%xmm3, %xmm3
	movss	.LCPI3_4(%rip), %xmm5   # xmm5 = mem[0],zero,zero,zero
	movss	-444(%rbp), %xmm6       # 4-byte Reload
                                        # xmm6 = mem[0],zero,zero,zero
	mulss	%xmm5, %xmm6
	cvttss2si	%xmm6, %rax
	movl	%eax, %ecx
	addl	$1342, %ecx             # imm = 0x53E
	movsd	.LCPI3_5(%rip), %xmm5   # xmm5 = mem[0],zero
	mulsd	%xmm5, %xmm3
	cvttsd2si	%xmm3, %rax
	movl	%eax, %edx
	movl	%edx, %edx
	movl	%edx, %eax
	shlq	$27, %rax
	movl	%ecx, %esi
	xorl	%ecx, %ecx
	movl	%ecx, %edx
	divq	%rsi
	movl	%eax, %ecx
	mulsd	%xmm5, %xmm2
	cvttsd2si	%xmm2, %rax
	movl	%eax, %edi
	addl	%ecx, %edi
	movl	%edi, %eax
	cvtsi2ssq	%rax, %xmm2
	divss	%xmm0, %xmm2
	movss	%xmm2, -84(%rbp)
	jmp	.LBB3_89
.LBB3_87:
	xorl	%eax, %eax
	movb	%al, %cl
	movss	.LCPI3_2(%rip), %xmm0   # xmm0 = mem[0],zero,zero,zero
	movsd	.LCPI3_3(%rip), %xmm1   # xmm1 = mem[0],zero
	movss	-300(%rbp), %xmm2       # 4-byte Reload
                                        # xmm2 = mem[0],zero,zero,zero
	cvtss2sd	%xmm2, %xmm3
	movss	-292(%rbp), %xmm4       # 4-byte Reload
                                        # xmm4 = mem[0],zero,zero,zero
	subss	%xmm2, %xmm4
	movss	-248(%rbp), %xmm5       # 4-byte Reload
                                        # xmm5 = mem[0],zero,zero,zero
	mulss	%xmm5, %xmm4
	cvtss2sd	%xmm4, %xmm4
	movaps	%xmm0, %xmm6
	movss	-444(%rbp), %xmm7       # 4-byte Reload
                                        # xmm7 = mem[0],zero,zero,zero
	mulss	%xmm7, %xmm6
	cvttss2si	%xmm6, %eax
	addl	$671, %eax              # imm = 0x29F
	movaps	%xmm1, %xmm6
	mulsd	%xmm4, %xmm6
	cvttsd2si	%xmm6, %edx
	movslq	%edx, %rsi
	shlq	$26, %rsi
	movslq	%eax, %rdi
	movq	%rsi, %rax
	cqto
	idivq	%rdi
	movl	%eax, %r8d
	mulsd	%xmm3, %xmm1
	cvttsd2si	%xmm1, %r9d
	addl	%r8d, %r9d
	cvtsi2ssl	%r9d, %xmm1
	divss	%xmm0, %xmm1
	movss	%xmm1, -84(%rbp)
	movb	%cl, -449(%rbp)         # 1-byte Spill
	jmp	.LBB3_85
.LBB3_88:                               # %Flow44
	movb	-437(%rbp), %al         # 1-byte Reload
	xorl	%ecx, %ecx
	movb	%cl, %dl
	movl	-436(%rbp), %ecx        # 4-byte Reload
	movl	%ecx, -408(%rbp)        # 4-byte Spill
	movb	%al, -409(%rbp)         # 1-byte Spill
	movb	%dl, -410(%rbp)         # 1-byte Spill
	jmp	.LBB3_94
.LBB3_89:
	xorps	%xmm0, %xmm0
	movss	-448(%rbp), %xmm1       # 4-byte Reload
                                        # xmm1 = mem[0],zero,zero,zero
	ucomiss	%xmm0, %xmm1
	setae	%al
	xorb	$-1, %al
	testb	$1, %al
	movb	$1, %al
	movb	%al, -450(%rbp)         # 1-byte Spill
	jne	.LBB3_92
.LBB3_90:                               # %Flow
	movb	-450(%rbp), %al         # 1-byte Reload
	testb	$1, %al
	jne	.LBB3_91
	jmp	.LBB3_93
.LBB3_91:
	movss	.LCPI3_4(%rip), %xmm0   # xmm0 = mem[0],zero,zero,zero
	movss	-300(%rbp), %xmm1       # 4-byte Reload
                                        # xmm1 = mem[0],zero,zero,zero
	cvtss2sd	%xmm1, %xmm2
	movss	-296(%rbp), %xmm3       # 4-byte Reload
                                        # xmm3 = mem[0],zero,zero,zero
	subss	%xmm1, %xmm3
	movss	-248(%rbp), %xmm4       # 4-byte Reload
                                        # xmm4 = mem[0],zero,zero,zero
	mulss	%xmm4, %xmm3
	cvtss2sd	%xmm3, %xmm3
	movss	.LCPI3_4(%rip), %xmm5   # xmm5 = mem[0],zero,zero,zero
	movss	-448(%rbp), %xmm6       # 4-byte Reload
                                        # xmm6 = mem[0],zero,zero,zero
	mulss	%xmm5, %xmm6
	cvttss2si	%xmm6, %rax
	movl	%eax, %ecx
	addl	$1342, %ecx             # imm = 0x53E
	movsd	.LCPI3_5(%rip), %xmm5   # xmm5 = mem[0],zero
	mulsd	%xmm5, %xmm3
	cvttsd2si	%xmm3, %rax
	movl	%eax, %edx
	movl	%edx, %edx
	movl	%edx, %eax
	shlq	$27, %rax
	movl	%ecx, %esi
	xorl	%ecx, %ecx
	movl	%ecx, %edx
	divq	%rsi
	movl	%eax, %ecx
	mulsd	%xmm5, %xmm2
	cvttsd2si	%xmm2, %rax
	movl	%eax, %edi
	addl	%ecx, %edi
	movl	%edi, %eax
	cvtsi2ssq	%rax, %xmm2
	divss	%xmm0, %xmm2
	movss	%xmm2, -80(%rbp)
	jmp	.LBB3_93
.LBB3_92:
	xorl	%eax, %eax
	movb	%al, %cl
	movss	.LCPI3_2(%rip), %xmm0   # xmm0 = mem[0],zero,zero,zero
	movsd	.LCPI3_3(%rip), %xmm1   # xmm1 = mem[0],zero
	movss	-300(%rbp), %xmm2       # 4-byte Reload
                                        # xmm2 = mem[0],zero,zero,zero
	cvtss2sd	%xmm2, %xmm3
	movss	-296(%rbp), %xmm4       # 4-byte Reload
                                        # xmm4 = mem[0],zero,zero,zero
	subss	%xmm2, %xmm4
	movss	-248(%rbp), %xmm5       # 4-byte Reload
                                        # xmm5 = mem[0],zero,zero,zero
	mulss	%xmm5, %xmm4
	cvtss2sd	%xmm4, %xmm4
	movaps	%xmm0, %xmm6
	movss	-448(%rbp), %xmm7       # 4-byte Reload
                                        # xmm7 = mem[0],zero,zero,zero
	mulss	%xmm7, %xmm6
	cvttss2si	%xmm6, %eax
	addl	$671, %eax              # imm = 0x29F
	movaps	%xmm1, %xmm6
	mulsd	%xmm4, %xmm6
	cvttsd2si	%xmm6, %edx
	movslq	%edx, %rsi
	shlq	$26, %rsi
	movslq	%eax, %rdi
	movq	%rsi, %rax
	cqto
	idivq	%rdi
	movl	%eax, %r8d
	mulsd	%xmm3, %xmm1
	cvttsd2si	%xmm1, %r9d
	addl	%r8d, %r9d
	cvtsi2ssl	%r9d, %xmm1
	divss	%xmm0, %xmm1
	movss	%xmm1, -80(%rbp)
	movb	%cl, -450(%rbp)         # 1-byte Spill
	jmp	.LBB3_90
.LBB3_93:
	jmp	.LBB3_96
.LBB3_94:                               # %Flow42
	movb	-410(%rbp), %al         # 1-byte Reload
	movb	-409(%rbp), %cl         # 1-byte Reload
	movl	-408(%rbp), %edx        # 4-byte Reload
	testb	$1, %al
	movl	%edx, -392(%rbp)        # 4-byte Spill
	movb	%cl, -422(%rbp)         # 1-byte Spill
	jne	.LBB3_71
	jmp	.LBB3_75
.LBB3_95:
	leaq	-52(%rbp), %rdi
	movq	-160(%rbp), %rsi        # 8-byte Reload
	movq	-152(%rbp), %rdx        # 8-byte Reload
	movq	-144(%rbp), %rcx        # 8-byte Reload
	movq	-136(%rbp), %r8         # 8-byte Reload
	movq	-128(%rbp), %r9         # 8-byte Reload
	movq	-120(%rbp), %rax        # 8-byte Reload
	movq	%rax, (%rsp)
	callq	_Z16coplanar_tri_triPfS_S_S_S_S_S_.1
	xorl	%r10d, %r10d
	movb	%r10b, %r11b
	movl	%eax, -428(%rbp)        # 4-byte Spill
	movb	%r11b, -429(%rbp)       # 1-byte Spill
	jmp	.LBB3_83
.LBB3_96:
	movb	$1, %al
	movb	%al, -437(%rbp)         # 1-byte Spill
	jmp	.LBB3_88
.LBB3_97:
	movb	$1, %al
	movb	%al, -387(%rbp)         # 1-byte Spill
	jmp	.LBB3_58
.LBB3_98:
	movb	$1, %al
	movb	%al, -355(%rbp)         # 1-byte Spill
	jmp	.LBB3_43
.LBB3_99:
	movb	$1, %al
	movb	%al, -319(%rbp)         # 1-byte Spill
	jmp	.LBB3_31
.LBB3_100:
	xorl	%eax, %eax
	movb	%al, %cl
	movq	-104(%rbp), %rdx        # 8-byte Reload
	movl	$3, (%rdx)
	xorps	%xmm0, %xmm0
	movss	-196(%rbp), %xmm1       # 4-byte Reload
                                        # xmm1 = mem[0],zero,zero,zero
	ucomiss	%xmm0, %xmm1
	seta	%sil
	xorb	$-1, %sil
	testb	$1, %sil
	movb	$1, %sil
                                        # implicit-def: $eax
	movl	%eax, -456(%rbp)        # 4-byte Spill
	movb	%cl, -457(%rbp)         # 1-byte Spill
	movb	%sil, -458(%rbp)        # 1-byte Spill
	jne	.LBB3_112
	jmp	.LBB3_124
.LBB3_101:                              # %Flow33
	movb	-459(%rbp), %al         # 1-byte Reload
	xorl	%ecx, %ecx
	movb	%cl, %dl
	movl	-464(%rbp), %ecx        # 4-byte Reload
	movl	%ecx, -456(%rbp)        # 4-byte Spill
	movb	%al, -457(%rbp)         # 1-byte Spill
	movb	%dl, -458(%rbp)         # 1-byte Spill
	jmp	.LBB3_124
.LBB3_102:
	movss	-192(%rbp), %xmm0       # 4-byte Reload
                                        # xmm0 = mem[0],zero,zero,zero
	movss	-176(%rbp), %xmm1       # 4-byte Reload
                                        # xmm1 = mem[0],zero,zero,zero
	subss	%xmm1, %xmm0
	movss	-192(%rbp), %xmm2       # 4-byte Reload
                                        # xmm2 = mem[0],zero,zero,zero
	movss	-184(%rbp), %xmm3       # 4-byte Reload
                                        # xmm3 = mem[0],zero,zero,zero
	subss	%xmm3, %xmm2
	xorps	%xmm4, %xmm4
	ucomiss	%xmm4, %xmm0
	setae	%al
	xorb	$-1, %al
	testb	$1, %al
	movb	$1, %al
	movss	%xmm0, -468(%rbp)       # 4-byte Spill
	movss	%xmm2, -472(%rbp)       # 4-byte Spill
	movb	%al, -473(%rbp)         # 1-byte Spill
	jne	.LBB3_105
.LBB3_103:                              # %Flow20
	movb	-473(%rbp), %al         # 1-byte Reload
	testb	$1, %al
	jne	.LBB3_104
	jmp	.LBB3_107
.LBB3_104:
	movss	.LCPI3_4(%rip), %xmm0   # xmm0 = mem[0],zero,zero,zero
	movss	-312(%rbp), %xmm1       # 4-byte Reload
                                        # xmm1 = mem[0],zero,zero,zero
	cvtss2sd	%xmm1, %xmm2
	movss	-304(%rbp), %xmm3       # 4-byte Reload
                                        # xmm3 = mem[0],zero,zero,zero
	subss	%xmm1, %xmm3
	movss	-192(%rbp), %xmm4       # 4-byte Reload
                                        # xmm4 = mem[0],zero,zero,zero
	mulss	%xmm4, %xmm3
	cvtss2sd	%xmm3, %xmm3
	movss	.LCPI3_4(%rip), %xmm5   # xmm5 = mem[0],zero,zero,zero
	movss	-468(%rbp), %xmm6       # 4-byte Reload
                                        # xmm6 = mem[0],zero,zero,zero
	mulss	%xmm5, %xmm6
	cvttss2si	%xmm6, %rax
	movl	%eax, %ecx
	addl	$1342, %ecx             # imm = 0x53E
	movsd	.LCPI3_5(%rip), %xmm5   # xmm5 = mem[0],zero
	mulsd	%xmm5, %xmm3
	cvttsd2si	%xmm3, %rax
	movl	%eax, %edx
	movl	%edx, %edx
	movl	%edx, %eax
	shlq	$27, %rax
	movl	%ecx, %esi
	xorl	%ecx, %ecx
	movl	%ecx, %edx
	divq	%rsi
	movl	%eax, %ecx
	mulsd	%xmm5, %xmm2
	cvttsd2si	%xmm2, %rax
	movl	%eax, %edi
	addl	%ecx, %edi
	movl	%edi, %eax
	cvtsi2ssq	%rax, %xmm2
	divss	%xmm0, %xmm2
	movss	%xmm2, -92(%rbp)
	jmp	.LBB3_107
.LBB3_105:
	xorl	%eax, %eax
	movb	%al, %cl
	movss	.LCPI3_2(%rip), %xmm0   # xmm0 = mem[0],zero,zero,zero
	movsd	.LCPI3_3(%rip), %xmm1   # xmm1 = mem[0],zero
	movss	-312(%rbp), %xmm2       # 4-byte Reload
                                        # xmm2 = mem[0],zero,zero,zero
	cvtss2sd	%xmm2, %xmm3
	movss	-304(%rbp), %xmm4       # 4-byte Reload
                                        # xmm4 = mem[0],zero,zero,zero
	subss	%xmm2, %xmm4
	movss	-192(%rbp), %xmm5       # 4-byte Reload
                                        # xmm5 = mem[0],zero,zero,zero
	mulss	%xmm5, %xmm4
	cvtss2sd	%xmm4, %xmm4
	movaps	%xmm0, %xmm6
	movss	-468(%rbp), %xmm7       # 4-byte Reload
                                        # xmm7 = mem[0],zero,zero,zero
	mulss	%xmm7, %xmm6
	cvttss2si	%xmm6, %eax
	addl	$671, %eax              # imm = 0x29F
	movaps	%xmm1, %xmm6
	mulsd	%xmm4, %xmm6
	cvttsd2si	%xmm6, %edx
	movslq	%edx, %rsi
	shlq	$26, %rsi
	movslq	%eax, %rdi
	movq	%rsi, %rax
	cqto
	idivq	%rdi
	movl	%eax, %r8d
	mulsd	%xmm3, %xmm1
	cvttsd2si	%xmm1, %r9d
	addl	%r8d, %r9d
	cvtsi2ssl	%r9d, %xmm1
	divss	%xmm0, %xmm1
	movss	%xmm1, -92(%rbp)
	movb	%cl, -473(%rbp)         # 1-byte Spill
	jmp	.LBB3_103
.LBB3_106:                              # %Flow34
	movb	-474(%rbp), %al         # 1-byte Reload
	testb	$1, %al
	movl	-480(%rbp), %ecx        # 4-byte Reload
	movl	%ecx, -484(%rbp)        # 4-byte Spill
	jne	.LBB3_170
	jmp	.LBB3_172
.LBB3_107:
	xorps	%xmm0, %xmm0
	movss	-472(%rbp), %xmm1       # 4-byte Reload
                                        # xmm1 = mem[0],zero,zero,zero
	ucomiss	%xmm0, %xmm1
	setae	%al
	xorb	$-1, %al
	testb	$1, %al
	movb	$1, %al
	movb	%al, -485(%rbp)         # 1-byte Spill
	jne	.LBB3_110
.LBB3_108:                              # %Flow19
	movb	-485(%rbp), %al         # 1-byte Reload
	testb	$1, %al
	jne	.LBB3_109
	jmp	.LBB3_111
.LBB3_109:
	movss	.LCPI3_4(%rip), %xmm0   # xmm0 = mem[0],zero,zero,zero
	movss	-312(%rbp), %xmm1       # 4-byte Reload
                                        # xmm1 = mem[0],zero,zero,zero
	cvtss2sd	%xmm1, %xmm2
	movss	-308(%rbp), %xmm3       # 4-byte Reload
                                        # xmm3 = mem[0],zero,zero,zero
	subss	%xmm1, %xmm3
	movss	-192(%rbp), %xmm4       # 4-byte Reload
                                        # xmm4 = mem[0],zero,zero,zero
	mulss	%xmm4, %xmm3
	cvtss2sd	%xmm3, %xmm3
	movss	.LCPI3_4(%rip), %xmm5   # xmm5 = mem[0],zero,zero,zero
	movss	-472(%rbp), %xmm6       # 4-byte Reload
                                        # xmm6 = mem[0],zero,zero,zero
	mulss	%xmm5, %xmm6
	cvttss2si	%xmm6, %rax
	movl	%eax, %ecx
	addl	$1342, %ecx             # imm = 0x53E
	movsd	.LCPI3_5(%rip), %xmm5   # xmm5 = mem[0],zero
	mulsd	%xmm5, %xmm3
	cvttsd2si	%xmm3, %rax
	movl	%eax, %edx
	movl	%edx, %edx
	movl	%edx, %eax
	shlq	$27, %rax
	movl	%ecx, %esi
	xorl	%ecx, %ecx
	movl	%ecx, %edx
	divq	%rsi
	movl	%eax, %ecx
	mulsd	%xmm5, %xmm2
	cvttsd2si	%xmm2, %rax
	movl	%eax, %edi
	addl	%ecx, %edi
	movl	%edi, %eax
	cvtsi2ssq	%rax, %xmm2
	divss	%xmm0, %xmm2
	movss	%xmm2, -88(%rbp)
	jmp	.LBB3_111
.LBB3_110:
	xorl	%eax, %eax
	movb	%al, %cl
	movss	.LCPI3_2(%rip), %xmm0   # xmm0 = mem[0],zero,zero,zero
	movsd	.LCPI3_3(%rip), %xmm1   # xmm1 = mem[0],zero
	movss	-312(%rbp), %xmm2       # 4-byte Reload
                                        # xmm2 = mem[0],zero,zero,zero
	cvtss2sd	%xmm2, %xmm3
	movss	-308(%rbp), %xmm4       # 4-byte Reload
                                        # xmm4 = mem[0],zero,zero,zero
	subss	%xmm2, %xmm4
	movss	-192(%rbp), %xmm5       # 4-byte Reload
                                        # xmm5 = mem[0],zero,zero,zero
	mulss	%xmm5, %xmm4
	cvtss2sd	%xmm4, %xmm4
	movaps	%xmm0, %xmm6
	movss	-472(%rbp), %xmm7       # 4-byte Reload
                                        # xmm7 = mem[0],zero,zero,zero
	mulss	%xmm7, %xmm6
	cvttss2si	%xmm6, %eax
	addl	$671, %eax              # imm = 0x29F
	movaps	%xmm1, %xmm6
	mulsd	%xmm4, %xmm6
	cvttsd2si	%xmm6, %edx
	movslq	%edx, %rsi
	shlq	$26, %rsi
	movslq	%eax, %rdi
	movq	%rsi, %rax
	cqto
	idivq	%rdi
	movl	%eax, %r8d
	mulsd	%xmm3, %xmm1
	cvttsd2si	%xmm1, %r9d
	addl	%r8d, %r9d
	cvtsi2ssl	%r9d, %xmm1
	divss	%xmm0, %xmm1
	movss	%xmm1, -88(%rbp)
	movb	%cl, -485(%rbp)         # 1-byte Spill
	jmp	.LBB3_108
.LBB3_111:
	movb	$1, %al
	movb	%al, -474(%rbp)         # 1-byte Spill
	jmp	.LBB3_106
.LBB3_112:
	xorl	%eax, %eax
	movb	%al, %cl
	xorps	%xmm0, %xmm0
	movss	-200(%rbp), %xmm1       # 4-byte Reload
                                        # xmm1 = mem[0],zero,zero,zero
	ucomiss	%xmm0, %xmm1
	seta	%dl
	xorb	$-1, %dl
	testb	$1, %dl
	movb	$1, %dl
                                        # implicit-def: $eax
	movl	%eax, -492(%rbp)        # 4-byte Spill
	movb	%cl, -493(%rbp)         # 1-byte Spill
	movb	%dl, -494(%rbp)         # 1-byte Spill
	jne	.LBB3_125
	jmp	.LBB3_126
.LBB3_113:                              # %Flow31
	movb	-495(%rbp), %al         # 1-byte Reload
	xorl	%ecx, %ecx
	movb	%cl, %dl
	movl	-500(%rbp), %ecx        # 4-byte Reload
	movl	%ecx, -492(%rbp)        # 4-byte Spill
	movb	%al, -493(%rbp)         # 1-byte Spill
	movb	%dl, -494(%rbp)         # 1-byte Spill
	jmp	.LBB3_126
.LBB3_114:
	movss	-184(%rbp), %xmm0       # 4-byte Reload
                                        # xmm0 = mem[0],zero,zero,zero
	movss	-176(%rbp), %xmm1       # 4-byte Reload
                                        # xmm1 = mem[0],zero,zero,zero
	subss	%xmm1, %xmm0
	movss	-184(%rbp), %xmm2       # 4-byte Reload
                                        # xmm2 = mem[0],zero,zero,zero
	movss	-192(%rbp), %xmm3       # 4-byte Reload
                                        # xmm3 = mem[0],zero,zero,zero
	subss	%xmm3, %xmm2
	xorps	%xmm4, %xmm4
	ucomiss	%xmm4, %xmm0
	setae	%al
	xorb	$-1, %al
	testb	$1, %al
	movb	$1, %al
	movss	%xmm0, -504(%rbp)       # 4-byte Spill
	movss	%xmm2, -508(%rbp)       # 4-byte Spill
	movb	%al, -509(%rbp)         # 1-byte Spill
	jne	.LBB3_117
.LBB3_115:                              # %Flow15
	movb	-509(%rbp), %al         # 1-byte Reload
	testb	$1, %al
	jne	.LBB3_116
	jmp	.LBB3_119
.LBB3_116:
	movss	.LCPI3_4(%rip), %xmm0   # xmm0 = mem[0],zero,zero,zero
	movss	-308(%rbp), %xmm1       # 4-byte Reload
                                        # xmm1 = mem[0],zero,zero,zero
	cvtss2sd	%xmm1, %xmm2
	movss	-304(%rbp), %xmm3       # 4-byte Reload
                                        # xmm3 = mem[0],zero,zero,zero
	subss	%xmm1, %xmm3
	movss	-184(%rbp), %xmm4       # 4-byte Reload
                                        # xmm4 = mem[0],zero,zero,zero
	mulss	%xmm4, %xmm3
	cvtss2sd	%xmm3, %xmm3
	movss	.LCPI3_4(%rip), %xmm5   # xmm5 = mem[0],zero,zero,zero
	movss	-504(%rbp), %xmm6       # 4-byte Reload
                                        # xmm6 = mem[0],zero,zero,zero
	mulss	%xmm5, %xmm6
	cvttss2si	%xmm6, %rax
	movl	%eax, %ecx
	addl	$1342, %ecx             # imm = 0x53E
	movsd	.LCPI3_5(%rip), %xmm5   # xmm5 = mem[0],zero
	mulsd	%xmm5, %xmm3
	cvttsd2si	%xmm3, %rax
	movl	%eax, %edx
	movl	%edx, %edx
	movl	%edx, %eax
	shlq	$27, %rax
	movl	%ecx, %esi
	xorl	%ecx, %ecx
	movl	%ecx, %edx
	divq	%rsi
	movl	%eax, %ecx
	mulsd	%xmm5, %xmm2
	cvttsd2si	%xmm2, %rax
	movl	%eax, %edi
	addl	%ecx, %edi
	movl	%edi, %eax
	cvtsi2ssq	%rax, %xmm2
	divss	%xmm0, %xmm2
	movss	%xmm2, -92(%rbp)
	jmp	.LBB3_119
.LBB3_117:
	xorl	%eax, %eax
	movb	%al, %cl
	movss	.LCPI3_2(%rip), %xmm0   # xmm0 = mem[0],zero,zero,zero
	movsd	.LCPI3_3(%rip), %xmm1   # xmm1 = mem[0],zero
	movss	-308(%rbp), %xmm2       # 4-byte Reload
                                        # xmm2 = mem[0],zero,zero,zero
	cvtss2sd	%xmm2, %xmm3
	movss	-304(%rbp), %xmm4       # 4-byte Reload
                                        # xmm4 = mem[0],zero,zero,zero
	subss	%xmm2, %xmm4
	movss	-184(%rbp), %xmm5       # 4-byte Reload
                                        # xmm5 = mem[0],zero,zero,zero
	mulss	%xmm5, %xmm4
	cvtss2sd	%xmm4, %xmm4
	movaps	%xmm0, %xmm6
	movss	-504(%rbp), %xmm7       # 4-byte Reload
                                        # xmm7 = mem[0],zero,zero,zero
	mulss	%xmm7, %xmm6
	cvttss2si	%xmm6, %eax
	addl	$671, %eax              # imm = 0x29F
	movaps	%xmm1, %xmm6
	mulsd	%xmm4, %xmm6
	cvttsd2si	%xmm6, %edx
	movslq	%edx, %rsi
	shlq	$26, %rsi
	movslq	%eax, %rdi
	movq	%rsi, %rax
	cqto
	idivq	%rdi
	movl	%eax, %r8d
	mulsd	%xmm3, %xmm1
	cvttsd2si	%xmm1, %r9d
	addl	%r8d, %r9d
	cvtsi2ssl	%r9d, %xmm1
	divss	%xmm0, %xmm1
	movss	%xmm1, -92(%rbp)
	movb	%cl, -509(%rbp)         # 1-byte Spill
	jmp	.LBB3_115
.LBB3_118:                              # %Flow32
	movb	-510(%rbp), %al         # 1-byte Reload
	xorl	%ecx, %ecx
	movb	%cl, %dl
	testb	$1, %al
	movb	%dl, -459(%rbp)         # 1-byte Spill
	jne	.LBB3_169
	jmp	.LBB3_101
.LBB3_119:
	xorps	%xmm0, %xmm0
	movss	-508(%rbp), %xmm1       # 4-byte Reload
                                        # xmm1 = mem[0],zero,zero,zero
	ucomiss	%xmm0, %xmm1
	setae	%al
	xorb	$-1, %al
	testb	$1, %al
	movb	$1, %al
	movb	%al, -511(%rbp)         # 1-byte Spill
	jne	.LBB3_122
.LBB3_120:                              # %Flow14
	movb	-511(%rbp), %al         # 1-byte Reload
	testb	$1, %al
	jne	.LBB3_121
	jmp	.LBB3_123
.LBB3_121:
	movss	.LCPI3_4(%rip), %xmm0   # xmm0 = mem[0],zero,zero,zero
	movss	-308(%rbp), %xmm1       # 4-byte Reload
                                        # xmm1 = mem[0],zero,zero,zero
	cvtss2sd	%xmm1, %xmm2
	movss	-312(%rbp), %xmm3       # 4-byte Reload
                                        # xmm3 = mem[0],zero,zero,zero
	subss	%xmm1, %xmm3
	movss	-184(%rbp), %xmm4       # 4-byte Reload
                                        # xmm4 = mem[0],zero,zero,zero
	mulss	%xmm4, %xmm3
	cvtss2sd	%xmm3, %xmm3
	movss	.LCPI3_4(%rip), %xmm5   # xmm5 = mem[0],zero,zero,zero
	movss	-508(%rbp), %xmm6       # 4-byte Reload
                                        # xmm6 = mem[0],zero,zero,zero
	mulss	%xmm5, %xmm6
	cvttss2si	%xmm6, %rax
	movl	%eax, %ecx
	addl	$1342, %ecx             # imm = 0x53E
	movsd	.LCPI3_5(%rip), %xmm5   # xmm5 = mem[0],zero
	mulsd	%xmm5, %xmm3
	cvttsd2si	%xmm3, %rax
	movl	%eax, %edx
	movl	%edx, %edx
	movl	%edx, %eax
	shlq	$27, %rax
	movl	%ecx, %esi
	xorl	%ecx, %ecx
	movl	%ecx, %edx
	divq	%rsi
	movl	%eax, %ecx
	mulsd	%xmm5, %xmm2
	cvttsd2si	%xmm2, %rax
	movl	%eax, %edi
	addl	%ecx, %edi
	movl	%edi, %eax
	cvtsi2ssq	%rax, %xmm2
	divss	%xmm0, %xmm2
	movss	%xmm2, -88(%rbp)
	jmp	.LBB3_123
.LBB3_122:
	xorl	%eax, %eax
	movb	%al, %cl
	movss	.LCPI3_2(%rip), %xmm0   # xmm0 = mem[0],zero,zero,zero
	movsd	.LCPI3_3(%rip), %xmm1   # xmm1 = mem[0],zero
	movss	-308(%rbp), %xmm2       # 4-byte Reload
                                        # xmm2 = mem[0],zero,zero,zero
	cvtss2sd	%xmm2, %xmm3
	movss	-312(%rbp), %xmm4       # 4-byte Reload
                                        # xmm4 = mem[0],zero,zero,zero
	subss	%xmm2, %xmm4
	movss	-184(%rbp), %xmm5       # 4-byte Reload
                                        # xmm5 = mem[0],zero,zero,zero
	mulss	%xmm5, %xmm4
	cvtss2sd	%xmm4, %xmm4
	movaps	%xmm0, %xmm6
	movss	-508(%rbp), %xmm7       # 4-byte Reload
                                        # xmm7 = mem[0],zero,zero,zero
	mulss	%xmm7, %xmm6
	cvttss2si	%xmm6, %eax
	addl	$671, %eax              # imm = 0x29F
	movaps	%xmm1, %xmm6
	mulsd	%xmm4, %xmm6
	cvttsd2si	%xmm6, %edx
	movslq	%edx, %rsi
	shlq	$26, %rsi
	movslq	%eax, %rdi
	movq	%rsi, %rax
	cqto
	idivq	%rdi
	movl	%eax, %r8d
	mulsd	%xmm3, %xmm1
	cvttsd2si	%xmm1, %r9d
	addl	%r8d, %r9d
	cvtsi2ssl	%r9d, %xmm1
	divss	%xmm0, %xmm1
	movss	%xmm1, -88(%rbp)
	movb	%cl, -511(%rbp)         # 1-byte Spill
	jmp	.LBB3_120
.LBB3_123:
	movb	$1, %al
	movb	%al, -510(%rbp)         # 1-byte Spill
	jmp	.LBB3_118
.LBB3_124:                              # %Flow21
	movb	-458(%rbp), %al         # 1-byte Reload
	movb	-457(%rbp), %cl         # 1-byte Reload
	movl	-456(%rbp), %edx        # 4-byte Reload
	testb	$1, %al
	movl	%edx, -480(%rbp)        # 4-byte Spill
	movb	%cl, -474(%rbp)         # 1-byte Spill
	jne	.LBB3_102
	jmp	.LBB3_106
.LBB3_125:
	xorl	%eax, %eax
	movb	%al, %cl
	movss	-184(%rbp), %xmm0       # 4-byte Reload
                                        # xmm0 = mem[0],zero,zero,zero
	movss	-192(%rbp), %xmm1       # 4-byte Reload
                                        # xmm1 = mem[0],zero,zero,zero
	mulss	%xmm1, %xmm0
	xorps	%xmm2, %xmm2
	ucomiss	%xmm2, %xmm0
	seta	%dl
	movb	%dl, %sil
	xorb	$-1, %sil
	testb	$1, %sil
                                        # implicit-def: $eax
	movl	%eax, -516(%rbp)        # 4-byte Spill
	movb	%cl, -517(%rbp)         # 1-byte Spill
	movb	%dl, -518(%rbp)         # 1-byte Spill
	jne	.LBB3_127
	jmp	.LBB3_139
.LBB3_126:                              # %Flow22
	movb	-494(%rbp), %al         # 1-byte Reload
	movb	-493(%rbp), %cl         # 1-byte Reload
	movl	-492(%rbp), %edx        # 4-byte Reload
	testb	$1, %al
	movl	%edx, -464(%rbp)        # 4-byte Spill
	movb	%cl, -510(%rbp)         # 1-byte Spill
	jne	.LBB3_114
	jmp	.LBB3_118
.LBB3_127:
	xorl	%eax, %eax
	movb	%al, %cl
	xorps	%xmm0, %xmm0
	movss	-176(%rbp), %xmm1       # 4-byte Reload
                                        # xmm1 = mem[0],zero,zero,zero
	ucomiss	%xmm0, %xmm1
	setne	%dl
	setp	%sil
	orb	%sil, %dl
	xorb	$-1, %dl
	testb	$1, %dl
	movb	$1, %dl
                                        # implicit-def: $eax
	movl	%eax, -524(%rbp)        # 4-byte Spill
	movb	%cl, -525(%rbp)         # 1-byte Spill
	movb	%dl, -526(%rbp)         # 1-byte Spill
	jne	.LBB3_140
	jmp	.LBB3_151
.LBB3_128:                              # %Flow29
	movb	-527(%rbp), %al         # 1-byte Reload
	xorl	%ecx, %ecx
	movb	%cl, %dl
	movl	-532(%rbp), %ecx        # 4-byte Reload
	movl	%ecx, -524(%rbp)        # 4-byte Spill
	movb	%al, -525(%rbp)         # 1-byte Spill
	movb	%dl, -526(%rbp)         # 1-byte Spill
	jmp	.LBB3_151
.LBB3_129:
	movss	-176(%rbp), %xmm0       # 4-byte Reload
                                        # xmm0 = mem[0],zero,zero,zero
	movss	-184(%rbp), %xmm1       # 4-byte Reload
                                        # xmm1 = mem[0],zero,zero,zero
	subss	%xmm1, %xmm0
	movss	-176(%rbp), %xmm2       # 4-byte Reload
                                        # xmm2 = mem[0],zero,zero,zero
	movss	-192(%rbp), %xmm3       # 4-byte Reload
                                        # xmm3 = mem[0],zero,zero,zero
	subss	%xmm3, %xmm2
	xorps	%xmm4, %xmm4
	ucomiss	%xmm4, %xmm0
	setae	%al
	xorb	$-1, %al
	testb	$1, %al
	movb	$1, %al
	movss	%xmm0, -536(%rbp)       # 4-byte Spill
	movss	%xmm2, -540(%rbp)       # 4-byte Spill
	movb	%al, -541(%rbp)         # 1-byte Spill
	jne	.LBB3_132
.LBB3_130:                              # %Flow13
	movb	-541(%rbp), %al         # 1-byte Reload
	testb	$1, %al
	jne	.LBB3_131
	jmp	.LBB3_134
.LBB3_131:
	movss	.LCPI3_4(%rip), %xmm0   # xmm0 = mem[0],zero,zero,zero
	movss	-304(%rbp), %xmm1       # 4-byte Reload
                                        # xmm1 = mem[0],zero,zero,zero
	cvtss2sd	%xmm1, %xmm2
	movss	-308(%rbp), %xmm3       # 4-byte Reload
                                        # xmm3 = mem[0],zero,zero,zero
	subss	%xmm1, %xmm3
	movss	-176(%rbp), %xmm4       # 4-byte Reload
                                        # xmm4 = mem[0],zero,zero,zero
	mulss	%xmm4, %xmm3
	cvtss2sd	%xmm3, %xmm3
	movss	.LCPI3_4(%rip), %xmm5   # xmm5 = mem[0],zero,zero,zero
	movss	-536(%rbp), %xmm6       # 4-byte Reload
                                        # xmm6 = mem[0],zero,zero,zero
	mulss	%xmm5, %xmm6
	cvttss2si	%xmm6, %rax
	movl	%eax, %ecx
	addl	$1342, %ecx             # imm = 0x53E
	movsd	.LCPI3_5(%rip), %xmm5   # xmm5 = mem[0],zero
	mulsd	%xmm5, %xmm3
	cvttsd2si	%xmm3, %rax
	movl	%eax, %edx
	movl	%edx, %edx
	movl	%edx, %eax
	shlq	$27, %rax
	movl	%ecx, %esi
	xorl	%ecx, %ecx
	movl	%ecx, %edx
	divq	%rsi
	movl	%eax, %ecx
	mulsd	%xmm5, %xmm2
	cvttsd2si	%xmm2, %rax
	movl	%eax, %edi
	addl	%ecx, %edi
	movl	%edi, %eax
	cvtsi2ssq	%rax, %xmm2
	divss	%xmm0, %xmm2
	movss	%xmm2, -92(%rbp)
	jmp	.LBB3_134
.LBB3_132:
	xorl	%eax, %eax
	movb	%al, %cl
	movss	.LCPI3_2(%rip), %xmm0   # xmm0 = mem[0],zero,zero,zero
	movsd	.LCPI3_3(%rip), %xmm1   # xmm1 = mem[0],zero
	movss	-304(%rbp), %xmm2       # 4-byte Reload
                                        # xmm2 = mem[0],zero,zero,zero
	cvtss2sd	%xmm2, %xmm3
	movss	-308(%rbp), %xmm4       # 4-byte Reload
                                        # xmm4 = mem[0],zero,zero,zero
	subss	%xmm2, %xmm4
	movss	-176(%rbp), %xmm5       # 4-byte Reload
                                        # xmm5 = mem[0],zero,zero,zero
	mulss	%xmm5, %xmm4
	cvtss2sd	%xmm4, %xmm4
	movaps	%xmm0, %xmm6
	movss	-536(%rbp), %xmm7       # 4-byte Reload
                                        # xmm7 = mem[0],zero,zero,zero
	mulss	%xmm7, %xmm6
	cvttss2si	%xmm6, %eax
	addl	$671, %eax              # imm = 0x29F
	movaps	%xmm1, %xmm6
	mulsd	%xmm4, %xmm6
	cvttsd2si	%xmm6, %edx
	movslq	%edx, %rsi
	shlq	$26, %rsi
	movslq	%eax, %rdi
	movq	%rsi, %rax
	cqto
	idivq	%rdi
	movl	%eax, %r8d
	mulsd	%xmm3, %xmm1
	cvttsd2si	%xmm1, %r9d
	addl	%r8d, %r9d
	cvtsi2ssl	%r9d, %xmm1
	divss	%xmm0, %xmm1
	movss	%xmm1, -92(%rbp)
	movb	%cl, -541(%rbp)         # 1-byte Spill
	jmp	.LBB3_130
.LBB3_133:                              # %Flow30
	movb	-542(%rbp), %al         # 1-byte Reload
	xorl	%ecx, %ecx
	movb	%cl, %dl
	testb	$1, %al
	movb	%dl, -495(%rbp)         # 1-byte Spill
	jne	.LBB3_168
	jmp	.LBB3_113
.LBB3_134:
	xorps	%xmm0, %xmm0
	movss	-540(%rbp), %xmm1       # 4-byte Reload
                                        # xmm1 = mem[0],zero,zero,zero
	ucomiss	%xmm0, %xmm1
	setae	%al
	xorb	$-1, %al
	testb	$1, %al
	movb	$1, %al
	movb	%al, -543(%rbp)         # 1-byte Spill
	jne	.LBB3_137
.LBB3_135:                              # %Flow12
	movb	-543(%rbp), %al         # 1-byte Reload
	testb	$1, %al
	jne	.LBB3_136
	jmp	.LBB3_138
.LBB3_136:
	movss	.LCPI3_4(%rip), %xmm0   # xmm0 = mem[0],zero,zero,zero
	movss	-304(%rbp), %xmm1       # 4-byte Reload
                                        # xmm1 = mem[0],zero,zero,zero
	cvtss2sd	%xmm1, %xmm2
	movss	-312(%rbp), %xmm3       # 4-byte Reload
                                        # xmm3 = mem[0],zero,zero,zero
	subss	%xmm1, %xmm3
	movss	-176(%rbp), %xmm4       # 4-byte Reload
                                        # xmm4 = mem[0],zero,zero,zero
	mulss	%xmm4, %xmm3
	cvtss2sd	%xmm3, %xmm3
	movss	.LCPI3_4(%rip), %xmm5   # xmm5 = mem[0],zero,zero,zero
	movss	-540(%rbp), %xmm6       # 4-byte Reload
                                        # xmm6 = mem[0],zero,zero,zero
	mulss	%xmm5, %xmm6
	cvttss2si	%xmm6, %rax
	movl	%eax, %ecx
	addl	$1342, %ecx             # imm = 0x53E
	movsd	.LCPI3_5(%rip), %xmm5   # xmm5 = mem[0],zero
	mulsd	%xmm5, %xmm3
	cvttsd2si	%xmm3, %rax
	movl	%eax, %edx
	movl	%edx, %edx
	movl	%edx, %eax
	shlq	$27, %rax
	movl	%ecx, %esi
	xorl	%ecx, %ecx
	movl	%ecx, %edx
	divq	%rsi
	movl	%eax, %ecx
	mulsd	%xmm5, %xmm2
	cvttsd2si	%xmm2, %rax
	movl	%eax, %edi
	addl	%ecx, %edi
	movl	%edi, %eax
	cvtsi2ssq	%rax, %xmm2
	divss	%xmm0, %xmm2
	movss	%xmm2, -88(%rbp)
	jmp	.LBB3_138
.LBB3_137:
	xorl	%eax, %eax
	movb	%al, %cl
	movss	.LCPI3_2(%rip), %xmm0   # xmm0 = mem[0],zero,zero,zero
	movsd	.LCPI3_3(%rip), %xmm1   # xmm1 = mem[0],zero
	movss	-304(%rbp), %xmm2       # 4-byte Reload
                                        # xmm2 = mem[0],zero,zero,zero
	cvtss2sd	%xmm2, %xmm3
	movss	-312(%rbp), %xmm4       # 4-byte Reload
                                        # xmm4 = mem[0],zero,zero,zero
	subss	%xmm2, %xmm4
	movss	-176(%rbp), %xmm5       # 4-byte Reload
                                        # xmm5 = mem[0],zero,zero,zero
	mulss	%xmm5, %xmm4
	cvtss2sd	%xmm4, %xmm4
	movaps	%xmm0, %xmm6
	movss	-540(%rbp), %xmm7       # 4-byte Reload
                                        # xmm7 = mem[0],zero,zero,zero
	mulss	%xmm7, %xmm6
	cvttss2si	%xmm6, %eax
	addl	$671, %eax              # imm = 0x29F
	movaps	%xmm1, %xmm6
	mulsd	%xmm4, %xmm6
	cvttsd2si	%xmm6, %edx
	movslq	%edx, %rsi
	shlq	$26, %rsi
	movslq	%eax, %rdi
	movq	%rsi, %rax
	cqto
	idivq	%rdi
	movl	%eax, %r8d
	mulsd	%xmm3, %xmm1
	cvttsd2si	%xmm1, %r9d
	addl	%r8d, %r9d
	cvtsi2ssl	%r9d, %xmm1
	divss	%xmm0, %xmm1
	movss	%xmm1, -88(%rbp)
	movb	%cl, -543(%rbp)         # 1-byte Spill
	jmp	.LBB3_135
.LBB3_138:
	movb	$1, %al
	movb	%al, -542(%rbp)         # 1-byte Spill
	jmp	.LBB3_133
.LBB3_139:                              # %Flow23
	movb	-518(%rbp), %al         # 1-byte Reload
	movb	-517(%rbp), %cl         # 1-byte Reload
	movl	-516(%rbp), %edx        # 4-byte Reload
	testb	$1, %al
	movl	%edx, -500(%rbp)        # 4-byte Spill
	movb	%cl, -542(%rbp)         # 1-byte Spill
	jne	.LBB3_129
	jmp	.LBB3_133
.LBB3_140:
	xorl	%eax, %eax
	movb	%al, %cl
	xorps	%xmm0, %xmm0
	movss	-184(%rbp), %xmm1       # 4-byte Reload
                                        # xmm1 = mem[0],zero,zero,zero
	ucomiss	%xmm0, %xmm1
	setne	%dl
	setp	%sil
	orb	%sil, %dl
	xorb	$-1, %dl
	testb	$1, %dl
	movb	$1, %dl
                                        # implicit-def: $eax
	movl	%eax, -548(%rbp)        # 4-byte Spill
	movb	%cl, -549(%rbp)         # 1-byte Spill
	movb	%dl, -550(%rbp)         # 1-byte Spill
	jne	.LBB3_152
	jmp	.LBB3_164
.LBB3_141:
	movss	-184(%rbp), %xmm0       # 4-byte Reload
                                        # xmm0 = mem[0],zero,zero,zero
	movss	-176(%rbp), %xmm1       # 4-byte Reload
                                        # xmm1 = mem[0],zero,zero,zero
	subss	%xmm1, %xmm0
	movss	-184(%rbp), %xmm2       # 4-byte Reload
                                        # xmm2 = mem[0],zero,zero,zero
	movss	-192(%rbp), %xmm3       # 4-byte Reload
                                        # xmm3 = mem[0],zero,zero,zero
	subss	%xmm3, %xmm2
	xorps	%xmm4, %xmm4
	ucomiss	%xmm4, %xmm0
	setae	%al
	xorb	$-1, %al
	testb	$1, %al
	movb	$1, %al
	movss	%xmm0, -556(%rbp)       # 4-byte Spill
	movss	%xmm2, -560(%rbp)       # 4-byte Spill
	movb	%al, -561(%rbp)         # 1-byte Spill
	jne	.LBB3_144
.LBB3_142:                              # %Flow11
	movb	-561(%rbp), %al         # 1-byte Reload
	testb	$1, %al
	jne	.LBB3_143
	jmp	.LBB3_146
.LBB3_143:
	movss	.LCPI3_4(%rip), %xmm0   # xmm0 = mem[0],zero,zero,zero
	movss	-308(%rbp), %xmm1       # 4-byte Reload
                                        # xmm1 = mem[0],zero,zero,zero
	cvtss2sd	%xmm1, %xmm2
	movss	-304(%rbp), %xmm3       # 4-byte Reload
                                        # xmm3 = mem[0],zero,zero,zero
	subss	%xmm1, %xmm3
	movss	-184(%rbp), %xmm4       # 4-byte Reload
                                        # xmm4 = mem[0],zero,zero,zero
	mulss	%xmm4, %xmm3
	cvtss2sd	%xmm3, %xmm3
	movss	.LCPI3_4(%rip), %xmm5   # xmm5 = mem[0],zero,zero,zero
	movss	-556(%rbp), %xmm6       # 4-byte Reload
                                        # xmm6 = mem[0],zero,zero,zero
	mulss	%xmm5, %xmm6
	cvttss2si	%xmm6, %rax
	movl	%eax, %ecx
	addl	$1342, %ecx             # imm = 0x53E
	movsd	.LCPI3_5(%rip), %xmm5   # xmm5 = mem[0],zero
	mulsd	%xmm5, %xmm3
	cvttsd2si	%xmm3, %rax
	movl	%eax, %edx
	movl	%edx, %edx
	movl	%edx, %eax
	shlq	$27, %rax
	movl	%ecx, %esi
	xorl	%ecx, %ecx
	movl	%ecx, %edx
	divq	%rsi
	movl	%eax, %ecx
	mulsd	%xmm5, %xmm2
	cvttsd2si	%xmm2, %rax
	movl	%eax, %edi
	addl	%ecx, %edi
	movl	%edi, %eax
	cvtsi2ssq	%rax, %xmm2
	divss	%xmm0, %xmm2
	movss	%xmm2, -92(%rbp)
	jmp	.LBB3_146
.LBB3_144:
	xorl	%eax, %eax
	movb	%al, %cl
	movss	.LCPI3_2(%rip), %xmm0   # xmm0 = mem[0],zero,zero,zero
	movsd	.LCPI3_3(%rip), %xmm1   # xmm1 = mem[0],zero
	movss	-308(%rbp), %xmm2       # 4-byte Reload
                                        # xmm2 = mem[0],zero,zero,zero
	cvtss2sd	%xmm2, %xmm3
	movss	-304(%rbp), %xmm4       # 4-byte Reload
                                        # xmm4 = mem[0],zero,zero,zero
	subss	%xmm2, %xmm4
	movss	-184(%rbp), %xmm5       # 4-byte Reload
                                        # xmm5 = mem[0],zero,zero,zero
	mulss	%xmm5, %xmm4
	cvtss2sd	%xmm4, %xmm4
	movaps	%xmm0, %xmm6
	movss	-556(%rbp), %xmm7       # 4-byte Reload
                                        # xmm7 = mem[0],zero,zero,zero
	mulss	%xmm7, %xmm6
	cvttss2si	%xmm6, %eax
	addl	$671, %eax              # imm = 0x29F
	movaps	%xmm1, %xmm6
	mulsd	%xmm4, %xmm6
	cvttsd2si	%xmm6, %edx
	movslq	%edx, %rsi
	shlq	$26, %rsi
	movslq	%eax, %rdi
	movq	%rsi, %rax
	cqto
	idivq	%rdi
	movl	%eax, %r8d
	mulsd	%xmm3, %xmm1
	cvttsd2si	%xmm1, %r9d
	addl	%r8d, %r9d
	cvtsi2ssl	%r9d, %xmm1
	divss	%xmm0, %xmm1
	movss	%xmm1, -92(%rbp)
	movb	%cl, -561(%rbp)         # 1-byte Spill
	jmp	.LBB3_142
.LBB3_145:                              # %Flow28
	movb	-562(%rbp), %al         # 1-byte Reload
	xorl	%ecx, %ecx
	movb	%cl, %dl
	testb	$1, %al
	movb	%dl, -527(%rbp)         # 1-byte Spill
	jne	.LBB3_167
	jmp	.LBB3_128
.LBB3_146:
	xorps	%xmm0, %xmm0
	movss	-560(%rbp), %xmm1       # 4-byte Reload
                                        # xmm1 = mem[0],zero,zero,zero
	ucomiss	%xmm0, %xmm1
	setae	%al
	xorb	$-1, %al
	testb	$1, %al
	movb	$1, %al
	movb	%al, -563(%rbp)         # 1-byte Spill
	jne	.LBB3_149
.LBB3_147:                              # %Flow10
	movb	-563(%rbp), %al         # 1-byte Reload
	testb	$1, %al
	jne	.LBB3_148
	jmp	.LBB3_150
.LBB3_148:
	movss	.LCPI3_4(%rip), %xmm0   # xmm0 = mem[0],zero,zero,zero
	movss	-308(%rbp), %xmm1       # 4-byte Reload
                                        # xmm1 = mem[0],zero,zero,zero
	cvtss2sd	%xmm1, %xmm2
	movss	-312(%rbp), %xmm3       # 4-byte Reload
                                        # xmm3 = mem[0],zero,zero,zero
	subss	%xmm1, %xmm3
	movss	-184(%rbp), %xmm4       # 4-byte Reload
                                        # xmm4 = mem[0],zero,zero,zero
	mulss	%xmm4, %xmm3
	cvtss2sd	%xmm3, %xmm3
	movss	.LCPI3_4(%rip), %xmm5   # xmm5 = mem[0],zero,zero,zero
	movss	-560(%rbp), %xmm6       # 4-byte Reload
                                        # xmm6 = mem[0],zero,zero,zero
	mulss	%xmm5, %xmm6
	cvttss2si	%xmm6, %rax
	movl	%eax, %ecx
	addl	$1342, %ecx             # imm = 0x53E
	movsd	.LCPI3_5(%rip), %xmm5   # xmm5 = mem[0],zero
	mulsd	%xmm5, %xmm3
	cvttsd2si	%xmm3, %rax
	movl	%eax, %edx
	movl	%edx, %edx
	movl	%edx, %eax
	shlq	$27, %rax
	movl	%ecx, %esi
	xorl	%ecx, %ecx
	movl	%ecx, %edx
	divq	%rsi
	movl	%eax, %ecx
	mulsd	%xmm5, %xmm2
	cvttsd2si	%xmm2, %rax
	movl	%eax, %edi
	addl	%ecx, %edi
	movl	%edi, %eax
	cvtsi2ssq	%rax, %xmm2
	divss	%xmm0, %xmm2
	movss	%xmm2, -88(%rbp)
	jmp	.LBB3_150
.LBB3_149:
	xorl	%eax, %eax
	movb	%al, %cl
	movss	.LCPI3_2(%rip), %xmm0   # xmm0 = mem[0],zero,zero,zero
	movsd	.LCPI3_3(%rip), %xmm1   # xmm1 = mem[0],zero
	movss	-308(%rbp), %xmm2       # 4-byte Reload
                                        # xmm2 = mem[0],zero,zero,zero
	cvtss2sd	%xmm2, %xmm3
	movss	-312(%rbp), %xmm4       # 4-byte Reload
                                        # xmm4 = mem[0],zero,zero,zero
	subss	%xmm2, %xmm4
	movss	-184(%rbp), %xmm5       # 4-byte Reload
                                        # xmm5 = mem[0],zero,zero,zero
	mulss	%xmm5, %xmm4
	cvtss2sd	%xmm4, %xmm4
	movaps	%xmm0, %xmm6
	movss	-560(%rbp), %xmm7       # 4-byte Reload
                                        # xmm7 = mem[0],zero,zero,zero
	mulss	%xmm7, %xmm6
	cvttss2si	%xmm6, %eax
	addl	$671, %eax              # imm = 0x29F
	movaps	%xmm1, %xmm6
	mulsd	%xmm4, %xmm6
	cvttsd2si	%xmm6, %edx
	movslq	%edx, %rsi
	shlq	$26, %rsi
	movslq	%eax, %rdi
	movq	%rsi, %rax
	cqto
	idivq	%rdi
	movl	%eax, %r8d
	mulsd	%xmm3, %xmm1
	cvttsd2si	%xmm1, %r9d
	addl	%r8d, %r9d
	cvtsi2ssl	%r9d, %xmm1
	divss	%xmm0, %xmm1
	movss	%xmm1, -88(%rbp)
	movb	%cl, -563(%rbp)         # 1-byte Spill
	jmp	.LBB3_147
.LBB3_150:
	movb	$1, %al
	movb	%al, -562(%rbp)         # 1-byte Spill
	jmp	.LBB3_145
.LBB3_151:                              # %Flow24
	movb	-526(%rbp), %al         # 1-byte Reload
	movb	-525(%rbp), %cl         # 1-byte Reload
	movl	-524(%rbp), %edx        # 4-byte Reload
	movl	%edx, -516(%rbp)        # 4-byte Spill
	movb	%cl, -517(%rbp)         # 1-byte Spill
	movb	%al, -518(%rbp)         # 1-byte Spill
	jmp	.LBB3_139
.LBB3_152:
	xorps	%xmm0, %xmm0
	movss	-192(%rbp), %xmm1       # 4-byte Reload
                                        # xmm1 = mem[0],zero,zero,zero
	ucomiss	%xmm0, %xmm1
	setne	%al
	setp	%cl
	orb	%cl, %al
	xorb	$-1, %al
	testb	$1, %al
	movb	$1, %al
                                        # implicit-def: $edx
	movl	%edx, -568(%rbp)        # 4-byte Spill
	movb	%al, -569(%rbp)         # 1-byte Spill
	jne	.LBB3_165
.LBB3_153:                              # %Flow26
	movb	-569(%rbp), %al         # 1-byte Reload
	movl	-568(%rbp), %ecx        # 4-byte Reload
	xorl	%edx, %edx
	movb	%dl, %sil
	testb	$1, %al
	movl	%ecx, -576(%rbp)        # 4-byte Spill
	movb	%sil, -577(%rbp)        # 1-byte Spill
	jne	.LBB3_154
	jmp	.LBB3_158
.LBB3_154:
	movss	-192(%rbp), %xmm0       # 4-byte Reload
                                        # xmm0 = mem[0],zero,zero,zero
	movss	-176(%rbp), %xmm1       # 4-byte Reload
                                        # xmm1 = mem[0],zero,zero,zero
	subss	%xmm1, %xmm0
	movss	-192(%rbp), %xmm2       # 4-byte Reload
                                        # xmm2 = mem[0],zero,zero,zero
	movss	-184(%rbp), %xmm3       # 4-byte Reload
                                        # xmm3 = mem[0],zero,zero,zero
	subss	%xmm3, %xmm2
	xorps	%xmm4, %xmm4
	ucomiss	%xmm4, %xmm0
	setae	%al
	xorb	$-1, %al
	testb	$1, %al
	movb	$1, %al
	movss	%xmm0, -584(%rbp)       # 4-byte Spill
	movss	%xmm2, -588(%rbp)       # 4-byte Spill
	movb	%al, -589(%rbp)         # 1-byte Spill
	jne	.LBB3_157
.LBB3_155:                              # %Flow9
	movb	-589(%rbp), %al         # 1-byte Reload
	testb	$1, %al
	jne	.LBB3_156
	jmp	.LBB3_159
.LBB3_156:
	movss	.LCPI3_4(%rip), %xmm0   # xmm0 = mem[0],zero,zero,zero
	movss	-312(%rbp), %xmm1       # 4-byte Reload
                                        # xmm1 = mem[0],zero,zero,zero
	cvtss2sd	%xmm1, %xmm2
	movss	-304(%rbp), %xmm3       # 4-byte Reload
                                        # xmm3 = mem[0],zero,zero,zero
	subss	%xmm1, %xmm3
	movss	-192(%rbp), %xmm4       # 4-byte Reload
                                        # xmm4 = mem[0],zero,zero,zero
	mulss	%xmm4, %xmm3
	cvtss2sd	%xmm3, %xmm3
	movss	.LCPI3_4(%rip), %xmm5   # xmm5 = mem[0],zero,zero,zero
	movss	-584(%rbp), %xmm6       # 4-byte Reload
                                        # xmm6 = mem[0],zero,zero,zero
	mulss	%xmm5, %xmm6
	cvttss2si	%xmm6, %rax
	movl	%eax, %ecx
	addl	$1342, %ecx             # imm = 0x53E
	movsd	.LCPI3_5(%rip), %xmm5   # xmm5 = mem[0],zero
	mulsd	%xmm5, %xmm3
	cvttsd2si	%xmm3, %rax
	movl	%eax, %edx
	movl	%edx, %edx
	movl	%edx, %eax
	shlq	$27, %rax
	movl	%ecx, %esi
	xorl	%ecx, %ecx
	movl	%ecx, %edx
	divq	%rsi
	movl	%eax, %ecx
	mulsd	%xmm5, %xmm2
	cvttsd2si	%xmm2, %rax
	movl	%eax, %edi
	addl	%ecx, %edi
	movl	%edi, %eax
	cvtsi2ssq	%rax, %xmm2
	divss	%xmm0, %xmm2
	movss	%xmm2, -92(%rbp)
	jmp	.LBB3_159
.LBB3_157:
	xorl	%eax, %eax
	movb	%al, %cl
	movss	.LCPI3_2(%rip), %xmm0   # xmm0 = mem[0],zero,zero,zero
	movsd	.LCPI3_3(%rip), %xmm1   # xmm1 = mem[0],zero
	movss	-312(%rbp), %xmm2       # 4-byte Reload
                                        # xmm2 = mem[0],zero,zero,zero
	cvtss2sd	%xmm2, %xmm3
	movss	-304(%rbp), %xmm4       # 4-byte Reload
                                        # xmm4 = mem[0],zero,zero,zero
	subss	%xmm2, %xmm4
	movss	-192(%rbp), %xmm5       # 4-byte Reload
                                        # xmm5 = mem[0],zero,zero,zero
	mulss	%xmm5, %xmm4
	cvtss2sd	%xmm4, %xmm4
	movaps	%xmm0, %xmm6
	movss	-584(%rbp), %xmm7       # 4-byte Reload
                                        # xmm7 = mem[0],zero,zero,zero
	mulss	%xmm7, %xmm6
	cvttss2si	%xmm6, %eax
	addl	$671, %eax              # imm = 0x29F
	movaps	%xmm1, %xmm6
	mulsd	%xmm4, %xmm6
	cvttsd2si	%xmm6, %edx
	movslq	%edx, %rsi
	shlq	$26, %rsi
	movslq	%eax, %rdi
	movq	%rsi, %rax
	cqto
	idivq	%rdi
	movl	%eax, %r8d
	mulsd	%xmm3, %xmm1
	cvttsd2si	%xmm1, %r9d
	addl	%r8d, %r9d
	cvtsi2ssl	%r9d, %xmm1
	divss	%xmm0, %xmm1
	movss	%xmm1, -92(%rbp)
	movb	%cl, -589(%rbp)         # 1-byte Spill
	jmp	.LBB3_155
.LBB3_158:                              # %Flow27
	movb	-577(%rbp), %al         # 1-byte Reload
	xorl	%ecx, %ecx
	movb	%cl, %dl
	movl	-576(%rbp), %ecx        # 4-byte Reload
	movl	%ecx, -548(%rbp)        # 4-byte Spill
	movb	%al, -549(%rbp)         # 1-byte Spill
	movb	%dl, -550(%rbp)         # 1-byte Spill
	jmp	.LBB3_164
.LBB3_159:
	xorps	%xmm0, %xmm0
	movss	-588(%rbp), %xmm1       # 4-byte Reload
                                        # xmm1 = mem[0],zero,zero,zero
	ucomiss	%xmm0, %xmm1
	setae	%al
	xorb	$-1, %al
	testb	$1, %al
	movb	$1, %al
	movb	%al, -590(%rbp)         # 1-byte Spill
	jne	.LBB3_162
.LBB3_160:                              # %Flow8
	movb	-590(%rbp), %al         # 1-byte Reload
	testb	$1, %al
	jne	.LBB3_161
	jmp	.LBB3_163
.LBB3_161:
	movss	.LCPI3_4(%rip), %xmm0   # xmm0 = mem[0],zero,zero,zero
	movss	-312(%rbp), %xmm1       # 4-byte Reload
                                        # xmm1 = mem[0],zero,zero,zero
	cvtss2sd	%xmm1, %xmm2
	movss	-308(%rbp), %xmm3       # 4-byte Reload
                                        # xmm3 = mem[0],zero,zero,zero
	subss	%xmm1, %xmm3
	movss	-192(%rbp), %xmm4       # 4-byte Reload
                                        # xmm4 = mem[0],zero,zero,zero
	mulss	%xmm4, %xmm3
	cvtss2sd	%xmm3, %xmm3
	movss	.LCPI3_4(%rip), %xmm5   # xmm5 = mem[0],zero,zero,zero
	movss	-588(%rbp), %xmm6       # 4-byte Reload
                                        # xmm6 = mem[0],zero,zero,zero
	mulss	%xmm5, %xmm6
	cvttss2si	%xmm6, %rax
	movl	%eax, %ecx
	addl	$1342, %ecx             # imm = 0x53E
	movsd	.LCPI3_5(%rip), %xmm5   # xmm5 = mem[0],zero
	mulsd	%xmm5, %xmm3
	cvttsd2si	%xmm3, %rax
	movl	%eax, %edx
	movl	%edx, %edx
	movl	%edx, %eax
	shlq	$27, %rax
	movl	%ecx, %esi
	xorl	%ecx, %ecx
	movl	%ecx, %edx
	divq	%rsi
	movl	%eax, %ecx
	mulsd	%xmm5, %xmm2
	cvttsd2si	%xmm2, %rax
	movl	%eax, %edi
	addl	%ecx, %edi
	movl	%edi, %eax
	cvtsi2ssq	%rax, %xmm2
	divss	%xmm0, %xmm2
	movss	%xmm2, -88(%rbp)
	jmp	.LBB3_163
.LBB3_162:
	xorl	%eax, %eax
	movb	%al, %cl
	movss	.LCPI3_2(%rip), %xmm0   # xmm0 = mem[0],zero,zero,zero
	movsd	.LCPI3_3(%rip), %xmm1   # xmm1 = mem[0],zero
	movss	-312(%rbp), %xmm2       # 4-byte Reload
                                        # xmm2 = mem[0],zero,zero,zero
	cvtss2sd	%xmm2, %xmm3
	movss	-308(%rbp), %xmm4       # 4-byte Reload
                                        # xmm4 = mem[0],zero,zero,zero
	subss	%xmm2, %xmm4
	movss	-192(%rbp), %xmm5       # 4-byte Reload
                                        # xmm5 = mem[0],zero,zero,zero
	mulss	%xmm5, %xmm4
	cvtss2sd	%xmm4, %xmm4
	movaps	%xmm0, %xmm6
	movss	-588(%rbp), %xmm7       # 4-byte Reload
                                        # xmm7 = mem[0],zero,zero,zero
	mulss	%xmm7, %xmm6
	cvttss2si	%xmm6, %eax
	addl	$671, %eax              # imm = 0x29F
	movaps	%xmm1, %xmm6
	mulsd	%xmm4, %xmm6
	cvttsd2si	%xmm6, %edx
	movslq	%edx, %rsi
	shlq	$26, %rsi
	movslq	%eax, %rdi
	movq	%rsi, %rax
	cqto
	idivq	%rdi
	movl	%eax, %r8d
	mulsd	%xmm3, %xmm1
	cvttsd2si	%xmm1, %r9d
	addl	%r8d, %r9d
	cvtsi2ssl	%r9d, %xmm1
	divss	%xmm0, %xmm1
	movss	%xmm1, -88(%rbp)
	movb	%cl, -590(%rbp)         # 1-byte Spill
	jmp	.LBB3_160
.LBB3_163:
	jmp	.LBB3_166
.LBB3_164:                              # %Flow25
	movb	-550(%rbp), %al         # 1-byte Reload
	movb	-549(%rbp), %cl         # 1-byte Reload
	movl	-548(%rbp), %edx        # 4-byte Reload
	testb	$1, %al
	movl	%edx, -532(%rbp)        # 4-byte Spill
	movb	%cl, -562(%rbp)         # 1-byte Spill
	jne	.LBB3_141
	jmp	.LBB3_145
.LBB3_165:
	leaq	-52(%rbp), %rdi
	movq	-160(%rbp), %rsi        # 8-byte Reload
	movq	-152(%rbp), %rdx        # 8-byte Reload
	movq	-144(%rbp), %rcx        # 8-byte Reload
	movq	-136(%rbp), %r8         # 8-byte Reload
	movq	-128(%rbp), %r9         # 8-byte Reload
	movq	-120(%rbp), %rax        # 8-byte Reload
	movq	%rax, (%rsp)
	callq	_Z16coplanar_tri_triPfS_S_S_S_S_S_.1
	xorl	%r10d, %r10d
	movb	%r10b, %r11b
	movl	%eax, -568(%rbp)        # 4-byte Spill
	movb	%r11b, -569(%rbp)       # 1-byte Spill
	jmp	.LBB3_153
.LBB3_166:
	movb	$1, %al
	movb	%al, -577(%rbp)         # 1-byte Spill
	jmp	.LBB3_158
.LBB3_167:
	movb	$1, %al
	movb	%al, -527(%rbp)         # 1-byte Spill
	jmp	.LBB3_128
.LBB3_168:
	movb	$1, %al
	movb	%al, -495(%rbp)         # 1-byte Spill
	jmp	.LBB3_113
.LBB3_169:
	movb	$1, %al
	movb	%al, -459(%rbp)         # 1-byte Spill
	jmp	.LBB3_101
.LBB3_170:
	movss	-84(%rbp), %xmm0        # xmm0 = mem[0],zero,zero,zero
	ucomiss	-80(%rbp), %xmm0
	jbe	.LBB3_173
# %bb.171:
	movss	-84(%rbp), %xmm0        # xmm0 = mem[0],zero,zero,zero
	movss	-80(%rbp), %xmm1        # xmm1 = mem[0],zero,zero,zero
	movss	%xmm1, -84(%rbp)
	movss	%xmm0, -80(%rbp)
	jmp	.LBB3_173
.LBB3_172:                              # %Flow35
	movl	-484(%rbp), %eax        # 4-byte Reload
	movl	%eax, -344(%rbp)        # 4-byte Spill
	jmp	.LBB3_184
.LBB3_173:
	movss	-92(%rbp), %xmm0        # xmm0 = mem[0],zero,zero,zero
	ucomiss	-88(%rbp), %xmm0
	jbe	.LBB3_175
# %bb.174:
	movss	-92(%rbp), %xmm0        # xmm0 = mem[0],zero,zero,zero
	movss	-88(%rbp), %xmm1        # xmm1 = mem[0],zero,zero,zero
	movss	%xmm1, -92(%rbp)
	movss	%xmm0, -88(%rbp)
.LBB3_175:
	movss	-84(%rbp), %xmm0        # xmm0 = mem[0],zero,zero,zero
	movq	-112(%rbp), %rax        # 8-byte Reload
	movss	%xmm0, (%rax)
	movss	-80(%rbp), %xmm0        # xmm0 = mem[0],zero,zero,zero
	movss	%xmm0, 4(%rax)
# %bb.176:
	jmp	.LBB3_177
.LBB3_177:
	movss	-80(%rbp), %xmm0        # xmm0 = mem[0],zero,zero,zero
	movss	-92(%rbp), %xmm1        # xmm1 = mem[0],zero,zero,zero
	ucomiss	%xmm0, %xmm1
	seta	%al
	movb	%al, %cl
	xorb	$-1, %cl
	testb	$1, %cl
	movb	%al, -591(%rbp)         # 1-byte Spill
	jne	.LBB3_178
	jmp	.LBB3_181
.LBB3_178:
	movss	-88(%rbp), %xmm0        # xmm0 = mem[0],zero,zero,zero
	movss	-84(%rbp), %xmm1        # xmm1 = mem[0],zero,zero,zero
	ucomiss	%xmm0, %xmm1
	seta	%al
	xorb	$-1, %al
	testb	$1, %al
	movb	$1, %al
	movb	%al, -592(%rbp)         # 1-byte Spill
	jne	.LBB3_182
.LBB3_179:                              # %Flow17
	movb	-592(%rbp), %al         # 1-byte Reload
	movb	%al, -591(%rbp)         # 1-byte Spill
	jmp	.LBB3_181
.LBB3_180:
	xorl	%eax, %eax
	movq	-104(%rbp), %rcx        # 8-byte Reload
	movl	$4, (%rcx)
	movl	%eax, -596(%rbp)        # 4-byte Spill
	jmp	.LBB3_183
.LBB3_181:                              # %Flow16
	movb	-591(%rbp), %al         # 1-byte Reload
	testb	$1, %al
	movl	$1, %ecx
	movl	%ecx, -596(%rbp)        # 4-byte Spill
	jne	.LBB3_180
	jmp	.LBB3_183
.LBB3_182:
	xorl	%eax, %eax
	movb	%al, %cl
	movq	-104(%rbp), %rdx        # 8-byte Reload
	movl	$5, (%rdx)
	movb	%cl, -592(%rbp)         # 1-byte Spill
	jmp	.LBB3_179
.LBB3_183:                              # %Flow18
	movl	-596(%rbp), %eax        # 4-byte Reload
	movl	%eax, -484(%rbp)        # 4-byte Spill
	jmp	.LBB3_172
.LBB3_184:                              # %Flow52
	movl	-344(%rbp), %eax        # 4-byte Reload
	xorl	%ecx, %ecx
	movb	%cl, %dl
	movl	%eax, -268(%rbp)        # 4-byte Spill
	movb	%dl, -269(%rbp)         # 1-byte Spill
	jmp	.LBB3_27
.LBB3_185:                              # %Flow55
	movl	-264(%rbp), %eax        # 4-byte Reload
	xorl	%ecx, %ecx
	movb	%cl, %dl
	movl	%eax, -212(%rbp)        # 4-byte Spill
	movb	%dl, -213(%rbp)         # 1-byte Spill
	jmp	.LBB3_14
.LBB3_186:
	movl	-208(%rbp), %eax        # 4-byte Reload
	addq	$592, %rsp              # imm = 0x250
	popq	%rbx
	popq	%r14
	popq	%rbp
	.cfi_def_cfa %rsp, 8
	retq
.Lfunc_end3:
	.size	_Z17tri_tri_intersectPfS_S_S_S_S_S_Pi, .Lfunc_end3-_Z17tri_tri_intersectPfS_S_S_S_S_S_Pi
	.cfi_endproc
                                        # -- End function
	.section	.text.startup,"ax",@progbits
	.p2align	4, 0x90         # -- Begin function _GLOBAL__sub_I_jmeint.cpp
	.type	_GLOBAL__sub_I_jmeint.cpp,@function
_GLOBAL__sub_I_jmeint.cpp:              # @_GLOBAL__sub_I_jmeint.cpp
	.cfi_startproc
# %bb.0:
	pushq	%rbp
	.cfi_def_cfa_offset 16
	.cfi_offset %rbp, -16
	movq	%rsp, %rbp
	.cfi_def_cfa_register %rbp
	callq	__cxx_global_var_init.2
	popq	%rbp
	.cfi_def_cfa %rsp, 8
	retq
.Lfunc_end4:
	.size	_GLOBAL__sub_I_jmeint.cpp, .Lfunc_end4-_GLOBAL__sub_I_jmeint.cpp
	.cfi_endproc
                                        # -- End function
	.p2align	4, 0x90         # -- Begin function __cxx_global_var_init.2
	.type	__cxx_global_var_init.2,@function
__cxx_global_var_init.2:                # @__cxx_global_var_init.2
	.cfi_startproc
# %bb.0:
	pushq	%rbp
	.cfi_def_cfa_offset 16
	.cfi_offset %rbp, -16
	movq	%rsp, %rbp
	.cfi_def_cfa_register %rbp
	subq	$16, %rsp
	movabsq	$_ZStL8__ioinit.3, %rdi
	callq	_ZNSt8ios_base4InitC1Ev
	movabsq	$_ZNSt8ios_base4InitD1Ev, %rdi
	movabsq	$_ZStL8__ioinit.3, %rsi
	movabsq	$__dso_handle, %rdx
	callq	__cxa_atexit
	movl	%eax, -4(%rbp)          # 4-byte Spill
	addq	$16, %rsp
	popq	%rbp
	.cfi_def_cfa %rsp, 8
	retq
.Lfunc_end5:
	.size	__cxx_global_var_init.2, .Lfunc_end5-__cxx_global_var_init.2
	.cfi_endproc
                                        # -- End function
	.section	.rodata.cst16,"aM",@progbits,16
	.p2align	4               # -- Begin function main
.LCPI6_0:
	.long	1127219200              # 0x43300000
	.long	1160773632              # 0x45300000
	.long	0                       # 0x0
	.long	0                       # 0x0
.LCPI6_1:
	.quad	4841369599423283200     # double 4503599627370496
	.quad	4985484787499139072     # double 1.9342813113834067E+25
	.section	.rodata.cst8,"aM",@progbits,8
	.p2align	3
.LCPI6_2:
	.quad	4741671816366391296     # double 1.0E+9
	.section	.rodata.cst4,"aM",@progbits,4
	.p2align	2
.LCPI6_3:
	.long	1325400064              # float 2.14748365E+9
	.text
	.globl	main
	.p2align	4, 0x90
	.type	main,@function
main:                                   # @main
.Lfunc_begin0:
	.cfi_startproc
	.cfi_personality 3, __gxx_personality_v0
	.cfi_lsda 3, .Lexception0
# %bb.0:
	pushq	%rbp
	.cfi_def_cfa_offset 16
	.cfi_offset %rbp, -16
	movq	%rsp, %rbp
	.cfi_def_cfa_register %rbp
	pushq	%rbx
	subq	$1880, %rsp             # imm = 0x758
	.cfi_offset %rbx, -24
	movq	_ZSt4cout(%rip), %rax
	movq	-24(%rax), %rax
	leaq	_ZSt4cout(%rax), %rax
	movl	$8, %ecx
	movl	%edi, -1264(%rbp)       # 4-byte Spill
	movq	%rax, %rdi
	movq	%rsi, -1272(%rbp)       # 8-byte Spill
	movq	%rcx, %rsi
	callq	_ZNSt8ios_base9precisionEl
	movq	-1272(%rbp), %rcx       # 8-byte Reload
	movq	8(%rcx), %rsi
	leaq	-56(%rbp), %rdi
	movq	%rdi, -1280(%rbp)       # 8-byte Spill
	movq	%rax, -1288(%rbp)       # 8-byte Spill
	movq	%rsi, -1296(%rbp)       # 8-byte Spill
	callq	_ZNSaIcEC1Ev
.Ltmp0:
	leaq	-48(%rbp), %rdi
	movq	-1296(%rbp), %rsi       # 8-byte Reload
	movq	-1280(%rbp), %rdx       # 8-byte Reload
	callq	_ZNSt7__cxx1112basic_stringIcSt11char_traitsIcESaIcEEC1EPKcRKS3_
.Ltmp1:
	jmp	.LBB6_1
.LBB6_1:
	leaq	-56(%rbp), %rdi
	callq	_ZNSaIcED1Ev
	movq	-1272(%rbp), %rdi       # 8-byte Reload
	movq	16(%rdi), %rsi
	leaq	-96(%rbp), %rax
	movq	%rax, %rdi
	movq	%rsi, -1304(%rbp)       # 8-byte Spill
	movq	%rax, -1312(%rbp)       # 8-byte Spill
	callq	_ZNSaIcEC1Ev
.Ltmp3:
	leaq	-88(%rbp), %rdi
	movq	-1304(%rbp), %rsi       # 8-byte Reload
	movq	-1312(%rbp), %rdx       # 8-byte Reload
	callq	_ZNSt7__cxx1112basic_stringIcSt11char_traitsIcESaIcEEC1EPKcRKS3_
.Ltmp4:
	jmp	.LBB6_2
.LBB6_2:
	leaq	-96(%rbp), %rdi
	callq	_ZNSaIcED1Ev
.Ltmp6:
	leaq	-608(%rbp), %rdi
	callq	_ZNSt14basic_ofstreamIcSt11char_traitsIcEEC1Ev
.Ltmp7:
	jmp	.LBB6_3
.LBB6_3:
.Ltmp9:
	leaq	-608(%rbp), %rdi
	leaq	-88(%rbp), %rsi
	movl	$16, %edx
	callq	_ZNSt14basic_ofstreamIcSt11char_traitsIcEE4openERKNSt7__cxx1112basic_stringIcS1_SaIcEEESt13_Ios_Openmode
.Ltmp10:
	jmp	.LBB6_4
.LBB6_4:
	movq	-608(%rbp), %rax
	movq	-24(%rax), %rax
	leaq	-608(%rbp,%rax), %rdi
.Ltmp11:
	movl	$5, %esi
	callq	_ZNSt8ios_base9precisionEl
.Ltmp12:
	movq	%rax, -1320(%rbp)       # 8-byte Spill
	jmp	.LBB6_5
.LBB6_5:
.Ltmp13:
	leaq	-1128(%rbp), %rdi
	leaq	-48(%rbp), %rsi
	movl	$8, %edx
	callq	_ZNSt14basic_ifstreamIcSt11char_traitsIcEEC1ERKNSt7__cxx1112basic_stringIcS1_SaIcEEESt13_Ios_Openmode
.Ltmp14:
	jmp	.LBB6_6
.LBB6_6:
.Ltmp16:
	leaq	-1128(%rbp), %rdi
	leaq	-12(%rbp), %rsi
	callq	_ZNSirsERi
.Ltmp17:
	movq	%rax, -1328(%rbp)       # 8-byte Spill
	jmp	.LBB6_7
.LBB6_7:
	imull	$6, -12(%rbp), %eax
	imull	$3, %eax, %eax
	movslq	%eax, %rcx
	shlq	$2, %rcx
	movq	%rcx, %rdi
	callq	malloc
	movq	%rax, %rcx
	cmpq	$0, %rcx
	movq	%rax, -1336(%rbp)       # 8-byte Spill
	jne	.LBB6_20
# %bb.8:
.Ltmp86:
	movl	$_ZSt4cout, %edi
	movl	$.L.str.2.17, %esi
	callq	_ZStlsISt11char_traitsIcEERSt13basic_ostreamIcT_ES5_PKc
.Ltmp87:
	movq	%rax, -1344(%rbp)       # 8-byte Spill
	jmp	.LBB6_9
.LBB6_9:
.Ltmp88:
	movl	$_ZSt4endlIcSt11char_traitsIcEERSt13basic_ostreamIT_T0_ES6_, %esi
	movq	-1344(%rbp), %rdi       # 8-byte Reload
	callq	_ZNSolsEPFRSoS_E
.Ltmp89:
	movq	%rax, -1352(%rbp)       # 8-byte Spill
	jmp	.LBB6_10
.LBB6_10:
	movl	$4294967295, %eax       # imm = 0xFFFFFFFF
	movl	%eax, -1356(%rbp)       # 4-byte Spill
	jmp	.LBB6_77
.LBB6_11:
.Ltmp2:
	movl	%edx, %ecx
	leaq	-56(%rbp), %rdi
	movl	%ecx, -1360(%rbp)       # 4-byte Spill
	movq	%rax, -1368(%rbp)       # 8-byte Spill
	callq	_ZNSaIcED1Ev
	movq	-1368(%rbp), %rax       # 8-byte Reload
	movq	%rax, -1376(%rbp)       # 8-byte Spill
	jmp	.LBB6_81
.LBB6_12:
.Ltmp5:
	movl	%edx, %ecx
	leaq	-96(%rbp), %rdi
	movl	%ecx, -1380(%rbp)       # 4-byte Spill
	movq	%rax, -1392(%rbp)       # 8-byte Spill
	callq	_ZNSaIcED1Ev
	movl	-1380(%rbp), %ecx       # 4-byte Reload
	movq	-1392(%rbp), %rax       # 8-byte Reload
	movl	%ecx, -1396(%rbp)       # 4-byte Spill
	movq	%rax, -1408(%rbp)       # 8-byte Spill
	jmp	.LBB6_80
.LBB6_13:
.Ltmp8:
	movl	%edx, %ecx
	movl	%ecx, -1412(%rbp)       # 4-byte Spill
	movq	%rax, -1424(%rbp)       # 8-byte Spill
	jmp	.LBB6_79
.LBB6_14:
.Ltmp15:
	movl	%edx, %ecx
	movl	%ecx, -1428(%rbp)       # 4-byte Spill
	movq	%rax, -1440(%rbp)       # 8-byte Spill
	jmp	.LBB6_78
.LBB6_15:                               # %.loopexit
.Ltmp48:
	movl	%edx, %ecx
	movq	%rax, -1448(%rbp)       # 8-byte Spill
	movl	%ecx, -1452(%rbp)       # 4-byte Spill
	jmp	.LBB6_19
.LBB6_16:                               # %.loopexit.split-lp.loopexit
.Ltmp85:
	movl	%edx, %ecx
	movq	%rax, -1464(%rbp)       # 8-byte Spill
	movl	%ecx, -1468(%rbp)       # 4-byte Spill
	jmp	.LBB6_18
.LBB6_17:                               # %.loopexit.split-lp.loopexit.split-lp
.Ltmp90:
	movl	%edx, %ecx
	movq	%rax, -1464(%rbp)       # 8-byte Spill
	movl	%ecx, -1468(%rbp)       # 4-byte Spill
	jmp	.LBB6_18
.LBB6_18:                               # %.loopexit.split-lp
	movl	-1468(%rbp), %eax       # 4-byte Reload
	movq	-1464(%rbp), %rcx       # 8-byte Reload
	movq	%rcx, -1448(%rbp)       # 8-byte Spill
	movl	%eax, -1452(%rbp)       # 4-byte Spill
	jmp	.LBB6_19
.LBB6_19:
	movl	-1452(%rbp), %eax       # 4-byte Reload
	movq	-1448(%rbp), %rcx       # 8-byte Reload
	leaq	-1128(%rbp), %rdi
	movl	%eax, -1472(%rbp)       # 4-byte Spill
	movq	%rcx, -1480(%rbp)       # 8-byte Spill
	callq	_ZNSt14basic_ifstreamIcSt11char_traitsIcEED1Ev
	movl	-1472(%rbp), %eax       # 4-byte Reload
	movq	-1480(%rbp), %rcx       # 8-byte Reload
	movl	%eax, -1428(%rbp)       # 4-byte Spill
	movq	%rcx, -1440(%rbp)       # 8-byte Spill
	jmp	.LBB6_78
.LBB6_20:
	xorl	%eax, %eax
	movl	%eax, -1484(%rbp)       # 4-byte Spill
	jmp	.LBB6_21
.LBB6_21:                               # =>This Loop Header: Depth=1
                                        #     Child Loop BB6_41 Depth 2
	movl	-1484(%rbp), %eax       # 4-byte Reload
	cmpl	-12(%rbp), %eax
	movl	%eax, -1488(%rbp)       # 4-byte Spill
	jge	.LBB6_46
# %bb.22:                               #   in Loop: Header=BB6_21 Depth=1
.Ltmp49:
	leaq	-1128(%rbp), %rdi
	leaq	-1200(%rbp), %rsi
	callq	_ZNSirsERf
.Ltmp50:
	movq	%rax, -1496(%rbp)       # 8-byte Spill
	jmp	.LBB6_23
.LBB6_23:                               #   in Loop: Header=BB6_21 Depth=1
	leaq	-1196(%rbp), %rsi
.Ltmp51:
	movq	-1496(%rbp), %rdi       # 8-byte Reload
	callq	_ZNSirsERf
.Ltmp52:
	movq	%rax, -1504(%rbp)       # 8-byte Spill
	jmp	.LBB6_24
.LBB6_24:                               #   in Loop: Header=BB6_21 Depth=1
	leaq	-1192(%rbp), %rsi
.Ltmp53:
	movq	-1504(%rbp), %rdi       # 8-byte Reload
	callq	_ZNSirsERf
.Ltmp54:
	movq	%rax, -1512(%rbp)       # 8-byte Spill
	jmp	.LBB6_25
.LBB6_25:                               #   in Loop: Header=BB6_21 Depth=1
	leaq	-1188(%rbp), %rsi
.Ltmp55:
	movq	-1512(%rbp), %rdi       # 8-byte Reload
	callq	_ZNSirsERf
.Ltmp56:
	movq	%rax, -1520(%rbp)       # 8-byte Spill
	jmp	.LBB6_26
.LBB6_26:                               #   in Loop: Header=BB6_21 Depth=1
	leaq	-1184(%rbp), %rsi
.Ltmp57:
	movq	-1520(%rbp), %rdi       # 8-byte Reload
	callq	_ZNSirsERf
.Ltmp58:
	movq	%rax, -1528(%rbp)       # 8-byte Spill
	jmp	.LBB6_27
.LBB6_27:                               #   in Loop: Header=BB6_21 Depth=1
	leaq	-1180(%rbp), %rsi
.Ltmp59:
	movq	-1528(%rbp), %rdi       # 8-byte Reload
	callq	_ZNSirsERf
.Ltmp60:
	movq	%rax, -1536(%rbp)       # 8-byte Spill
	jmp	.LBB6_28
.LBB6_28:                               #   in Loop: Header=BB6_21 Depth=1
	leaq	-1176(%rbp), %rsi
.Ltmp61:
	movq	-1536(%rbp), %rdi       # 8-byte Reload
	callq	_ZNSirsERf
.Ltmp62:
	movq	%rax, -1544(%rbp)       # 8-byte Spill
	jmp	.LBB6_29
.LBB6_29:                               #   in Loop: Header=BB6_21 Depth=1
	leaq	-1172(%rbp), %rsi
.Ltmp63:
	movq	-1544(%rbp), %rdi       # 8-byte Reload
	callq	_ZNSirsERf
.Ltmp64:
	movq	%rax, -1552(%rbp)       # 8-byte Spill
	jmp	.LBB6_30
.LBB6_30:                               #   in Loop: Header=BB6_21 Depth=1
	leaq	-1168(%rbp), %rsi
.Ltmp65:
	movq	-1552(%rbp), %rdi       # 8-byte Reload
	callq	_ZNSirsERf
.Ltmp66:
	movq	%rax, -1560(%rbp)       # 8-byte Spill
	jmp	.LBB6_31
.LBB6_31:                               #   in Loop: Header=BB6_21 Depth=1
	leaq	-1164(%rbp), %rsi
.Ltmp67:
	movq	-1560(%rbp), %rdi       # 8-byte Reload
	callq	_ZNSirsERf
.Ltmp68:
	movq	%rax, -1568(%rbp)       # 8-byte Spill
	jmp	.LBB6_32
.LBB6_32:                               #   in Loop: Header=BB6_21 Depth=1
	leaq	-1160(%rbp), %rsi
.Ltmp69:
	movq	-1568(%rbp), %rdi       # 8-byte Reload
	callq	_ZNSirsERf
.Ltmp70:
	movq	%rax, -1576(%rbp)       # 8-byte Spill
	jmp	.LBB6_33
.LBB6_33:                               #   in Loop: Header=BB6_21 Depth=1
	leaq	-1156(%rbp), %rsi
.Ltmp71:
	movq	-1576(%rbp), %rdi       # 8-byte Reload
	callq	_ZNSirsERf
.Ltmp72:
	movq	%rax, -1584(%rbp)       # 8-byte Spill
	jmp	.LBB6_34
.LBB6_34:                               #   in Loop: Header=BB6_21 Depth=1
	leaq	-1152(%rbp), %rsi
.Ltmp73:
	movq	-1584(%rbp), %rdi       # 8-byte Reload
	callq	_ZNSirsERf
.Ltmp74:
	movq	%rax, -1592(%rbp)       # 8-byte Spill
	jmp	.LBB6_35
.LBB6_35:                               #   in Loop: Header=BB6_21 Depth=1
	leaq	-1148(%rbp), %rsi
.Ltmp75:
	movq	-1592(%rbp), %rdi       # 8-byte Reload
	callq	_ZNSirsERf
.Ltmp76:
	movq	%rax, -1600(%rbp)       # 8-byte Spill
	jmp	.LBB6_36
.LBB6_36:                               #   in Loop: Header=BB6_21 Depth=1
	leaq	-1144(%rbp), %rsi
.Ltmp77:
	movq	-1600(%rbp), %rdi       # 8-byte Reload
	callq	_ZNSirsERf
.Ltmp78:
	movq	%rax, -1608(%rbp)       # 8-byte Spill
	jmp	.LBB6_37
.LBB6_37:                               #   in Loop: Header=BB6_21 Depth=1
	leaq	-1140(%rbp), %rsi
.Ltmp79:
	movq	-1608(%rbp), %rdi       # 8-byte Reload
	callq	_ZNSirsERf
.Ltmp80:
	movq	%rax, -1616(%rbp)       # 8-byte Spill
	jmp	.LBB6_38
.LBB6_38:                               #   in Loop: Header=BB6_21 Depth=1
	leaq	-1136(%rbp), %rsi
.Ltmp81:
	movq	-1616(%rbp), %rdi       # 8-byte Reload
	callq	_ZNSirsERf
.Ltmp82:
	movq	%rax, -1624(%rbp)       # 8-byte Spill
	jmp	.LBB6_39
.LBB6_39:                               #   in Loop: Header=BB6_21 Depth=1
	leaq	-1132(%rbp), %rsi
.Ltmp83:
	movq	-1624(%rbp), %rdi       # 8-byte Reload
	callq	_ZNSirsERf
.Ltmp84:
	movq	%rax, -1632(%rbp)       # 8-byte Spill
	jmp	.LBB6_40
.LBB6_40:                               #   in Loop: Header=BB6_21 Depth=1
	xorl	%eax, %eax
	movl	%eax, -1636(%rbp)       # 4-byte Spill
	jmp	.LBB6_41
.LBB6_41:                               #   Parent Loop BB6_21 Depth=1
                                        # =>  This Inner Loop Header: Depth=2
	movl	-1636(%rbp), %eax       # 4-byte Reload
	#APP
	# LLVM-MCA-BEGIN
	#NO_APP
	cmpl	$18, %eax
	movb	$1, %cl
                                        # implicit-def: $edx
	movl	%eax, -1640(%rbp)       # 4-byte Spill
	movl	%edx, -1644(%rbp)       # 4-byte Spill
	movb	%cl, -1645(%rbp)        # 1-byte Spill
	jge	.LBB6_43
# %bb.42:                               #   in Loop: Header=BB6_41 Depth=2
	movl	-1640(%rbp), %eax       # 4-byte Reload
	movslq	%eax, %rcx
	movss	-1200(%rbp,%rcx,4), %xmm0 # xmm0 = mem[0],zero,zero,zero
	movss	.LCPI6_3(%rip), %xmm1   # xmm1 = mem[0],zero,zero,zero
	mulss	%xmm1, %xmm0
	cvttss2si	%xmm0, %rcx
	movl	%ecx, %edx
	movl	-1488(%rbp), %esi       # 4-byte Reload
	imull	$18, %esi, %edi
	addl	%eax, %edi
	movslq	%edi, %rcx
	movq	-1336(%rbp), %r8        # 8-byte Reload
	movl	%edx, (%r8,%rcx,4)
	jmp	.LBB6_44
.LBB6_43:                               # %Flow1
                                        #   in Loop: Header=BB6_41 Depth=2
	movb	-1645(%rbp), %al        # 1-byte Reload
	movl	-1644(%rbp), %ecx       # 4-byte Reload
	testb	$1, %al
	movl	%ecx, -1636(%rbp)       # 4-byte Spill
	jne	.LBB6_45
	jmp	.LBB6_41
.LBB6_44:                               #   in Loop: Header=BB6_41 Depth=2
	xorl	%eax, %eax
	movb	%al, %cl
	movl	-1640(%rbp), %eax       # 4-byte Reload
	addl	$1, %eax
	movl	%eax, -1644(%rbp)       # 4-byte Spill
	movb	%cl, -1645(%rbp)        # 1-byte Spill
	jmp	.LBB6_43
.LBB6_45:                               #   in Loop: Header=BB6_21 Depth=1
	#APP
	# LLVM-MCA-END
	#NO_APP
	movl	-1488(%rbp), %eax       # 4-byte Reload
	addl	$1, %eax
	movl	%eax, -1484(%rbp)       # 4-byte Spill
	jmp	.LBB6_21
.LBB6_46:
	xorps	%xmm0, %xmm0
	movaps	%xmm0, -1232(%rbp)
	movq	$0, -1216(%rbp)
.Ltmp18:
	leaq	-1248(%rbp), %rdi
	callq	_ZN12AxBenchTimerC2Ev
.Ltmp19:
	jmp	.LBB6_47
.LBB6_47:
	xorl	%eax, %eax
	xorl	%ecx, %ecx
	movl	%ecx, %edx
	movl	%eax, -1652(%rbp)       # 4-byte Spill
	movq	%rdx, -1664(%rbp)       # 8-byte Spill
	jmp	.LBB6_48
.LBB6_48:                               # =>This Inner Loop Header: Depth=1
	movq	-1664(%rbp), %rax       # 8-byte Reload
	movl	-1652(%rbp), %ecx       # 4-byte Reload
	imull	$6, -12(%rbp), %edx
	imull	$3, %edx, %edx
	cmpl	%edx, %ecx
	movq	%rax, -1672(%rbp)       # 8-byte Spill
	movl	%ecx, -1676(%rbp)       # 4-byte Spill
	jge	.LBB6_61
# %bb.49:                               #   in Loop: Header=BB6_48 Depth=1
	movl	$-1, -1260(%rbp)
	movl	-1676(%rbp), %eax       # 4-byte Reload
	movslq	%eax, %rcx
	movq	-1336(%rbp), %rdx       # 8-byte Reload
	leaq	(%rdx,%rcx,4), %rdi
	leaq	12(%rdx,%rcx,4), %rsi
	leaq	24(%rdx,%rcx,4), %rdx
	movq	-1336(%rbp), %r8        # 8-byte Reload
	leaq	36(%r8,%rcx,4), %r9
	leaq	48(%r8,%rcx,4), %r8
	movq	-1336(%rbp), %r10       # 8-byte Reload
	leaq	60(%r10,%rcx,4), %rcx
.Ltmp34:
	movq	%rsp, %r11
	leaq	-1260(%rbp), %rbx
	movq	%rbx, 8(%r11)
	leaq	-1256(%rbp), %rbx
	movq	%rbx, (%r11)
	movq	%rcx, -1688(%rbp)       # 8-byte Spill
	movq	%r9, %rcx
	movq	-1688(%rbp), %r9        # 8-byte Reload
	callq	_Z17tri_tri_intersectPfS_S_S_S_S_S_Pi.3_fixp
.Ltmp35:
	movl	%eax, -1692(%rbp)       # 4-byte Spill
	jmp	.LBB6_50
.LBB6_50:                               #   in Loop: Header=BB6_48 Depth=1
.Ltmp36:
	leaq	-1248(%rbp), %rdi
	callq	_ZN12AxBenchTimer20nanosecondsSinceInitEv
.Ltmp37:
	movq	%rax, -1704(%rbp)       # 8-byte Spill
	jmp	.LBB6_51
.LBB6_51:                               #   in Loop: Header=BB6_48 Depth=1
	movq	-1672(%rbp), %rax       # 8-byte Reload
	movq	-1704(%rbp), %rcx       # 8-byte Reload
	addq	%rcx, %rax
	movslq	-1260(%rbp), %rdx
	movl	-1232(%rbp,%rdx,4), %esi
	addl	$1, %esi
	movl	%esi, -1232(%rbp,%rdx,4)
	movq	%rax, -1712(%rbp)       # 8-byte Spill
# %bb.52:                               #   in Loop: Header=BB6_48 Depth=1
	jmp	.LBB6_53
.LBB6_53:                               #   in Loop: Header=BB6_48 Depth=1
	jmp	.LBB6_54
.LBB6_54:                               #   in Loop: Header=BB6_48 Depth=1
.Ltmp38:
	leaq	-608(%rbp), %rdi
	movl	-1692(%rbp), %esi       # 4-byte Reload
	callq	_ZNSolsEi
.Ltmp39:
	movq	%rax, -1720(%rbp)       # 8-byte Spill
	jmp	.LBB6_55
.LBB6_55:                               #   in Loop: Header=BB6_48 Depth=1
.Ltmp40:
	movl	$.L.str.5.20, %esi
	movq	-1720(%rbp), %rdi       # 8-byte Reload
	callq	_ZStlsISt11char_traitsIcEERSt13basic_ostreamIcT_ES5_PKc
.Ltmp41:
	movq	%rax, -1728(%rbp)       # 8-byte Spill
	jmp	.LBB6_56
.LBB6_56:                               #   in Loop: Header=BB6_48 Depth=1
	movl	-1260(%rbp), %esi
.Ltmp42:
	movq	-1728(%rbp), %rdi       # 8-byte Reload
	callq	_ZNSolsEi
.Ltmp43:
	movq	%rax, -1736(%rbp)       # 8-byte Spill
	jmp	.LBB6_57
.LBB6_57:                               #   in Loop: Header=BB6_48 Depth=1
.Ltmp44:
	movl	$_ZSt4endlIcSt11char_traitsIcEERSt13basic_ostreamIT_T0_ES6_, %esi
	movq	-1736(%rbp), %rdi       # 8-byte Reload
	callq	_ZNSolsEPFRSoS_E
.Ltmp45:
	movq	%rax, -1744(%rbp)       # 8-byte Spill
	jmp	.LBB6_58
.LBB6_58:                               #   in Loop: Header=BB6_48 Depth=1
.Ltmp46:
	leaq	-1248(%rbp), %rdi
	callq	_ZN12AxBenchTimer5resetEv
.Ltmp47:
	jmp	.LBB6_59
.LBB6_59:                               #   in Loop: Header=BB6_48 Depth=1
	jmp	.LBB6_60
.LBB6_60:                               #   in Loop: Header=BB6_48 Depth=1
	movl	-1676(%rbp), %eax       # 4-byte Reload
	addl	$18, %eax
	movq	-1712(%rbp), %rcx       # 8-byte Reload
	movl	%eax, -1652(%rbp)       # 4-byte Spill
	movq	%rcx, -1664(%rbp)       # 8-byte Spill
	jmp	.LBB6_48
.LBB6_61:
.Ltmp20:
	leaq	-1248(%rbp), %rdi
	callq	_ZN12AxBenchTimer20nanosecondsSinceInitEv
.Ltmp21:
	movq	%rax, -1752(%rbp)       # 8-byte Spill
	jmp	.LBB6_62
.LBB6_62:
	xorl	%eax, %eax
	movq	-1672(%rbp), %rcx       # 8-byte Reload
	movq	-1752(%rbp), %rdx       # 8-byte Reload
	addq	%rdx, %rcx
	movq	%rcx, -1760(%rbp)       # 8-byte Spill
	movl	%eax, -1764(%rbp)       # 4-byte Spill
.LBB6_63:                               # =>This Inner Loop Header: Depth=1
	movl	-1764(%rbp), %eax       # 4-byte Reload
	#APP
	# LLVM-MCA-BEGIN
	#NO_APP
	cmpl	$6, %eax
	movb	$1, %cl
                                        # implicit-def: $edx
	movl	%eax, -1768(%rbp)       # 4-byte Spill
	movl	%edx, -1772(%rbp)       # 4-byte Spill
	movb	%cl, -1773(%rbp)        # 1-byte Spill
	jge	.LBB6_65
# %bb.64:                               #   in Loop: Header=BB6_63 Depth=1
	jmp	.LBB6_66
.LBB6_65:                               # %Flow
                                        #   in Loop: Header=BB6_63 Depth=1
	movb	-1773(%rbp), %al        # 1-byte Reload
	movl	-1772(%rbp), %ecx       # 4-byte Reload
	testb	$1, %al
	movl	%ecx, -1764(%rbp)       # 4-byte Spill
	jne	.LBB6_70
	jmp	.LBB6_63
.LBB6_66:                               #   in Loop: Header=BB6_63 Depth=1
	jmp	.LBB6_67
.LBB6_67:                               #   in Loop: Header=BB6_63 Depth=1
	jmp	.LBB6_68
.LBB6_68:                               #   in Loop: Header=BB6_63 Depth=1
	jmp	.LBB6_69
.LBB6_69:                               #   in Loop: Header=BB6_63 Depth=1
	xorl	%eax, %eax
	movb	%al, %cl
	movl	-1768(%rbp), %eax       # 4-byte Reload
	addl	$1, %eax
	movl	%eax, -1772(%rbp)       # 4-byte Spill
	movb	%cl, -1773(%rbp)        # 1-byte Spill
	jmp	.LBB6_65
.LBB6_70:
	#APP
	# LLVM-MCA-END
	#NO_APP
.Ltmp22:
	movl	$_ZSt4cout, %edi
	movl	$.L.str.6.21, %esi
	callq	_ZStlsISt11char_traitsIcEERSt13basic_ostreamIcT_ES5_PKc
.Ltmp23:
	movq	%rax, -1784(%rbp)       # 8-byte Spill
	jmp	.LBB6_71
.LBB6_71:
	movq	-1760(%rbp), %rax       # 8-byte Reload
	movq	%rax, %xmm0
	movaps	.LCPI6_0(%rip), %xmm1   # xmm1 = [1127219200,1160773632,0,0]
	punpckldq	%xmm1, %xmm0    # xmm0 = xmm0[0],xmm1[0],xmm0[1],xmm1[1]
	movapd	.LCPI6_1(%rip), %xmm1   # xmm1 = [4.503599627370496E+15,1.9342813113834067E+25]
	subpd	%xmm1, %xmm0
	movaps	%xmm0, %xmm1
	unpckhpd	%xmm1, %xmm1    # xmm1 = xmm1[1,1]
	addpd	%xmm0, %xmm1
	movsd	.LCPI6_2(%rip), %xmm0   # xmm0 = mem[0],zero
	divsd	%xmm0, %xmm1
.Ltmp24:
	movq	-1784(%rbp), %rdi       # 8-byte Reload
	movaps	%xmm1, %xmm0
	callq	_ZNSolsEd
.Ltmp25:
	movq	%rax, -1792(%rbp)       # 8-byte Spill
	jmp	.LBB6_72
.LBB6_72:
.Ltmp26:
	movl	$.L.str.7.22, %esi
	movq	-1792(%rbp), %rdi       # 8-byte Reload
	callq	_ZStlsISt11char_traitsIcEERSt13basic_ostreamIcT_ES5_PKc
.Ltmp27:
	movq	%rax, -1800(%rbp)       # 8-byte Spill
	jmp	.LBB6_73
.LBB6_73:
.Ltmp28:
	movl	$_ZSt4endlIcSt11char_traitsIcEERSt13basic_ostreamIT_T0_ES6_, %esi
	movq	-1800(%rbp), %rdi       # 8-byte Reload
	callq	_ZNSolsEPFRSoS_E
.Ltmp29:
	movq	%rax, -1808(%rbp)       # 8-byte Spill
	jmp	.LBB6_74
.LBB6_74:
.Ltmp30:
	leaq	-608(%rbp), %rdi
	callq	_ZNSt14basic_ofstreamIcSt11char_traitsIcEE5closeEv
.Ltmp31:
	jmp	.LBB6_75
.LBB6_75:
.Ltmp32:
	leaq	-1128(%rbp), %rdi
	callq	_ZNSt14basic_ifstreamIcSt11char_traitsIcEE5closeEv
.Ltmp33:
	jmp	.LBB6_76
.LBB6_76:
	movq	-1336(%rbp), %rax       # 8-byte Reload
	movq	%rax, %rdi
	callq	free
	xorl	%ecx, %ecx
	movl	%ecx, -1356(%rbp)       # 4-byte Spill
.LBB6_77:
	movl	-1356(%rbp), %eax       # 4-byte Reload
	leaq	-1128(%rbp), %rdi
	movl	%eax, -1812(%rbp)       # 4-byte Spill
	callq	_ZNSt14basic_ifstreamIcSt11char_traitsIcEED1Ev
	leaq	-608(%rbp), %rdi
	callq	_ZNSt14basic_ofstreamIcSt11char_traitsIcEED1Ev
	leaq	-88(%rbp), %rdi
	callq	_ZNSt7__cxx1112basic_stringIcSt11char_traitsIcESaIcEED1Ev
	leaq	-48(%rbp), %rdi
	callq	_ZNSt7__cxx1112basic_stringIcSt11char_traitsIcESaIcEED1Ev
	movl	-1812(%rbp), %eax       # 4-byte Reload
	addq	$1880, %rsp             # imm = 0x758
	popq	%rbx
	popq	%rbp
	.cfi_def_cfa %rsp, 8
	retq
.LBB6_78:
	.cfi_def_cfa %rbp, 16
	movq	-1440(%rbp), %rax       # 8-byte Reload
	movl	-1428(%rbp), %ecx       # 4-byte Reload
	leaq	-608(%rbp), %rdi
	movq	%rax, -1824(%rbp)       # 8-byte Spill
	movl	%ecx, -1828(%rbp)       # 4-byte Spill
	callq	_ZNSt14basic_ofstreamIcSt11char_traitsIcEED1Ev
	movl	-1828(%rbp), %ecx       # 4-byte Reload
	movq	-1824(%rbp), %rax       # 8-byte Reload
	movl	%ecx, -1412(%rbp)       # 4-byte Spill
	movq	%rax, -1424(%rbp)       # 8-byte Spill
.LBB6_79:
	movq	-1424(%rbp), %rax       # 8-byte Reload
	movl	-1412(%rbp), %ecx       # 4-byte Reload
	leaq	-88(%rbp), %rdi
	movq	%rax, -1840(%rbp)       # 8-byte Spill
	movl	%ecx, -1844(%rbp)       # 4-byte Spill
	callq	_ZNSt7__cxx1112basic_stringIcSt11char_traitsIcESaIcEED1Ev
	movl	-1844(%rbp), %ecx       # 4-byte Reload
	movq	-1840(%rbp), %rax       # 8-byte Reload
	movl	%ecx, -1396(%rbp)       # 4-byte Spill
	movq	%rax, -1408(%rbp)       # 8-byte Spill
.LBB6_80:
	movq	-1408(%rbp), %rax       # 8-byte Reload
	movl	-1396(%rbp), %ecx       # 4-byte Reload
	leaq	-48(%rbp), %rdi
	movq	%rax, -1856(%rbp)       # 8-byte Spill
	movl	%ecx, -1860(%rbp)       # 4-byte Spill
	callq	_ZNSt7__cxx1112basic_stringIcSt11char_traitsIcESaIcEED1Ev
	movq	-1856(%rbp), %rax       # 8-byte Reload
	movq	%rax, -1376(%rbp)       # 8-byte Spill
.LBB6_81:
	movq	-1376(%rbp), %rax       # 8-byte Reload
	movq	%rax, %rdi
	callq	_Unwind_Resume
.Lfunc_end6:
	.size	main, .Lfunc_end6-main
	.cfi_endproc
	.section	.gcc_except_table,"a",@progbits
	.p2align	2
GCC_except_table6:
.Lexception0:
	.byte	255                     # @LPStart Encoding = omit
	.byte	255                     # @TType Encoding = omit
	.byte	1                       # Call site Encoding = uleb128
	.uleb128 .Lcst_end0-.Lcst_begin0
.Lcst_begin0:
	.uleb128 .Ltmp0-.Lfunc_begin0   # >> Call Site 1 <<
	.uleb128 .Ltmp1-.Ltmp0          #   Call between .Ltmp0 and .Ltmp1
	.uleb128 .Ltmp2-.Lfunc_begin0   #     jumps to .Ltmp2
	.byte	0                       #   On action: cleanup
	.uleb128 .Ltmp3-.Lfunc_begin0   # >> Call Site 2 <<
	.uleb128 .Ltmp4-.Ltmp3          #   Call between .Ltmp3 and .Ltmp4
	.uleb128 .Ltmp5-.Lfunc_begin0   #     jumps to .Ltmp5
	.byte	0                       #   On action: cleanup
	.uleb128 .Ltmp6-.Lfunc_begin0   # >> Call Site 3 <<
	.uleb128 .Ltmp7-.Ltmp6          #   Call between .Ltmp6 and .Ltmp7
	.uleb128 .Ltmp8-.Lfunc_begin0   #     jumps to .Ltmp8
	.byte	0                       #   On action: cleanup
	.uleb128 .Ltmp9-.Lfunc_begin0   # >> Call Site 4 <<
	.uleb128 .Ltmp14-.Ltmp9         #   Call between .Ltmp9 and .Ltmp14
	.uleb128 .Ltmp15-.Lfunc_begin0  #     jumps to .Ltmp15
	.byte	0                       #   On action: cleanup
	.uleb128 .Ltmp16-.Lfunc_begin0  # >> Call Site 5 <<
	.uleb128 .Ltmp89-.Ltmp16        #   Call between .Ltmp16 and .Ltmp89
	.uleb128 .Ltmp90-.Lfunc_begin0  #     jumps to .Ltmp90
	.byte	0                       #   On action: cleanup
	.uleb128 .Ltmp49-.Lfunc_begin0  # >> Call Site 6 <<
	.uleb128 .Ltmp84-.Ltmp49        #   Call between .Ltmp49 and .Ltmp84
	.uleb128 .Ltmp85-.Lfunc_begin0  #     jumps to .Ltmp85
	.byte	0                       #   On action: cleanup
	.uleb128 .Ltmp18-.Lfunc_begin0  # >> Call Site 7 <<
	.uleb128 .Ltmp19-.Ltmp18        #   Call between .Ltmp18 and .Ltmp19
	.uleb128 .Ltmp90-.Lfunc_begin0  #     jumps to .Ltmp90
	.byte	0                       #   On action: cleanup
	.uleb128 .Ltmp34-.Lfunc_begin0  # >> Call Site 8 <<
	.uleb128 .Ltmp47-.Ltmp34        #   Call between .Ltmp34 and .Ltmp47
	.uleb128 .Ltmp48-.Lfunc_begin0  #     jumps to .Ltmp48
	.byte	0                       #   On action: cleanup
	.uleb128 .Ltmp20-.Lfunc_begin0  # >> Call Site 9 <<
	.uleb128 .Ltmp33-.Ltmp20        #   Call between .Ltmp20 and .Ltmp33
	.uleb128 .Ltmp90-.Lfunc_begin0  #     jumps to .Ltmp90
	.byte	0                       #   On action: cleanup
	.uleb128 .Ltmp33-.Lfunc_begin0  # >> Call Site 10 <<
	.uleb128 .Lfunc_end6-.Ltmp33    #   Call between .Ltmp33 and .Lfunc_end6
	.byte	0                       #     has no landing pad
	.byte	0                       #   On action: cleanup
.Lcst_end0:
	.p2align	2
                                        # -- End function
	.section	.text._ZNSt8ios_base9precisionEl,"axG",@progbits,_ZNSt8ios_base9precisionEl,comdat
	.weak	_ZNSt8ios_base9precisionEl # -- Begin function _ZNSt8ios_base9precisionEl
	.p2align	4, 0x90
	.type	_ZNSt8ios_base9precisionEl,@function
_ZNSt8ios_base9precisionEl:             # @_ZNSt8ios_base9precisionEl
	.cfi_startproc
# %bb.0:
	pushq	%rbp
	.cfi_def_cfa_offset 16
	.cfi_offset %rbp, -16
	movq	%rsp, %rbp
	.cfi_def_cfa_register %rbp
	movq	8(%rdi), %rax
	movq	%rsi, 8(%rdi)
	popq	%rbp
	.cfi_def_cfa %rsp, 8
	retq
.Lfunc_end7:
	.size	_ZNSt8ios_base9precisionEl, .Lfunc_end7-_ZNSt8ios_base9precisionEl
	.cfi_endproc
                                        # -- End function
	.section	.text._ZN12AxBenchTimerC2Ev,"axG",@progbits,_ZN12AxBenchTimerC2Ev,comdat
	.weak	_ZN12AxBenchTimerC2Ev   # -- Begin function _ZN12AxBenchTimerC2Ev
	.p2align	4, 0x90
	.type	_ZN12AxBenchTimerC2Ev,@function
_ZN12AxBenchTimerC2Ev:                  # @_ZN12AxBenchTimerC2Ev
	.cfi_startproc
# %bb.0:
	pushq	%rbp
	.cfi_def_cfa_offset 16
	.cfi_offset %rbp, -16
	movq	%rsp, %rbp
	.cfi_def_cfa_register %rbp
	callq	_ZN12AxBenchTimer5resetEv
	popq	%rbp
	.cfi_def_cfa %rsp, 8
	retq
.Lfunc_end8:
	.size	_ZN12AxBenchTimerC2Ev, .Lfunc_end8-_ZN12AxBenchTimerC2Ev
	.cfi_endproc
                                        # -- End function
	.section	.text._ZN12AxBenchTimer20nanosecondsSinceInitEv,"axG",@progbits,_ZN12AxBenchTimer20nanosecondsSinceInitEv,comdat
	.weak	_ZN12AxBenchTimer20nanosecondsSinceInitEv # -- Begin function _ZN12AxBenchTimer20nanosecondsSinceInitEv
	.p2align	4, 0x90
	.type	_ZN12AxBenchTimer20nanosecondsSinceInitEv,@function
_ZN12AxBenchTimer20nanosecondsSinceInitEv: # @_ZN12AxBenchTimer20nanosecondsSinceInitEv
	.cfi_startproc
# %bb.0:
	pushq	%rbp
	.cfi_def_cfa_offset 16
	.cfi_offset %rbp, -16
	movq	%rsp, %rbp
	.cfi_def_cfa_register %rbp
	subq	$32, %rsp
	movl	$4, %eax
	movq	%rdi, -24(%rbp)         # 8-byte Spill
	movl	%eax, %edi
	leaq	-16(%rbp), %rsi
	callq	clock_gettime
	movq	-24(%rbp), %rsi         # 8-byte Reload
	movq	8(%rsi), %rcx
	imulq	$1000000000, (%rsi), %rdx # imm = 0x3B9ACA00
	addq	%rdx, %rcx
	movq	-8(%rbp), %rdx
	imulq	$1000000000, -16(%rbp), %r8 # imm = 0x3B9ACA00
	addq	%r8, %rdx
	subq	%rcx, %rdx
	movl	%eax, -28(%rbp)         # 4-byte Spill
	movq	%rdx, %rax
	addq	$32, %rsp
	popq	%rbp
	.cfi_def_cfa %rsp, 8
	retq
.Lfunc_end9:
	.size	_ZN12AxBenchTimer20nanosecondsSinceInitEv, .Lfunc_end9-_ZN12AxBenchTimer20nanosecondsSinceInitEv
	.cfi_endproc
                                        # -- End function
	.section	.text._ZN12AxBenchTimer5resetEv,"axG",@progbits,_ZN12AxBenchTimer5resetEv,comdat
	.weak	_ZN12AxBenchTimer5resetEv # -- Begin function _ZN12AxBenchTimer5resetEv
	.p2align	4, 0x90
	.type	_ZN12AxBenchTimer5resetEv,@function
_ZN12AxBenchTimer5resetEv:              # @_ZN12AxBenchTimer5resetEv
	.cfi_startproc
# %bb.0:
	pushq	%rbp
	.cfi_def_cfa_offset 16
	.cfi_offset %rbp, -16
	movq	%rsp, %rbp
	.cfi_def_cfa_register %rbp
	subq	$16, %rsp
	movl	$4, %eax
	movq	%rdi, -8(%rbp)          # 8-byte Spill
	movl	%eax, %edi
	movq	-8(%rbp), %rsi          # 8-byte Reload
	callq	clock_gettime
	movl	%eax, -12(%rbp)         # 4-byte Spill
	addq	$16, %rsp
	popq	%rbp
	.cfi_def_cfa %rsp, 8
	retq
.Lfunc_end10:
	.size	_ZN12AxBenchTimer5resetEv, .Lfunc_end10-_ZN12AxBenchTimer5resetEv
	.cfi_endproc
                                        # -- End function
	.section	.rodata.cst16,"aM",@progbits,16
	.p2align	4               # -- Begin function _Z16coplanar_tri_triPfS_S_S_S_S_S_.1
.LCPI11_0:
	.quad	9223372036854775807     # double NaN
	.quad	9223372036854775807     # double NaN
	.text
	.p2align	4, 0x90
	.type	_Z16coplanar_tri_triPfS_S_S_S_S_S_.1,@function
_Z16coplanar_tri_triPfS_S_S_S_S_S_.1:   # @_Z16coplanar_tri_triPfS_S_S_S_S_S_.1
	.cfi_startproc
# %bb.0:
	pushq	%rbp
	.cfi_def_cfa_offset 16
	.cfi_offset %rbp, -16
	movq	%rsp, %rbp
	.cfi_def_cfa_register %rbp
	subq	$608, %rsp              # imm = 0x260
	movq	16(%rbp), %rax
	movss	(%rdi), %xmm0           # xmm0 = mem[0],zero,zero,zero
	cvtss2sd	%xmm0, %xmm0
	movaps	.LCPI11_0(%rip), %xmm1  # xmm1 = [NaN,NaN]
	pand	%xmm1, %xmm0
	cvtsd2ss	%xmm0, %xmm0
	movss	%xmm0, -12(%rbp)
	movss	4(%rdi), %xmm0          # xmm0 = mem[0],zero,zero,zero
	cvtss2sd	%xmm0, %xmm0
	movaps	.LCPI11_0(%rip), %xmm1  # xmm1 = [NaN,NaN]
	pand	%xmm1, %xmm0
	cvtsd2ss	%xmm0, %xmm0
	movss	%xmm0, -8(%rbp)
	movss	8(%rdi), %xmm0          # xmm0 = mem[0],zero,zero,zero
	cvtss2sd	%xmm0, %xmm0
	movaps	.LCPI11_0(%rip), %xmm1  # xmm1 = [NaN,NaN]
	pand	%xmm1, %xmm0
	cvtsd2ss	%xmm0, %xmm0
	movss	%xmm0, -4(%rbp)
	movss	-12(%rbp), %xmm0        # xmm0 = mem[0],zero,zero,zero
	ucomiss	-8(%rbp), %xmm0
	seta	%r10b
	xorb	$-1, %r10b
	testb	$1, %r10b
	movb	$1, %r10b
                                        # implicit-def: $r11w
	movq	%rax, -24(%rbp)         # 8-byte Spill
	movq	%r9, -32(%rbp)          # 8-byte Spill
	movq	%r8, -40(%rbp)          # 8-byte Spill
	movq	%rcx, -48(%rbp)         # 8-byte Spill
	movq	%rdx, -56(%rbp)         # 8-byte Spill
	movq	%rsi, -64(%rbp)         # 8-byte Spill
	movw	%r11w, -66(%rbp)        # 2-byte Spill
	movb	%r10b, -67(%rbp)        # 1-byte Spill
	jne	.LBB11_7
	jmp	.LBB11_11
.LBB11_1:
	movss	-12(%rbp), %xmm0        # xmm0 = mem[0],zero,zero,zero
	ucomiss	-4(%rbp), %xmm0
	seta	%al
	xorb	$-1, %al
	testb	$1, %al
	movb	$1, %al
	movb	%al, -68(%rbp)          # 1-byte Spill
	jne	.LBB11_4
.LBB11_2:                               # %Flow152
	movb	-68(%rbp), %al          # 1-byte Reload
	xorl	%ecx, %ecx
	movw	%cx, %dx
	testb	$1, %al
	movw	$1, %si
	movw	%si, -70(%rbp)          # 2-byte Spill
	movw	%dx, -72(%rbp)          # 2-byte Spill
	jne	.LBB11_3
	jmp	.LBB11_6
.LBB11_3:
	movw	$1, %ax
	movw	$2, %cx
	movw	%cx, -70(%rbp)          # 2-byte Spill
	movw	%ax, -72(%rbp)          # 2-byte Spill
	jmp	.LBB11_6
.LBB11_4:
	xorl	%eax, %eax
	movb	%al, %cl
	movb	%cl, -68(%rbp)          # 1-byte Spill
	jmp	.LBB11_2
.LBB11_5:                               # %Flow154
	movw	-74(%rbp), %ax          # 2-byte Reload
	movw	-76(%rbp), %cx          # 2-byte Reload
	movw	%ax, -78(%rbp)          # 2-byte Spill
	movw	%cx, -80(%rbp)          # 2-byte Spill
	jmp	.LBB11_13
.LBB11_6:
	movw	-72(%rbp), %ax          # 2-byte Reload
	movw	-70(%rbp), %cx          # 2-byte Reload
	movw	%ax, -76(%rbp)          # 2-byte Spill
	movw	%cx, -74(%rbp)          # 2-byte Spill
	jmp	.LBB11_5
.LBB11_7:
	movss	-4(%rbp), %xmm0         # xmm0 = mem[0],zero,zero,zero
	ucomiss	-8(%rbp), %xmm0
	seta	%al
	xorb	$-1, %al
	testb	$1, %al
	movb	$1, %al
	movb	%al, -81(%rbp)          # 1-byte Spill
	jne	.LBB11_10
.LBB11_8:                               # %Flow151
	movb	-81(%rbp), %al          # 1-byte Reload
	testb	$1, %al
	movw	$2, %cx
	movw	%cx, -84(%rbp)          # 2-byte Spill
	jne	.LBB11_9
	jmp	.LBB11_12
.LBB11_9:
	movw	$1, %ax
	movw	%ax, -84(%rbp)          # 2-byte Spill
	jmp	.LBB11_12
.LBB11_10:
	xorl	%eax, %eax
	movb	%al, %cl
	movb	%cl, -81(%rbp)          # 1-byte Spill
	jmp	.LBB11_8
.LBB11_11:                              # %Flow153
	movb	-67(%rbp), %al          # 1-byte Reload
	movw	-66(%rbp), %cx          # 2-byte Reload
	xorl	%edx, %edx
	movw	%dx, %si
	testb	$1, %al
	movw	%si, -76(%rbp)          # 2-byte Spill
	movw	%cx, -74(%rbp)          # 2-byte Spill
	jne	.LBB11_1
	jmp	.LBB11_5
.LBB11_12:
	movw	-84(%rbp), %ax          # 2-byte Reload
	xorl	%ecx, %ecx
	movb	%cl, %dl
	movw	%ax, -66(%rbp)          # 2-byte Spill
	movb	%dl, -67(%rbp)          # 1-byte Spill
	jmp	.LBB11_11
.LBB11_13:
	movw	-80(%rbp), %ax          # 2-byte Reload
	movw	-78(%rbp), %cx          # 2-byte Reload
	movswq	%ax, %rdx
	movq	-56(%rbp), %rsi         # 8-byte Reload
	movss	(%rsi,%rdx,4), %xmm0    # xmm0 = mem[0],zero,zero,zero
	movswq	%ax, %rdx
	movq	-64(%rbp), %rdi         # 8-byte Reload
	subss	(%rdi,%rdx,4), %xmm0
	movswq	%cx, %rdx
	movss	(%rsi,%rdx,4), %xmm1    # xmm1 = mem[0],zero,zero,zero
	movswq	%cx, %rdx
	subss	(%rdi,%rdx,4), %xmm1
	movswq	%ax, %rdx
	movq	-40(%rbp), %r8          # 8-byte Reload
	movss	(%r8,%rdx,4), %xmm2     # xmm2 = mem[0],zero,zero,zero
	movswq	%ax, %rdx
	movq	-32(%rbp), %r9          # 8-byte Reload
	subss	(%r9,%rdx,4), %xmm2
	movswq	%cx, %rdx
	movss	(%r8,%rdx,4), %xmm3     # xmm3 = mem[0],zero,zero,zero
	movswq	%cx, %rdx
	subss	(%r9,%rdx,4), %xmm3
	movswq	%ax, %rdx
	movss	(%rdi,%rdx,4), %xmm4    # xmm4 = mem[0],zero,zero,zero
	movswq	%ax, %rdx
	subss	(%r8,%rdx,4), %xmm4
	movswq	%cx, %rdx
	movss	(%rdi,%rdx,4), %xmm5    # xmm5 = mem[0],zero,zero,zero
	movswq	%cx, %rdx
	subss	(%r8,%rdx,4), %xmm5
	movaps	%xmm1, %xmm6
	mulss	%xmm2, %xmm6
	movaps	%xmm0, %xmm7
	mulss	%xmm3, %xmm7
	subss	%xmm7, %xmm6
	mulss	%xmm4, %xmm3
	mulss	%xmm5, %xmm2
	subss	%xmm2, %xmm3
	movw	%ax, -86(%rbp)          # 2-byte Spill
	movw	%cx, -88(%rbp)          # 2-byte Spill
	movss	%xmm0, -92(%rbp)        # 4-byte Spill
	movss	%xmm1, -96(%rbp)        # 4-byte Spill
	movss	%xmm4, -100(%rbp)       # 4-byte Spill
	movss	%xmm5, -104(%rbp)       # 4-byte Spill
	movss	%xmm6, -108(%rbp)       # 4-byte Spill
	movss	%xmm3, -112(%rbp)       # 4-byte Spill
# %bb.14:
	jmp	.LBB11_15
.LBB11_15:
	xorl	%eax, %eax
	movb	%al, %cl
	xorps	%xmm0, %xmm0
	movss	-108(%rbp), %xmm1       # 4-byte Reload
                                        # xmm1 = mem[0],zero,zero,zero
	ucomiss	%xmm0, %xmm1
	seta	%dl
	movb	%dl, %sil
	xorb	$-1, %sil
	testb	$1, %dl
	movb	%cl, -113(%rbp)         # 1-byte Spill
	movb	%sil, -114(%rbp)        # 1-byte Spill
	jne	.LBB11_16
	jmp	.LBB11_17
.LBB11_16:
	xorl	%eax, %eax
	movb	%al, %cl
	xorps	%xmm0, %xmm0
	movss	-112(%rbp), %xmm1       # 4-byte Reload
                                        # xmm1 = mem[0],zero,zero,zero
	ucomiss	%xmm0, %xmm1
	setae	%dl
	movb	%dl, %sil
	xorb	$-1, %sil
	testb	$1, %dl
	movb	%cl, -115(%rbp)         # 1-byte Spill
	movb	%sil, -116(%rbp)        # 1-byte Spill
	jne	.LBB11_18
	jmp	.LBB11_19
.LBB11_17:                              # %Flow136
	movb	-114(%rbp), %al         # 1-byte Reload
	movb	-113(%rbp), %cl         # 1-byte Reload
	xorl	%edx, %edx
	movb	%dl, %sil
	testb	$1, %al
	movb	%sil, -117(%rbp)        # 1-byte Spill
	movb	%cl, -118(%rbp)         # 1-byte Spill
	jne	.LBB11_20
	jmp	.LBB11_21
.LBB11_18:
	movss	-108(%rbp), %xmm0       # 4-byte Reload
                                        # xmm0 = mem[0],zero,zero,zero
	movss	-112(%rbp), %xmm1       # 4-byte Reload
                                        # xmm1 = mem[0],zero,zero,zero
	ucomiss	%xmm1, %xmm0
	setae	%al
	xorb	$-1, %al
	movb	$1, %cl
	movb	%cl, -115(%rbp)         # 1-byte Spill
	movb	%al, -116(%rbp)         # 1-byte Spill
.LBB11_19:                              # %Flow137
