; ModuleID = 'obj/main.tuner.ll'
source_filename = "llvm-link"
target datalayout = "e-m:e-i64:64-f80:128-n8:16:32:64-S128"
target triple = "x86_64-pc-linux-gnu"

%"class.std::ios_base::Init" = type { i8 }
%"class.std::basic_ostream" = type { i32 (...)**, %"class.std::basic_ios" }
%"class.std::basic_ios" = type { %"class.std::ios_base", %"class.std::basic_ostream"*, i8, i8, %"class.std::basic_streambuf"*, %"class.std::ctype"*, %"class.std::num_put"*, %"class.std::num_put"* }
%"class.std::ios_base" = type { i32 (...)**, i64, i64, i32, i32, i32, %"struct.std::ios_base::_Callback_list"*, %"struct.std::ios_base::_Words", [8 x %"struct.std::ios_base::_Words"], i32, %"struct.std::ios_base::_Words"*, %"class.std::locale" }
%"struct.std::ios_base::_Callback_list" = type { %"struct.std::ios_base::_Callback_list"*, void (i32, %"class.std::ios_base"*, i32)*, i32, i32 }
%"struct.std::ios_base::_Words" = type { i8*, i64 }
%"class.std::locale" = type { %"class.std::locale::_Impl"* }
%"class.std::locale::_Impl" = type { i32, %"class.std::locale::facet"**, i64, %"class.std::locale::facet"**, i8** }
%"class.std::locale::facet" = type <{ i32 (...)**, i32, [4 x i8] }>
%"class.std::basic_streambuf" = type { i32 (...)**, i8*, i8*, i8*, i8*, i8*, i8*, %"class.std::locale" }
%"class.std::ctype" = type <{ %"class.std::locale::facet.base", [4 x i8], %struct.__locale_struct*, i8, [7 x i8], i32*, i32*, i16*, i8, [256 x i8], [256 x i8], i8, [6 x i8] }>
%"class.std::locale::facet.base" = type <{ i32 (...)**, i32 }>
%struct.__locale_struct = type { [13 x %struct.__locale_data*], i16*, i32*, i32*, [13 x i8*] }
%struct.__locale_data = type opaque
%"class.std::num_put" = type { %"class.std::locale::facet.base", [4 x i8] }
%"class.std::__cxx11::basic_string" = type { %"struct.std::__cxx11::basic_string<char, std::char_traits<char>, std::allocator<char> >::_Alloc_hider", i64, %union.anon }
%"struct.std::__cxx11::basic_string<char, std::char_traits<char>, std::allocator<char> >::_Alloc_hider" = type { i8* }
%union.anon = type { i64, [8 x i8] }
%"class.std::basic_ofstream" = type { %"class.std::basic_ostream.base", %"class.std::basic_filebuf", %"class.std::basic_ios" }
%"class.std::basic_ostream.base" = type { i32 (...)** }
%"class.std::basic_filebuf" = type { %"class.std::basic_streambuf", %union.pthread_mutex_t, %"class.std::__basic_file", i32, %struct.__mbstate_t, %struct.__mbstate_t, %struct.__mbstate_t, i8*, i64, i8, i8, i8, i8, i8*, i8*, i8, %"class.std::codecvt"*, i8*, i64, i8*, i8* }
%union.pthread_mutex_t = type { %struct.__pthread_mutex_s }
%struct.__pthread_mutex_s = type { i32, i32, i32, i32, i32, i16, i16, %struct.__pthread_internal_list }
%struct.__pthread_internal_list = type { %struct.__pthread_internal_list*, %struct.__pthread_internal_list* }
%"class.std::__basic_file" = type <{ %struct._IO_FILE*, i8, [7 x i8] }>
%struct._IO_FILE = type { i32, i8*, i8*, i8*, i8*, i8*, i8*, i8*, i8*, i8*, i8*, i8*, %struct._IO_marker*, %struct._IO_FILE*, i32, i32, i64, i16, i8, [1 x i8], i8*, i64, %struct._IO_codecvt*, %struct._IO_wide_data*, %struct._IO_FILE*, i8*, i64, i32, [20 x i8] }
%struct._IO_marker = type opaque
%struct._IO_codecvt = type opaque
%struct._IO_wide_data = type opaque
%struct.__mbstate_t = type { i32, %union.anon.0 }
%union.anon.0 = type { i32 }
%"class.std::codecvt" = type { %"class.std::__codecvt_abstract_base.base", %struct.__locale_struct* }
%"class.std::__codecvt_abstract_base.base" = type { %"class.std::locale::facet.base" }
%"class.std::basic_ifstream" = type { %"class.std::basic_istream.base", %"class.std::basic_filebuf", %"class.std::basic_ios" }
%"class.std::basic_istream.base" = type { i32 (...)**, i64 }
%class.AxBenchTimer = type { %struct.timespec }
%struct.timespec = type { i64, i64 }
%"class.std::basic_istream" = type { i32 (...)**, i64, %"class.std::basic_ios" }

$_ZNSt8ios_base9precisionEl = comdat any

$_ZN12AxBenchTimerC2Ev = comdat any

$_ZN12AxBenchTimer20nanosecondsSinceInitEv = comdat any

$_ZN12AxBenchTimer5resetEv = comdat any

@llvm.global_ctors = appending global [2 x { i32, void ()*, i8* }] [{ i32, void ()*, i8* } { i32 65535, void ()* @_GLOBAL__sub_I_tritri.cpp, i8* null }, { i32, void ()*, i8* } { i32 65535, void ()* @_GLOBAL__sub_I_jmeint.cpp, i8* null }]
@_ZStL8__ioinit = internal global %"class.std::ios_base::Init" zeroinitializer, align 1, !taffo.structinfo !0
@__dso_handle = external hidden global i8
@_ZStL8__ioinit.3 = internal global %"class.std::ios_base::Init" zeroinitializer, align 1, !taffo.structinfo !0
@_ZSt4cout = external dso_local global %"class.std::basic_ostream", align 8
@.str.2.17 = private unnamed_addr constant [53 x i8] c"cannot allocate memory for the triangle coordinates!\00", align 1, !taffo.info !3
@.str.5.20 = private unnamed_addr constant [6 x i8] c" 0 0 \00", align 1, !taffo.info !5
@.str.6.21 = private unnamed_addr constant [15 x i8] c"kernel time = \00", align 1, !taffo.info !7
@.str.7.22 = private unnamed_addr constant [3 x i8] c" s\00", align 1, !taffo.info !9

; Function Attrs: noinline uwtable
define internal void @_GLOBAL__sub_I_tritri.cpp() #0 section ".text.startup" !taffo.initweight !13 !taffo.funinfo !13 {
  call void @__cxx_global_var_init(), !taffo.constinfo !14
  ret void
}

; Function Attrs: noinline uwtable
define internal void @__cxx_global_var_init() #0 section ".text.startup" !taffo.initweight !13 !taffo.funinfo !13 {
  call void @_ZNSt8ios_base4InitC1Ev(%"class.std::ios_base::Init"* @_ZStL8__ioinit), !taffo.constinfo !15
  %1 = call i32 @__cxa_atexit(void (i8*)* bitcast (void (%"class.std::ios_base::Init"*)* @_ZNSt8ios_base4InitD1Ev to void (i8*)*), i8* getelementptr inbounds (%"class.std::ios_base::Init", %"class.std::ios_base::Init"* @_ZStL8__ioinit, i32 0, i32 0), i8* @__dso_handle) #3, !taffo.constinfo !16
  ret void
}

declare !taffo.initweight !17 !taffo.funinfo !18 dso_local void @_ZNSt8ios_base4InitC1Ev(%"class.std::ios_base::Init"*) unnamed_addr #1

; Function Attrs: nounwind
declare !taffo.initweight !17 !taffo.funinfo !18 dso_local void @_ZNSt8ios_base4InitD1Ev(%"class.std::ios_base::Init"*) unnamed_addr #2

; Function Attrs: nounwind
declare !taffo.initweight !19 !taffo.funinfo !20 dso_local i32 @__cxa_atexit(void (i8*)*, i8*, i8*) #3

; Function Attrs: noinline nounwind uwtable
define dso_local i32 @_Z16coplanar_tri_triPfS_S_S_S_S_S_(float*, float*, float*, float*, float*, float*, float*) #4 !taffo.initweight !21 !taffo.funinfo !22 !taffo.equivalentChild !23 {
  %8 = alloca [3 x float], align 4, !taffo.info !24, !taffo.initweight !25
  %9 = getelementptr inbounds float, float* %0, i64 0
  %10 = load float, float* %9, align 4
  %11 = fpext float %10 to double
  %12 = call double @llvm.fabs.f64(double %11), !taffo.constinfo !15
  %13 = fptrunc double %12 to float
  %14 = getelementptr inbounds [3 x float], [3 x float]* %8, i64 0, i64 0, !taffo.info !24, !taffo.initweight !26
  store float %13, float* %14, align 4, !taffo.info !24
  %15 = getelementptr inbounds float, float* %0, i64 1
  %16 = load float, float* %15, align 4
  %17 = fpext float %16 to double
  %18 = call double @llvm.fabs.f64(double %17), !taffo.constinfo !15
  %19 = fptrunc double %18 to float
  %20 = getelementptr inbounds [3 x float], [3 x float]* %8, i64 0, i64 1, !taffo.info !24, !taffo.initweight !26
  store float %19, float* %20, align 4, !taffo.info !24
  %21 = getelementptr inbounds float, float* %0, i64 2
  %22 = load float, float* %21, align 4
  %23 = fpext float %22 to double
  %24 = call double @llvm.fabs.f64(double %23), !taffo.constinfo !15
  %25 = fptrunc double %24 to float
  %26 = getelementptr inbounds [3 x float], [3 x float]* %8, i64 0, i64 2, !taffo.info !24, !taffo.initweight !26
  store float %25, float* %26, align 4, !taffo.info !24
  %27 = getelementptr inbounds [3 x float], [3 x float]* %8, i64 0, i64 0, !taffo.info !24, !taffo.initweight !26
  %28 = load float, float* %27, align 4, !taffo.info !24, !taffo.initweight !27
  %29 = getelementptr inbounds [3 x float], [3 x float]* %8, i64 0, i64 1, !taffo.info !24, !taffo.initweight !26
  %30 = load float, float* %29, align 4, !taffo.info !24, !taffo.initweight !27
  %31 = fcmp ogt float %28, %30, !taffo.info !24, !taffo.initweight !28
  br i1 %31, label %32, label %41, !taffo.info !24, !taffo.initweight !29

; <label>:32:                                     ; preds = %7
  %33 = getelementptr inbounds [3 x float], [3 x float]* %8, i64 0, i64 0, !taffo.info !24, !taffo.initweight !26
  %34 = load float, float* %33, align 4, !taffo.info !24, !taffo.initweight !27
  %35 = getelementptr inbounds [3 x float], [3 x float]* %8, i64 0, i64 2, !taffo.info !24, !taffo.initweight !26
  %36 = load float, float* %35, align 4, !taffo.info !24, !taffo.initweight !27
  %37 = fcmp ogt float %34, %36, !taffo.info !24, !taffo.initweight !28
  br i1 %37, label %38, label %39, !taffo.info !24, !taffo.initweight !29

; <label>:38:                                     ; preds = %32
  br label %40

; <label>:39:                                     ; preds = %32
  br label %40

; <label>:40:                                     ; preds = %39, %38
  %.02 = phi i16 [ 2, %38 ], [ 1, %39 ]
  %.01 = phi i16 [ 1, %38 ], [ 0, %39 ]
  br label %50

; <label>:41:                                     ; preds = %7
  %42 = getelementptr inbounds [3 x float], [3 x float]* %8, i64 0, i64 2, !taffo.info !24, !taffo.initweight !26
  %43 = load float, float* %42, align 4, !taffo.info !24, !taffo.initweight !27
  %44 = getelementptr inbounds [3 x float], [3 x float]* %8, i64 0, i64 1, !taffo.info !24, !taffo.initweight !26
  %45 = load float, float* %44, align 4, !taffo.info !24, !taffo.initweight !27
  %46 = fcmp ogt float %43, %45, !taffo.info !24, !taffo.initweight !28
  br i1 %46, label %47, label %48, !taffo.info !24, !taffo.initweight !29

; <label>:47:                                     ; preds = %41
  br label %49

; <label>:48:                                     ; preds = %41
  br label %49

; <label>:49:                                     ; preds = %48, %47
  %.13 = phi i16 [ 1, %47 ], [ 2, %48 ]
  br label %50

; <label>:50:                                     ; preds = %49, %40
  %.24 = phi i16 [ %.02, %40 ], [ %.13, %49 ]
  %.2 = phi i16 [ %.01, %40 ], [ 0, %49 ]
  %51 = sext i16 %.2 to i64
  %52 = getelementptr inbounds float, float* %2, i64 %51
  %53 = load float, float* %52, align 4
  %54 = sext i16 %.2 to i64
  %55 = getelementptr inbounds float, float* %1, i64 %54
  %56 = load float, float* %55, align 4
  %57 = fsub float %53, %56
  %58 = sext i16 %.24 to i64
  %59 = getelementptr inbounds float, float* %2, i64 %58
  %60 = load float, float* %59, align 4
  %61 = sext i16 %.24 to i64
  %62 = getelementptr inbounds float, float* %1, i64 %61
  %63 = load float, float* %62, align 4
  %64 = fsub float %60, %63
  %65 = sext i16 %.2 to i64
  %66 = getelementptr inbounds float, float* %4, i64 %65
  %67 = load float, float* %66, align 4
  %68 = sext i16 %.2 to i64
  %69 = getelementptr inbounds float, float* %5, i64 %68
  %70 = load float, float* %69, align 4
  %71 = fsub float %67, %70
  %72 = sext i16 %.24 to i64
  %73 = getelementptr inbounds float, float* %4, i64 %72
  %74 = load float, float* %73, align 4
  %75 = sext i16 %.24 to i64
  %76 = getelementptr inbounds float, float* %5, i64 %75
  %77 = load float, float* %76, align 4
  %78 = fsub float %74, %77
  %79 = sext i16 %.2 to i64
  %80 = getelementptr inbounds float, float* %1, i64 %79
  %81 = load float, float* %80, align 4
  %82 = sext i16 %.2 to i64
  %83 = getelementptr inbounds float, float* %4, i64 %82
  %84 = load float, float* %83, align 4
  %85 = fsub float %81, %84
  %86 = sext i16 %.24 to i64
  %87 = getelementptr inbounds float, float* %1, i64 %86
  %88 = load float, float* %87, align 4
  %89 = sext i16 %.24 to i64
  %90 = getelementptr inbounds float, float* %4, i64 %89
  %91 = load float, float* %90, align 4
  %92 = fsub float %88, %91
  %93 = fmul float %64, %71, !taffo.info !24, !taffo.initweight !27
  %94 = fmul float %57, %78, !taffo.info !24, !taffo.initweight !27
  %95 = fsub float %93, %94, !taffo.info !24, !taffo.initweight !28
  %96 = fmul float %78, %85, !taffo.info !24, !taffo.initweight !27
  %97 = fmul float %71, %92, !taffo.info !24, !taffo.initweight !27
  %98 = fsub float %96, %97, !taffo.info !24, !taffo.initweight !28
  br label %99

; <label>:99:                                     ; preds = %50
  br label %100

; <label>:100:                                    ; preds = %99
  %101 = fcmp ogt float %95, 0.000000e+00, !taffo.info !24, !taffo.initweight !27, !taffo.target !30
  br i1 %101, label %102, label %106, !taffo.info !24, !taffo.initweight !28, !taffo.target !30

; <label>:102:                                    ; preds = %100
  %103 = fcmp oge float %98, 0.000000e+00, !taffo.info !24, !taffo.initweight !27, !taffo.target !30
  br i1 %103, label %104, label %106, !taffo.info !24, !taffo.initweight !28, !taffo.target !30

; <label>:104:                                    ; preds = %102
  %105 = fcmp ole float %98, %95, !taffo.info !24, !taffo.initweight !27, !taffo.target !30
  br i1 %105, label %112, label %106, !taffo.info !24, !taffo.initweight !28, !taffo.target !30

; <label>:106:                                    ; preds = %102, %100, %104
  %107 = fcmp olt float %95, 0.000000e+00, !taffo.info !24, !taffo.initweight !27, !taffo.target !30
  br i1 %107, label %108, label %132, !taffo.info !24, !taffo.initweight !28, !taffo.target !30

; <label>:108:                                    ; preds = %106
  %109 = fcmp ole float %98, 0.000000e+00, !taffo.info !24, !taffo.initweight !27, !taffo.target !30
  br i1 %109, label %110, label %132, !taffo.info !24, !taffo.initweight !28, !taffo.target !30

; <label>:110:                                    ; preds = %108
  %111 = fcmp oge float %98, %95, !taffo.info !24, !taffo.initweight !27, !taffo.target !30
  br i1 %111, label %112, label %132, !taffo.info !24, !taffo.initweight !28, !taffo.target !30

; <label>:112:                                    ; preds = %110, %104
  %113 = fmul float %57, %92, !taffo.info !24, !taffo.initweight !27
  %114 = fmul float %64, %85, !taffo.info !24, !taffo.initweight !27
  %115 = fsub float %113, %114, !taffo.info !24, !taffo.initweight !28
  br label %116

; <label>:116:                                    ; preds = %112
  br label %117

; <label>:117:                                    ; preds = %116
  %118 = fcmp ogt float %95, 0.000000e+00, !taffo.info !24, !taffo.initweight !27, !taffo.target !30
  br i1 %118, label %119, label %125, !taffo.info !24, !taffo.initweight !28, !taffo.target !30

; <label>:119:                                    ; preds = %117
  %120 = fcmp oge float %115, 0.000000e+00, !taffo.info !24, !taffo.initweight !27, !taffo.target !30
  br i1 %120, label %121, label %124, !taffo.info !24, !taffo.initweight !28, !taffo.target !30

; <label>:121:                                    ; preds = %119
  %122 = fcmp ole float %115, %95, !taffo.info !24, !taffo.initweight !27, !taffo.target !30
  br i1 %122, label %123, label %124, !taffo.info !24, !taffo.initweight !28, !taffo.target !30

; <label>:123:                                    ; preds = %121
  br label %939

; <label>:124:                                    ; preds = %121, %119
  br label %131

; <label>:125:                                    ; preds = %117
  %126 = fcmp ole float %115, 0.000000e+00, !taffo.info !24, !taffo.initweight !27, !taffo.target !30
  br i1 %126, label %127, label %130, !taffo.info !24, !taffo.initweight !28, !taffo.target !30

; <label>:127:                                    ; preds = %125
  %128 = fcmp oge float %115, %95, !taffo.info !24, !taffo.initweight !27, !taffo.target !30
  br i1 %128, label %129, label %130, !taffo.info !24, !taffo.initweight !28, !taffo.target !30

; <label>:129:                                    ; preds = %127
  br label %939

; <label>:130:                                    ; preds = %127, %125
  br label %131

; <label>:131:                                    ; preds = %130, %124
  br label %132

; <label>:132:                                    ; preds = %110, %106, %108, %131
  %133 = sext i16 %.2 to i64
  %134 = getelementptr inbounds float, float* %5, i64 %133
  %135 = load float, float* %134, align 4
  %136 = sext i16 %.2 to i64
  %137 = getelementptr inbounds float, float* %6, i64 %136
  %138 = load float, float* %137, align 4
  %139 = fsub float %135, %138
  %140 = sext i16 %.24 to i64
  %141 = getelementptr inbounds float, float* %5, i64 %140
  %142 = load float, float* %141, align 4
  %143 = sext i16 %.24 to i64
  %144 = getelementptr inbounds float, float* %6, i64 %143
  %145 = load float, float* %144, align 4
  %146 = fsub float %142, %145
  %147 = sext i16 %.2 to i64
  %148 = getelementptr inbounds float, float* %1, i64 %147
  %149 = load float, float* %148, align 4
  %150 = sext i16 %.2 to i64
  %151 = getelementptr inbounds float, float* %5, i64 %150
  %152 = load float, float* %151, align 4
  %153 = fsub float %149, %152
  %154 = sext i16 %.24 to i64
  %155 = getelementptr inbounds float, float* %1, i64 %154
  %156 = load float, float* %155, align 4
  %157 = sext i16 %.24 to i64
  %158 = getelementptr inbounds float, float* %5, i64 %157
  %159 = load float, float* %158, align 4
  %160 = fsub float %156, %159
  %161 = fmul float %64, %139, !taffo.info !24, !taffo.initweight !27
  %162 = fmul float %57, %146, !taffo.info !24, !taffo.initweight !27
  %163 = fsub float %161, %162, !taffo.info !24, !taffo.initweight !28
  %164 = fmul float %146, %153, !taffo.info !24, !taffo.initweight !27
  %165 = fmul float %139, %160, !taffo.info !24, !taffo.initweight !27
  %166 = fsub float %164, %165, !taffo.info !24, !taffo.initweight !28
  br label %167

; <label>:167:                                    ; preds = %132
  br label %168

; <label>:168:                                    ; preds = %167
  %169 = fcmp ogt float %163, 0.000000e+00, !taffo.info !24, !taffo.initweight !27, !taffo.target !30
  br i1 %169, label %170, label %174, !taffo.info !24, !taffo.initweight !28, !taffo.target !30

; <label>:170:                                    ; preds = %168
  %171 = fcmp oge float %166, 0.000000e+00, !taffo.info !24, !taffo.initweight !27, !taffo.target !30
  br i1 %171, label %172, label %174, !taffo.info !24, !taffo.initweight !28, !taffo.target !30

; <label>:172:                                    ; preds = %170
  %173 = fcmp ole float %166, %163, !taffo.info !24, !taffo.initweight !27, !taffo.target !30
  br i1 %173, label %180, label %174, !taffo.info !24, !taffo.initweight !28, !taffo.target !30

; <label>:174:                                    ; preds = %170, %168, %172
  %175 = fcmp olt float %163, 0.000000e+00, !taffo.info !24, !taffo.initweight !27, !taffo.target !30
  br i1 %175, label %176, label %200, !taffo.info !24, !taffo.initweight !28, !taffo.target !30

; <label>:176:                                    ; preds = %174
  %177 = fcmp ole float %166, 0.000000e+00, !taffo.info !24, !taffo.initweight !27, !taffo.target !30
  br i1 %177, label %178, label %200, !taffo.info !24, !taffo.initweight !28, !taffo.target !30

; <label>:178:                                    ; preds = %176
  %179 = fcmp oge float %166, %163, !taffo.info !24, !taffo.initweight !27, !taffo.target !30
  br i1 %179, label %180, label %200, !taffo.info !24, !taffo.initweight !28, !taffo.target !30

; <label>:180:                                    ; preds = %178, %172
  %181 = fmul float %57, %160, !taffo.info !24, !taffo.initweight !27
  %182 = fmul float %64, %153, !taffo.info !24, !taffo.initweight !27
  %183 = fsub float %181, %182, !taffo.info !24, !taffo.initweight !28
  br label %184

; <label>:184:                                    ; preds = %180
  br label %185

; <label>:185:                                    ; preds = %184
  %186 = fcmp ogt float %163, 0.000000e+00, !taffo.info !24, !taffo.initweight !27, !taffo.target !30
  br i1 %186, label %187, label %193, !taffo.info !24, !taffo.initweight !28, !taffo.target !30

; <label>:187:                                    ; preds = %185
  %188 = fcmp oge float %183, 0.000000e+00, !taffo.info !24, !taffo.initweight !27, !taffo.target !30
  br i1 %188, label %189, label %192, !taffo.info !24, !taffo.initweight !28, !taffo.target !30

; <label>:189:                                    ; preds = %187
  %190 = fcmp ole float %183, %163, !taffo.info !24, !taffo.initweight !27, !taffo.target !30
  br i1 %190, label %191, label %192, !taffo.info !24, !taffo.initweight !28, !taffo.target !30

; <label>:191:                                    ; preds = %189
  br label %939

; <label>:192:                                    ; preds = %187, %189
  br label %199

; <label>:193:                                    ; preds = %185
  %194 = fcmp ole float %183, 0.000000e+00, !taffo.info !24, !taffo.initweight !27, !taffo.target !30
  br i1 %194, label %195, label %198, !taffo.info !24, !taffo.initweight !28, !taffo.target !30

; <label>:195:                                    ; preds = %193
  %196 = fcmp oge float %183, %163, !taffo.info !24, !taffo.initweight !27, !taffo.target !30
  br i1 %196, label %197, label %198, !taffo.info !24, !taffo.initweight !28, !taffo.target !30

; <label>:197:                                    ; preds = %195
  br label %939

; <label>:198:                                    ; preds = %193, %195
  br label %199

; <label>:199:                                    ; preds = %198, %192
  br label %200

; <label>:200:                                    ; preds = %178, %176, %174, %199
  %201 = sext i16 %.2 to i64
  %202 = getelementptr inbounds float, float* %6, i64 %201
  %203 = load float, float* %202, align 4
  %204 = sext i16 %.2 to i64
  %205 = getelementptr inbounds float, float* %4, i64 %204
  %206 = load float, float* %205, align 4
  %207 = fsub float %203, %206
  %208 = sext i16 %.24 to i64
  %209 = getelementptr inbounds float, float* %6, i64 %208
  %210 = load float, float* %209, align 4
  %211 = sext i16 %.24 to i64
  %212 = getelementptr inbounds float, float* %4, i64 %211
  %213 = load float, float* %212, align 4
  %214 = fsub float %210, %213
  %215 = sext i16 %.2 to i64
  %216 = getelementptr inbounds float, float* %1, i64 %215
  %217 = load float, float* %216, align 4
  %218 = sext i16 %.2 to i64
  %219 = getelementptr inbounds float, float* %6, i64 %218
  %220 = load float, float* %219, align 4
  %221 = fsub float %217, %220
  %222 = sext i16 %.24 to i64
  %223 = getelementptr inbounds float, float* %1, i64 %222
  %224 = load float, float* %223, align 4
  %225 = sext i16 %.24 to i64
  %226 = getelementptr inbounds float, float* %6, i64 %225
  %227 = load float, float* %226, align 4
  %228 = fsub float %224, %227
  %229 = fmul float %64, %207, !taffo.info !24, !taffo.initweight !27
  %230 = fmul float %57, %214, !taffo.info !24, !taffo.initweight !27
  %231 = fsub float %229, %230, !taffo.info !24, !taffo.initweight !28
  %232 = fmul float %214, %221, !taffo.info !24, !taffo.initweight !27
  %233 = fmul float %207, %228, !taffo.info !24, !taffo.initweight !27
  %234 = fsub float %232, %233, !taffo.info !24, !taffo.initweight !28
  br label %235

; <label>:235:                                    ; preds = %200
  br label %236

; <label>:236:                                    ; preds = %235
  %237 = fcmp ogt float %231, 0.000000e+00, !taffo.info !24, !taffo.initweight !27, !taffo.target !30
  br i1 %237, label %238, label %242, !taffo.info !24, !taffo.initweight !28, !taffo.target !30

; <label>:238:                                    ; preds = %236
  %239 = fcmp oge float %234, 0.000000e+00, !taffo.info !24, !taffo.initweight !27, !taffo.target !30
  br i1 %239, label %240, label %242, !taffo.info !24, !taffo.initweight !28, !taffo.target !30

; <label>:240:                                    ; preds = %238
  %241 = fcmp ole float %234, %231, !taffo.info !24, !taffo.initweight !27, !taffo.target !30
  br i1 %241, label %248, label %242, !taffo.info !24, !taffo.initweight !28, !taffo.target !30

; <label>:242:                                    ; preds = %238, %236, %240
  %243 = fcmp olt float %231, 0.000000e+00, !taffo.info !24, !taffo.initweight !27, !taffo.target !30
  br i1 %243, label %244, label %268, !taffo.info !24, !taffo.initweight !28, !taffo.target !30

; <label>:244:                                    ; preds = %242
  %245 = fcmp ole float %234, 0.000000e+00, !taffo.info !24, !taffo.initweight !27, !taffo.target !30
  br i1 %245, label %246, label %268, !taffo.info !24, !taffo.initweight !28, !taffo.target !30

; <label>:246:                                    ; preds = %244
  %247 = fcmp oge float %234, %231, !taffo.info !24, !taffo.initweight !27, !taffo.target !30
  br i1 %247, label %248, label %268, !taffo.info !24, !taffo.initweight !28, !taffo.target !30

; <label>:248:                                    ; preds = %246, %240
  %249 = fmul float %57, %228, !taffo.info !24, !taffo.initweight !27
  %250 = fmul float %64, %221, !taffo.info !24, !taffo.initweight !27
  %251 = fsub float %249, %250, !taffo.info !24, !taffo.initweight !28
  br label %252

; <label>:252:                                    ; preds = %248
  br label %253

; <label>:253:                                    ; preds = %252
  %254 = fcmp ogt float %231, 0.000000e+00, !taffo.info !24, !taffo.initweight !27, !taffo.target !30
  br i1 %254, label %255, label %261, !taffo.info !24, !taffo.initweight !28, !taffo.target !30

; <label>:255:                                    ; preds = %253
  %256 = fcmp oge float %251, 0.000000e+00, !taffo.info !24, !taffo.initweight !27, !taffo.target !30
  br i1 %256, label %257, label %260, !taffo.info !24, !taffo.initweight !28, !taffo.target !30

; <label>:257:                                    ; preds = %255
  %258 = fcmp ole float %251, %231, !taffo.info !24, !taffo.initweight !27, !taffo.target !30
  br i1 %258, label %259, label %260, !taffo.info !24, !taffo.initweight !28, !taffo.target !30

; <label>:259:                                    ; preds = %257
  br label %939

; <label>:260:                                    ; preds = %257, %255
  br label %267

; <label>:261:                                    ; preds = %253
  %262 = fcmp ole float %251, 0.000000e+00, !taffo.info !24, !taffo.initweight !27, !taffo.target !30
  br i1 %262, label %263, label %266, !taffo.info !24, !taffo.initweight !28, !taffo.target !30

; <label>:263:                                    ; preds = %261
  %264 = fcmp oge float %251, %231, !taffo.info !24, !taffo.initweight !27, !taffo.target !30
  br i1 %264, label %265, label %266, !taffo.info !24, !taffo.initweight !28, !taffo.target !30

; <label>:265:                                    ; preds = %263
  br label %939

; <label>:266:                                    ; preds = %261, %263
  br label %267

; <label>:267:                                    ; preds = %266, %260
  br label %268

; <label>:268:                                    ; preds = %242, %244, %246, %267
  %269 = sext i16 %.2 to i64
  %270 = getelementptr inbounds float, float* %3, i64 %269
  %271 = load float, float* %270, align 4
  %272 = sext i16 %.2 to i64
  %273 = getelementptr inbounds float, float* %2, i64 %272
  %274 = load float, float* %273, align 4
  %275 = fsub float %271, %274
  %276 = sext i16 %.24 to i64
  %277 = getelementptr inbounds float, float* %3, i64 %276
  %278 = load float, float* %277, align 4
  %279 = sext i16 %.24 to i64
  %280 = getelementptr inbounds float, float* %2, i64 %279
  %281 = load float, float* %280, align 4
  %282 = fsub float %278, %281
  %283 = sext i16 %.2 to i64
  %284 = getelementptr inbounds float, float* %4, i64 %283
  %285 = load float, float* %284, align 4
  %286 = sext i16 %.2 to i64
  %287 = getelementptr inbounds float, float* %5, i64 %286
  %288 = load float, float* %287, align 4
  %289 = fsub float %285, %288
  %290 = sext i16 %.24 to i64
  %291 = getelementptr inbounds float, float* %4, i64 %290
  %292 = load float, float* %291, align 4
  %293 = sext i16 %.24 to i64
  %294 = getelementptr inbounds float, float* %5, i64 %293
  %295 = load float, float* %294, align 4
  %296 = fsub float %292, %295
  %297 = sext i16 %.2 to i64
  %298 = getelementptr inbounds float, float* %2, i64 %297
  %299 = load float, float* %298, align 4
  %300 = sext i16 %.2 to i64
  %301 = getelementptr inbounds float, float* %4, i64 %300
  %302 = load float, float* %301, align 4
  %303 = fsub float %299, %302
  %304 = sext i16 %.24 to i64
  %305 = getelementptr inbounds float, float* %2, i64 %304
  %306 = load float, float* %305, align 4
  %307 = sext i16 %.24 to i64
  %308 = getelementptr inbounds float, float* %4, i64 %307
  %309 = load float, float* %308, align 4
  %310 = fsub float %306, %309
  %311 = fmul float %282, %289, !taffo.info !24, !taffo.initweight !27
  %312 = fmul float %275, %296, !taffo.info !24, !taffo.initweight !27
  %313 = fsub float %311, %312, !taffo.info !24, !taffo.initweight !28
  %314 = fmul float %296, %303, !taffo.info !24, !taffo.initweight !27
  %315 = fmul float %289, %310, !taffo.info !24, !taffo.initweight !27
  %316 = fsub float %314, %315, !taffo.info !24, !taffo.initweight !28
  br label %317

; <label>:317:                                    ; preds = %268
  br label %318

; <label>:318:                                    ; preds = %317
  %319 = fcmp ogt float %313, 0.000000e+00, !taffo.info !24, !taffo.initweight !27, !taffo.target !30
  br i1 %319, label %320, label %324, !taffo.info !24, !taffo.initweight !28, !taffo.target !30

; <label>:320:                                    ; preds = %318
  %321 = fcmp oge float %316, 0.000000e+00, !taffo.info !24, !taffo.initweight !27, !taffo.target !30
  br i1 %321, label %322, label %324, !taffo.info !24, !taffo.initweight !28, !taffo.target !30

; <label>:322:                                    ; preds = %320
  %323 = fcmp ole float %316, %313, !taffo.info !24, !taffo.initweight !27, !taffo.target !30
  br i1 %323, label %330, label %324, !taffo.info !24, !taffo.initweight !28, !taffo.target !30

; <label>:324:                                    ; preds = %320, %318, %322
  %325 = fcmp olt float %313, 0.000000e+00, !taffo.info !24, !taffo.initweight !27, !taffo.target !30
  br i1 %325, label %326, label %350, !taffo.info !24, !taffo.initweight !28, !taffo.target !30

; <label>:326:                                    ; preds = %324
  %327 = fcmp ole float %316, 0.000000e+00, !taffo.info !24, !taffo.initweight !27, !taffo.target !30
  br i1 %327, label %328, label %350, !taffo.info !24, !taffo.initweight !28, !taffo.target !30

; <label>:328:                                    ; preds = %326
  %329 = fcmp oge float %316, %313, !taffo.info !24, !taffo.initweight !27, !taffo.target !30
  br i1 %329, label %330, label %350, !taffo.info !24, !taffo.initweight !28, !taffo.target !30

; <label>:330:                                    ; preds = %322, %328
  %331 = fmul float %275, %310, !taffo.info !24, !taffo.initweight !27
  %332 = fmul float %282, %303, !taffo.info !24, !taffo.initweight !27
  %333 = fsub float %331, %332, !taffo.info !24, !taffo.initweight !28
  br label %334

; <label>:334:                                    ; preds = %330
  br label %335

; <label>:335:                                    ; preds = %334
  %336 = fcmp ogt float %313, 0.000000e+00, !taffo.info !24, !taffo.initweight !27, !taffo.target !30
  br i1 %336, label %337, label %343, !taffo.info !24, !taffo.initweight !28, !taffo.target !30

; <label>:337:                                    ; preds = %335
  %338 = fcmp oge float %333, 0.000000e+00, !taffo.info !24, !taffo.initweight !27, !taffo.target !30
  br i1 %338, label %339, label %342, !taffo.info !24, !taffo.initweight !28, !taffo.target !30

; <label>:339:                                    ; preds = %337
  %340 = fcmp ole float %333, %313, !taffo.info !24, !taffo.initweight !27, !taffo.target !30
  br i1 %340, label %341, label %342, !taffo.info !24, !taffo.initweight !28, !taffo.target !30

; <label>:341:                                    ; preds = %339
  br label %939

; <label>:342:                                    ; preds = %337, %339
  br label %349

; <label>:343:                                    ; preds = %335
  %344 = fcmp ole float %333, 0.000000e+00, !taffo.info !24, !taffo.initweight !27, !taffo.target !30
  br i1 %344, label %345, label %348, !taffo.info !24, !taffo.initweight !28, !taffo.target !30

; <label>:345:                                    ; preds = %343
  %346 = fcmp oge float %333, %313, !taffo.info !24, !taffo.initweight !27, !taffo.target !30
  br i1 %346, label %347, label %348, !taffo.info !24, !taffo.initweight !28, !taffo.target !30

; <label>:347:                                    ; preds = %345
  br label %939

; <label>:348:                                    ; preds = %343, %345
  br label %349

; <label>:349:                                    ; preds = %348, %342
  br label %350

; <label>:350:                                    ; preds = %324, %326, %328, %349
  %351 = sext i16 %.2 to i64
  %352 = getelementptr inbounds float, float* %5, i64 %351
  %353 = load float, float* %352, align 4
  %354 = sext i16 %.2 to i64
  %355 = getelementptr inbounds float, float* %6, i64 %354
  %356 = load float, float* %355, align 4
  %357 = fsub float %353, %356
  %358 = sext i16 %.24 to i64
  %359 = getelementptr inbounds float, float* %5, i64 %358
  %360 = load float, float* %359, align 4
  %361 = sext i16 %.24 to i64
  %362 = getelementptr inbounds float, float* %6, i64 %361
  %363 = load float, float* %362, align 4
  %364 = fsub float %360, %363
  %365 = sext i16 %.2 to i64
  %366 = getelementptr inbounds float, float* %2, i64 %365
  %367 = load float, float* %366, align 4
  %368 = sext i16 %.2 to i64
  %369 = getelementptr inbounds float, float* %5, i64 %368
  %370 = load float, float* %369, align 4
  %371 = fsub float %367, %370
  %372 = sext i16 %.24 to i64
  %373 = getelementptr inbounds float, float* %2, i64 %372
  %374 = load float, float* %373, align 4
  %375 = sext i16 %.24 to i64
  %376 = getelementptr inbounds float, float* %5, i64 %375
  %377 = load float, float* %376, align 4
  %378 = fsub float %374, %377
  %379 = fmul float %282, %357, !taffo.info !24, !taffo.initweight !27
  %380 = fmul float %275, %364, !taffo.info !24, !taffo.initweight !27
  %381 = fsub float %379, %380, !taffo.info !24, !taffo.initweight !28
  %382 = fmul float %364, %371, !taffo.info !24, !taffo.initweight !27
  %383 = fmul float %357, %378, !taffo.info !24, !taffo.initweight !27
  %384 = fsub float %382, %383, !taffo.info !24, !taffo.initweight !28
  br label %385

; <label>:385:                                    ; preds = %350
  br label %386

; <label>:386:                                    ; preds = %385
  %387 = fcmp ogt float %381, 0.000000e+00, !taffo.info !24, !taffo.initweight !27, !taffo.target !30
  br i1 %387, label %388, label %392, !taffo.info !24, !taffo.initweight !28, !taffo.target !30

; <label>:388:                                    ; preds = %386
  %389 = fcmp oge float %384, 0.000000e+00, !taffo.info !24, !taffo.initweight !27, !taffo.target !30
  br i1 %389, label %390, label %392, !taffo.info !24, !taffo.initweight !28, !taffo.target !30

; <label>:390:                                    ; preds = %388
  %391 = fcmp ole float %384, %381, !taffo.info !24, !taffo.initweight !27, !taffo.target !30
  br i1 %391, label %398, label %392, !taffo.info !24, !taffo.initweight !28, !taffo.target !30

; <label>:392:                                    ; preds = %390, %388, %386
  %393 = fcmp olt float %381, 0.000000e+00, !taffo.info !24, !taffo.initweight !27, !taffo.target !30
  br i1 %393, label %394, label %418, !taffo.info !24, !taffo.initweight !28, !taffo.target !30

; <label>:394:                                    ; preds = %392
  %395 = fcmp ole float %384, 0.000000e+00, !taffo.info !24, !taffo.initweight !27, !taffo.target !30
  br i1 %395, label %396, label %418, !taffo.info !24, !taffo.initweight !28, !taffo.target !30

; <label>:396:                                    ; preds = %394
  %397 = fcmp oge float %384, %381, !taffo.info !24, !taffo.initweight !27, !taffo.target !30
  br i1 %397, label %398, label %418, !taffo.info !24, !taffo.initweight !28, !taffo.target !30

; <label>:398:                                    ; preds = %396, %390
  %399 = fmul float %275, %378, !taffo.info !24, !taffo.initweight !27
  %400 = fmul float %282, %371, !taffo.info !24, !taffo.initweight !27
  %401 = fsub float %399, %400, !taffo.info !24, !taffo.initweight !28
  br label %402

; <label>:402:                                    ; preds = %398
  br label %403

; <label>:403:                                    ; preds = %402
  %404 = fcmp ogt float %381, 0.000000e+00, !taffo.info !24, !taffo.initweight !27, !taffo.target !30
  br i1 %404, label %405, label %411, !taffo.info !24, !taffo.initweight !28, !taffo.target !30

; <label>:405:                                    ; preds = %403
  %406 = fcmp oge float %401, 0.000000e+00, !taffo.info !24, !taffo.initweight !27, !taffo.target !30
  br i1 %406, label %407, label %410, !taffo.info !24, !taffo.initweight !28, !taffo.target !30

; <label>:407:                                    ; preds = %405
  %408 = fcmp ole float %401, %381, !taffo.info !24, !taffo.initweight !27, !taffo.target !30
  br i1 %408, label %409, label %410, !taffo.info !24, !taffo.initweight !28, !taffo.target !30

; <label>:409:                                    ; preds = %407
  br label %939

; <label>:410:                                    ; preds = %407, %405
  br label %417

; <label>:411:                                    ; preds = %403
  %412 = fcmp ole float %401, 0.000000e+00, !taffo.info !24, !taffo.initweight !27, !taffo.target !30
  br i1 %412, label %413, label %416, !taffo.info !24, !taffo.initweight !28, !taffo.target !30

; <label>:413:                                    ; preds = %411
  %414 = fcmp oge float %401, %381, !taffo.info !24, !taffo.initweight !27, !taffo.target !30
  br i1 %414, label %415, label %416, !taffo.info !24, !taffo.initweight !28, !taffo.target !30

; <label>:415:                                    ; preds = %413
  br label %939

; <label>:416:                                    ; preds = %413, %411
  br label %417

; <label>:417:                                    ; preds = %416, %410
  br label %418

; <label>:418:                                    ; preds = %392, %394, %396, %417
  %419 = sext i16 %.2 to i64
  %420 = getelementptr inbounds float, float* %6, i64 %419
  %421 = load float, float* %420, align 4
  %422 = sext i16 %.2 to i64
  %423 = getelementptr inbounds float, float* %4, i64 %422
  %424 = load float, float* %423, align 4
  %425 = fsub float %421, %424
  %426 = sext i16 %.24 to i64
  %427 = getelementptr inbounds float, float* %6, i64 %426
  %428 = load float, float* %427, align 4
  %429 = sext i16 %.24 to i64
  %430 = getelementptr inbounds float, float* %4, i64 %429
  %431 = load float, float* %430, align 4
  %432 = fsub float %428, %431
  %433 = sext i16 %.2 to i64
  %434 = getelementptr inbounds float, float* %2, i64 %433
  %435 = load float, float* %434, align 4
  %436 = sext i16 %.2 to i64
  %437 = getelementptr inbounds float, float* %6, i64 %436
  %438 = load float, float* %437, align 4
  %439 = fsub float %435, %438
  %440 = sext i16 %.24 to i64
  %441 = getelementptr inbounds float, float* %2, i64 %440
  %442 = load float, float* %441, align 4
  %443 = sext i16 %.24 to i64
  %444 = getelementptr inbounds float, float* %6, i64 %443
  %445 = load float, float* %444, align 4
  %446 = fsub float %442, %445
  %447 = fmul float %282, %425, !taffo.info !24, !taffo.initweight !27
  %448 = fmul float %275, %432, !taffo.info !24, !taffo.initweight !27
  %449 = fsub float %447, %448, !taffo.info !24, !taffo.initweight !28
  %450 = fmul float %432, %439, !taffo.info !24, !taffo.initweight !27
  %451 = fmul float %425, %446, !taffo.info !24, !taffo.initweight !27
  %452 = fsub float %450, %451, !taffo.info !24, !taffo.initweight !28
  br label %453

; <label>:453:                                    ; preds = %418
  br label %454

; <label>:454:                                    ; preds = %453
  %455 = fcmp ogt float %449, 0.000000e+00, !taffo.info !24, !taffo.initweight !27, !taffo.target !30
  br i1 %455, label %456, label %460, !taffo.info !24, !taffo.initweight !28, !taffo.target !30

; <label>:456:                                    ; preds = %454
  %457 = fcmp oge float %452, 0.000000e+00, !taffo.info !24, !taffo.initweight !27, !taffo.target !30
  br i1 %457, label %458, label %460, !taffo.info !24, !taffo.initweight !28, !taffo.target !30

; <label>:458:                                    ; preds = %456
  %459 = fcmp ole float %452, %449, !taffo.info !24, !taffo.initweight !27, !taffo.target !30
  br i1 %459, label %466, label %460, !taffo.info !24, !taffo.initweight !28, !taffo.target !30

; <label>:460:                                    ; preds = %456, %454, %458
  %461 = fcmp olt float %449, 0.000000e+00, !taffo.info !24, !taffo.initweight !27, !taffo.target !30
  br i1 %461, label %462, label %486, !taffo.info !24, !taffo.initweight !28, !taffo.target !30

; <label>:462:                                    ; preds = %460
  %463 = fcmp ole float %452, 0.000000e+00, !taffo.info !24, !taffo.initweight !27, !taffo.target !30
  br i1 %463, label %464, label %486, !taffo.info !24, !taffo.initweight !28, !taffo.target !30

; <label>:464:                                    ; preds = %462
  %465 = fcmp oge float %452, %449, !taffo.info !24, !taffo.initweight !27, !taffo.target !30
  br i1 %465, label %466, label %486, !taffo.info !24, !taffo.initweight !28, !taffo.target !30

; <label>:466:                                    ; preds = %464, %458
  %467 = fmul float %275, %446, !taffo.info !24, !taffo.initweight !27
  %468 = fmul float %282, %439, !taffo.info !24, !taffo.initweight !27
  %469 = fsub float %467, %468, !taffo.info !24, !taffo.initweight !28
  br label %470

; <label>:470:                                    ; preds = %466
  br label %471

; <label>:471:                                    ; preds = %470
  %472 = fcmp ogt float %449, 0.000000e+00, !taffo.info !24, !taffo.initweight !27, !taffo.target !30
  br i1 %472, label %473, label %479, !taffo.info !24, !taffo.initweight !28, !taffo.target !30

; <label>:473:                                    ; preds = %471
  %474 = fcmp oge float %469, 0.000000e+00, !taffo.info !24, !taffo.initweight !27, !taffo.target !30
  br i1 %474, label %475, label %478, !taffo.info !24, !taffo.initweight !28, !taffo.target !30

; <label>:475:                                    ; preds = %473
  %476 = fcmp ole float %469, %449, !taffo.info !24, !taffo.initweight !27, !taffo.target !30
  br i1 %476, label %477, label %478, !taffo.info !24, !taffo.initweight !28, !taffo.target !30

; <label>:477:                                    ; preds = %475
  br label %939

; <label>:478:                                    ; preds = %473, %475
  br label %485

; <label>:479:                                    ; preds = %471
  %480 = fcmp ole float %469, 0.000000e+00, !taffo.info !24, !taffo.initweight !27, !taffo.target !30
  br i1 %480, label %481, label %484, !taffo.info !24, !taffo.initweight !28, !taffo.target !30

; <label>:481:                                    ; preds = %479
  %482 = fcmp oge float %469, %449, !taffo.info !24, !taffo.initweight !27, !taffo.target !30
  br i1 %482, label %483, label %484, !taffo.info !24, !taffo.initweight !28, !taffo.target !30

; <label>:483:                                    ; preds = %481
  br label %939

; <label>:484:                                    ; preds = %479, %481
  br label %485

; <label>:485:                                    ; preds = %484, %478
  br label %486

; <label>:486:                                    ; preds = %464, %460, %462, %485
  %487 = sext i16 %.2 to i64
  %488 = getelementptr inbounds float, float* %1, i64 %487
  %489 = load float, float* %488, align 4
  %490 = sext i16 %.2 to i64
  %491 = getelementptr inbounds float, float* %3, i64 %490
  %492 = load float, float* %491, align 4
  %493 = fsub float %489, %492
  %494 = sext i16 %.24 to i64
  %495 = getelementptr inbounds float, float* %1, i64 %494
  %496 = load float, float* %495, align 4
  %497 = sext i16 %.24 to i64
  %498 = getelementptr inbounds float, float* %3, i64 %497
  %499 = load float, float* %498, align 4
  %500 = fsub float %496, %499
  %501 = sext i16 %.2 to i64
  %502 = getelementptr inbounds float, float* %4, i64 %501
  %503 = load float, float* %502, align 4
  %504 = sext i16 %.2 to i64
  %505 = getelementptr inbounds float, float* %5, i64 %504
  %506 = load float, float* %505, align 4
  %507 = fsub float %503, %506
  %508 = sext i16 %.24 to i64
  %509 = getelementptr inbounds float, float* %4, i64 %508
  %510 = load float, float* %509, align 4
  %511 = sext i16 %.24 to i64
  %512 = getelementptr inbounds float, float* %5, i64 %511
  %513 = load float, float* %512, align 4
  %514 = fsub float %510, %513
  %515 = sext i16 %.2 to i64
  %516 = getelementptr inbounds float, float* %3, i64 %515
  %517 = load float, float* %516, align 4
  %518 = sext i16 %.2 to i64
  %519 = getelementptr inbounds float, float* %4, i64 %518
  %520 = load float, float* %519, align 4
  %521 = fsub float %517, %520
  %522 = sext i16 %.24 to i64
  %523 = getelementptr inbounds float, float* %3, i64 %522
  %524 = load float, float* %523, align 4
  %525 = sext i16 %.24 to i64
  %526 = getelementptr inbounds float, float* %4, i64 %525
  %527 = load float, float* %526, align 4
  %528 = fsub float %524, %527
  %529 = fmul float %500, %507, !taffo.info !24, !taffo.initweight !27
  %530 = fmul float %493, %514, !taffo.info !24, !taffo.initweight !27
  %531 = fsub float %529, %530, !taffo.info !24, !taffo.initweight !28
  %532 = fmul float %514, %521, !taffo.info !24, !taffo.initweight !27
  %533 = fmul float %507, %528, !taffo.info !24, !taffo.initweight !27
  %534 = fsub float %532, %533, !taffo.info !24, !taffo.initweight !28
  br label %535

; <label>:535:                                    ; preds = %486
  br label %536

; <label>:536:                                    ; preds = %535
  %537 = fcmp ogt float %531, 0.000000e+00, !taffo.info !24, !taffo.initweight !27, !taffo.target !30
  br i1 %537, label %538, label %542, !taffo.info !24, !taffo.initweight !28, !taffo.target !30

; <label>:538:                                    ; preds = %536
  %539 = fcmp oge float %534, 0.000000e+00, !taffo.info !24, !taffo.initweight !27, !taffo.target !30
  br i1 %539, label %540, label %542, !taffo.info !24, !taffo.initweight !28, !taffo.target !30

; <label>:540:                                    ; preds = %538
  %541 = fcmp ole float %534, %531, !taffo.info !24, !taffo.initweight !27, !taffo.target !30
  br i1 %541, label %548, label %542, !taffo.info !24, !taffo.initweight !28, !taffo.target !30

; <label>:542:                                    ; preds = %540, %536, %538
  %543 = fcmp olt float %531, 0.000000e+00, !taffo.info !24, !taffo.initweight !27, !taffo.target !30
  br i1 %543, label %544, label %568, !taffo.info !24, !taffo.initweight !28, !taffo.target !30

; <label>:544:                                    ; preds = %542
  %545 = fcmp ole float %534, 0.000000e+00, !taffo.info !24, !taffo.initweight !27, !taffo.target !30
  br i1 %545, label %546, label %568, !taffo.info !24, !taffo.initweight !28, !taffo.target !30

; <label>:546:                                    ; preds = %544
  %547 = fcmp oge float %534, %531, !taffo.info !24, !taffo.initweight !27, !taffo.target !30
  br i1 %547, label %548, label %568, !taffo.info !24, !taffo.initweight !28, !taffo.target !30

; <label>:548:                                    ; preds = %546, %540
  %549 = fmul float %493, %528, !taffo.info !24, !taffo.initweight !27
  %550 = fmul float %500, %521, !taffo.info !24, !taffo.initweight !27
  %551 = fsub float %549, %550, !taffo.info !24, !taffo.initweight !28
  br label %552

; <label>:552:                                    ; preds = %548
  br label %553

; <label>:553:                                    ; preds = %552
  %554 = fcmp ogt float %531, 0.000000e+00, !taffo.info !24, !taffo.initweight !27, !taffo.target !30
  br i1 %554, label %555, label %561, !taffo.info !24, !taffo.initweight !28, !taffo.target !30

; <label>:555:                                    ; preds = %553
  %556 = fcmp oge float %551, 0.000000e+00, !taffo.info !24, !taffo.initweight !27, !taffo.target !30
  br i1 %556, label %557, label %560, !taffo.info !24, !taffo.initweight !28, !taffo.target !30

; <label>:557:                                    ; preds = %555
  %558 = fcmp ole float %551, %531, !taffo.info !24, !taffo.initweight !27, !taffo.target !30
  br i1 %558, label %559, label %560, !taffo.info !24, !taffo.initweight !28, !taffo.target !30

; <label>:559:                                    ; preds = %557
  br label %939

; <label>:560:                                    ; preds = %557, %555
  br label %567

; <label>:561:                                    ; preds = %553
  %562 = fcmp ole float %551, 0.000000e+00, !taffo.info !24, !taffo.initweight !27, !taffo.target !30
  br i1 %562, label %563, label %566, !taffo.info !24, !taffo.initweight !28, !taffo.target !30

; <label>:563:                                    ; preds = %561
  %564 = fcmp oge float %551, %531, !taffo.info !24, !taffo.initweight !27, !taffo.target !30
  br i1 %564, label %565, label %566, !taffo.info !24, !taffo.initweight !28, !taffo.target !30

; <label>:565:                                    ; preds = %563
  br label %939

; <label>:566:                                    ; preds = %563, %561
  br label %567

; <label>:567:                                    ; preds = %566, %560
  br label %568

; <label>:568:                                    ; preds = %542, %544, %546, %567
  %569 = sext i16 %.2 to i64
  %570 = getelementptr inbounds float, float* %5, i64 %569
  %571 = load float, float* %570, align 4
  %572 = sext i16 %.2 to i64
  %573 = getelementptr inbounds float, float* %6, i64 %572
  %574 = load float, float* %573, align 4
  %575 = fsub float %571, %574
  %576 = sext i16 %.24 to i64
  %577 = getelementptr inbounds float, float* %5, i64 %576
  %578 = load float, float* %577, align 4
  %579 = sext i16 %.24 to i64
  %580 = getelementptr inbounds float, float* %6, i64 %579
  %581 = load float, float* %580, align 4
  %582 = fsub float %578, %581
  %583 = sext i16 %.2 to i64
  %584 = getelementptr inbounds float, float* %3, i64 %583
  %585 = load float, float* %584, align 4
  %586 = sext i16 %.2 to i64
  %587 = getelementptr inbounds float, float* %5, i64 %586
  %588 = load float, float* %587, align 4
  %589 = fsub float %585, %588
  %590 = sext i16 %.24 to i64
  %591 = getelementptr inbounds float, float* %3, i64 %590
  %592 = load float, float* %591, align 4
  %593 = sext i16 %.24 to i64
  %594 = getelementptr inbounds float, float* %5, i64 %593
  %595 = load float, float* %594, align 4
  %596 = fsub float %592, %595
  %597 = fmul float %500, %575, !taffo.info !24, !taffo.initweight !27
  %598 = fmul float %493, %582, !taffo.info !24, !taffo.initweight !27
  %599 = fsub float %597, %598, !taffo.info !24, !taffo.initweight !28
  %600 = fmul float %582, %589, !taffo.info !24, !taffo.initweight !27
  %601 = fmul float %575, %596, !taffo.info !24, !taffo.initweight !27
  %602 = fsub float %600, %601, !taffo.info !24, !taffo.initweight !28
  br label %603

; <label>:603:                                    ; preds = %568
  br label %604

; <label>:604:                                    ; preds = %603
  %605 = fcmp ogt float %599, 0.000000e+00, !taffo.info !24, !taffo.initweight !27, !taffo.target !30
  br i1 %605, label %606, label %610, !taffo.info !24, !taffo.initweight !28, !taffo.target !30

; <label>:606:                                    ; preds = %604
  %607 = fcmp oge float %602, 0.000000e+00, !taffo.info !24, !taffo.initweight !27, !taffo.target !30
  br i1 %607, label %608, label %610, !taffo.info !24, !taffo.initweight !28, !taffo.target !30

; <label>:608:                                    ; preds = %606
  %609 = fcmp ole float %602, %599, !taffo.info !24, !taffo.initweight !27, !taffo.target !30
  br i1 %609, label %616, label %610, !taffo.info !24, !taffo.initweight !28, !taffo.target !30

; <label>:610:                                    ; preds = %608, %606, %604
  %611 = fcmp olt float %599, 0.000000e+00, !taffo.info !24, !taffo.initweight !27, !taffo.target !30
  br i1 %611, label %612, label %636, !taffo.info !24, !taffo.initweight !28, !taffo.target !30

; <label>:612:                                    ; preds = %610
  %613 = fcmp ole float %602, 0.000000e+00, !taffo.info !24, !taffo.initweight !27, !taffo.target !30
  br i1 %613, label %614, label %636, !taffo.info !24, !taffo.initweight !28, !taffo.target !30

; <label>:614:                                    ; preds = %612
  %615 = fcmp oge float %602, %599, !taffo.info !24, !taffo.initweight !27, !taffo.target !30
  br i1 %615, label %616, label %636, !taffo.info !24, !taffo.initweight !28, !taffo.target !30

; <label>:616:                                    ; preds = %608, %614
  %617 = fmul float %493, %596, !taffo.info !24, !taffo.initweight !27
  %618 = fmul float %500, %589, !taffo.info !24, !taffo.initweight !27
  %619 = fsub float %617, %618, !taffo.info !24, !taffo.initweight !28
  br label %620

; <label>:620:                                    ; preds = %616
  br label %621

; <label>:621:                                    ; preds = %620
  %622 = fcmp ogt float %599, 0.000000e+00, !taffo.info !24, !taffo.initweight !27, !taffo.target !30
  br i1 %622, label %623, label %629, !taffo.info !24, !taffo.initweight !28, !taffo.target !30

; <label>:623:                                    ; preds = %621
  %624 = fcmp oge float %619, 0.000000e+00, !taffo.info !24, !taffo.initweight !27, !taffo.target !30
  br i1 %624, label %625, label %628, !taffo.info !24, !taffo.initweight !28, !taffo.target !30

; <label>:625:                                    ; preds = %623
  %626 = fcmp ole float %619, %599, !taffo.info !24, !taffo.initweight !27, !taffo.target !30
  br i1 %626, label %627, label %628, !taffo.info !24, !taffo.initweight !28, !taffo.target !30

; <label>:627:                                    ; preds = %625
  br label %939

; <label>:628:                                    ; preds = %625, %623
  br label %635

; <label>:629:                                    ; preds = %621
  %630 = fcmp ole float %619, 0.000000e+00, !taffo.info !24, !taffo.initweight !27, !taffo.target !30
  br i1 %630, label %631, label %634, !taffo.info !24, !taffo.initweight !28, !taffo.target !30

; <label>:631:                                    ; preds = %629
  %632 = fcmp oge float %619, %599, !taffo.info !24, !taffo.initweight !27, !taffo.target !30
  br i1 %632, label %633, label %634, !taffo.info !24, !taffo.initweight !28, !taffo.target !30

; <label>:633:                                    ; preds = %631
  br label %939

; <label>:634:                                    ; preds = %631, %629
  br label %635

; <label>:635:                                    ; preds = %634, %628
  br label %636

; <label>:636:                                    ; preds = %610, %614, %612, %635
  %637 = sext i16 %.2 to i64
  %638 = getelementptr inbounds float, float* %6, i64 %637
  %639 = load float, float* %638, align 4
  %640 = sext i16 %.2 to i64
  %641 = getelementptr inbounds float, float* %4, i64 %640
  %642 = load float, float* %641, align 4
  %643 = fsub float %639, %642
  %644 = sext i16 %.24 to i64
  %645 = getelementptr inbounds float, float* %6, i64 %644
  %646 = load float, float* %645, align 4
  %647 = sext i16 %.24 to i64
  %648 = getelementptr inbounds float, float* %4, i64 %647
  %649 = load float, float* %648, align 4
  %650 = fsub float %646, %649
  %651 = sext i16 %.2 to i64
  %652 = getelementptr inbounds float, float* %3, i64 %651
  %653 = load float, float* %652, align 4
  %654 = sext i16 %.2 to i64
  %655 = getelementptr inbounds float, float* %6, i64 %654
  %656 = load float, float* %655, align 4
  %657 = fsub float %653, %656
  %658 = sext i16 %.24 to i64
  %659 = getelementptr inbounds float, float* %3, i64 %658
  %660 = load float, float* %659, align 4
  %661 = sext i16 %.24 to i64
  %662 = getelementptr inbounds float, float* %6, i64 %661
  %663 = load float, float* %662, align 4
  %664 = fsub float %660, %663
  %665 = fmul float %500, %643, !taffo.info !24, !taffo.initweight !27
  %666 = fmul float %493, %650, !taffo.info !24, !taffo.initweight !27
  %667 = fsub float %665, %666, !taffo.info !24, !taffo.initweight !28
  %668 = fmul float %650, %657, !taffo.info !24, !taffo.initweight !27
  %669 = fmul float %643, %664, !taffo.info !24, !taffo.initweight !27
  %670 = fsub float %668, %669, !taffo.info !24, !taffo.initweight !28
  br label %671

; <label>:671:                                    ; preds = %636
  br label %672

; <label>:672:                                    ; preds = %671
  %673 = fcmp ogt float %667, 0.000000e+00, !taffo.info !24, !taffo.initweight !27, !taffo.target !30
  br i1 %673, label %674, label %678, !taffo.info !24, !taffo.initweight !28, !taffo.target !30

; <label>:674:                                    ; preds = %672
  %675 = fcmp oge float %670, 0.000000e+00, !taffo.info !24, !taffo.initweight !27, !taffo.target !30
  br i1 %675, label %676, label %678, !taffo.info !24, !taffo.initweight !28, !taffo.target !30

; <label>:676:                                    ; preds = %674
  %677 = fcmp ole float %670, %667, !taffo.info !24, !taffo.initweight !27, !taffo.target !30
  br i1 %677, label %684, label %678, !taffo.info !24, !taffo.initweight !28, !taffo.target !30

; <label>:678:                                    ; preds = %676, %674, %672
  %679 = fcmp olt float %667, 0.000000e+00, !taffo.info !24, !taffo.initweight !27, !taffo.target !30
  br i1 %679, label %680, label %704, !taffo.info !24, !taffo.initweight !28, !taffo.target !30

; <label>:680:                                    ; preds = %678
  %681 = fcmp ole float %670, 0.000000e+00, !taffo.info !24, !taffo.initweight !27, !taffo.target !30
  br i1 %681, label %682, label %704, !taffo.info !24, !taffo.initweight !28, !taffo.target !30

; <label>:682:                                    ; preds = %680
  %683 = fcmp oge float %670, %667, !taffo.info !24, !taffo.initweight !27, !taffo.target !30
  br i1 %683, label %684, label %704, !taffo.info !24, !taffo.initweight !28, !taffo.target !30

; <label>:684:                                    ; preds = %676, %682
  %685 = fmul float %493, %664, !taffo.info !24, !taffo.initweight !27
  %686 = fmul float %500, %657, !taffo.info !24, !taffo.initweight !27
  %687 = fsub float %685, %686, !taffo.info !24, !taffo.initweight !28
  br label %688

; <label>:688:                                    ; preds = %684
  br label %689

; <label>:689:                                    ; preds = %688
  %690 = fcmp ogt float %667, 0.000000e+00, !taffo.info !24, !taffo.initweight !27, !taffo.target !30
  br i1 %690, label %691, label %697, !taffo.info !24, !taffo.initweight !28, !taffo.target !30

; <label>:691:                                    ; preds = %689
  %692 = fcmp oge float %687, 0.000000e+00, !taffo.info !24, !taffo.initweight !27, !taffo.target !30
  br i1 %692, label %693, label %696, !taffo.info !24, !taffo.initweight !28, !taffo.target !30

; <label>:693:                                    ; preds = %691
  %694 = fcmp ole float %687, %667, !taffo.info !24, !taffo.initweight !27, !taffo.target !30
  br i1 %694, label %695, label %696, !taffo.info !24, !taffo.initweight !28, !taffo.target !30

; <label>:695:                                    ; preds = %693
  br label %939

; <label>:696:                                    ; preds = %693, %691
  br label %703

; <label>:697:                                    ; preds = %689
  %698 = fcmp ole float %687, 0.000000e+00, !taffo.info !24, !taffo.initweight !27, !taffo.target !30
  br i1 %698, label %699, label %702, !taffo.info !24, !taffo.initweight !28, !taffo.target !30

; <label>:699:                                    ; preds = %697
  %700 = fcmp oge float %687, %667, !taffo.info !24, !taffo.initweight !27, !taffo.target !30
  br i1 %700, label %701, label %702, !taffo.info !24, !taffo.initweight !28, !taffo.target !30

; <label>:701:                                    ; preds = %699
  br label %939

; <label>:702:                                    ; preds = %699, %697
  br label %703

; <label>:703:                                    ; preds = %702, %696
  br label %704

; <label>:704:                                    ; preds = %678, %680, %682, %703
  %705 = sext i16 %.24 to i64
  %706 = getelementptr inbounds float, float* %5, i64 %705
  %707 = load float, float* %706, align 4
  %708 = sext i16 %.24 to i64
  %709 = getelementptr inbounds float, float* %4, i64 %708
  %710 = load float, float* %709, align 4
  %711 = fsub float %707, %710
  %712 = sext i16 %.2 to i64
  %713 = getelementptr inbounds float, float* %5, i64 %712
  %714 = load float, float* %713, align 4
  %715 = sext i16 %.2 to i64
  %716 = getelementptr inbounds float, float* %4, i64 %715
  %717 = load float, float* %716, align 4
  %718 = fsub float %714, %717
  %719 = fsub float -0.000000e+00, %718, !taffo.constinfo !31
  %720 = fsub float -0.000000e+00, %711, !taffo.info !24, !taffo.initweight !27, !taffo.constinfo !31
  %721 = sext i16 %.2 to i64
  %722 = getelementptr inbounds float, float* %4, i64 %721
  %723 = load float, float* %722, align 4
  %724 = fmul float %720, %723, !taffo.info !24, !taffo.initweight !28
  %725 = sext i16 %.24 to i64
  %726 = getelementptr inbounds float, float* %4, i64 %725
  %727 = load float, float* %726, align 4
  %728 = fmul float %719, %727, !taffo.info !24, !taffo.initweight !27
  %729 = fsub float %724, %728, !taffo.info !24, !taffo.initweight !28
  %730 = sext i16 %.2 to i64
  %731 = getelementptr inbounds float, float* %1, i64 %730
  %732 = load float, float* %731, align 4
  %733 = fmul float %711, %732, !taffo.info !24, !taffo.initweight !27
  %734 = sext i16 %.24 to i64
  %735 = getelementptr inbounds float, float* %1, i64 %734
  %736 = load float, float* %735, align 4
  %737 = fmul float %719, %736, !taffo.info !24, !taffo.initweight !27
  %738 = fadd float %733, %737, !taffo.info !24, !taffo.initweight !28
  %739 = fadd float %738, %729, !taffo.info !24, !taffo.initweight !27
  %740 = sext i16 %.24 to i64
  %741 = getelementptr inbounds float, float* %6, i64 %740
  %742 = load float, float* %741, align 4
  %743 = sext i16 %.24 to i64
  %744 = getelementptr inbounds float, float* %5, i64 %743
  %745 = load float, float* %744, align 4
  %746 = fsub float %742, %745
  %747 = sext i16 %.2 to i64
  %748 = getelementptr inbounds float, float* %6, i64 %747
  %749 = load float, float* %748, align 4
  %750 = sext i16 %.2 to i64
  %751 = getelementptr inbounds float, float* %5, i64 %750
  %752 = load float, float* %751, align 4
  %753 = fsub float %749, %752
  %754 = fsub float -0.000000e+00, %753, !taffo.constinfo !31
  %755 = fsub float -0.000000e+00, %746, !taffo.info !24, !taffo.initweight !27, !taffo.constinfo !31
  %756 = sext i16 %.2 to i64
  %757 = getelementptr inbounds float, float* %5, i64 %756
  %758 = load float, float* %757, align 4
  %759 = fmul float %755, %758, !taffo.info !24, !taffo.initweight !28
  %760 = sext i16 %.24 to i64
  %761 = getelementptr inbounds float, float* %5, i64 %760
  %762 = load float, float* %761, align 4
  %763 = fmul float %754, %762, !taffo.info !24, !taffo.initweight !27
  %764 = fsub float %759, %763, !taffo.info !24, !taffo.initweight !28
  %765 = sext i16 %.2 to i64
  %766 = getelementptr inbounds float, float* %1, i64 %765
  %767 = load float, float* %766, align 4
  %768 = fmul float %746, %767, !taffo.info !24, !taffo.initweight !27
  %769 = sext i16 %.24 to i64
  %770 = getelementptr inbounds float, float* %1, i64 %769
  %771 = load float, float* %770, align 4
  %772 = fmul float %754, %771, !taffo.info !24, !taffo.initweight !27
  %773 = fadd float %768, %772, !taffo.info !24, !taffo.initweight !28
  %774 = fadd float %773, %764, !taffo.info !24, !taffo.initweight !27
  %775 = sext i16 %.24 to i64
  %776 = getelementptr inbounds float, float* %4, i64 %775
  %777 = load float, float* %776, align 4
  %778 = sext i16 %.24 to i64
  %779 = getelementptr inbounds float, float* %6, i64 %778
  %780 = load float, float* %779, align 4
  %781 = fsub float %777, %780
  %782 = sext i16 %.2 to i64
  %783 = getelementptr inbounds float, float* %4, i64 %782
  %784 = load float, float* %783, align 4
  %785 = sext i16 %.2 to i64
  %786 = getelementptr inbounds float, float* %6, i64 %785
  %787 = load float, float* %786, align 4
  %788 = fsub float %784, %787
  %789 = fsub float -0.000000e+00, %788, !taffo.constinfo !31
  %790 = fsub float -0.000000e+00, %781, !taffo.info !24, !taffo.initweight !27, !taffo.constinfo !31
  %791 = sext i16 %.2 to i64
  %792 = getelementptr inbounds float, float* %6, i64 %791
  %793 = load float, float* %792, align 4
  %794 = fmul float %790, %793, !taffo.info !24, !taffo.initweight !28
  %795 = sext i16 %.24 to i64
  %796 = getelementptr inbounds float, float* %6, i64 %795
  %797 = load float, float* %796, align 4
  %798 = fmul float %789, %797, !taffo.info !24, !taffo.initweight !27
  %799 = fsub float %794, %798, !taffo.info !24, !taffo.initweight !28
  %800 = sext i16 %.2 to i64
  %801 = getelementptr inbounds float, float* %1, i64 %800
  %802 = load float, float* %801, align 4
  %803 = fmul float %781, %802, !taffo.info !24, !taffo.initweight !27
  %804 = sext i16 %.24 to i64
  %805 = getelementptr inbounds float, float* %1, i64 %804
  %806 = load float, float* %805, align 4
  %807 = fmul float %789, %806, !taffo.info !24, !taffo.initweight !27
  %808 = fadd float %803, %807, !taffo.info !24, !taffo.initweight !28
  %809 = fadd float %808, %799, !taffo.info !24, !taffo.initweight !27
  %810 = fmul float %739, %774, !taffo.info !24, !taffo.initweight !27
  %811 = fmul float %739, %809, !taffo.info !24, !taffo.initweight !27
  br label %812

; <label>:812:                                    ; preds = %704
  br label %813

; <label>:813:                                    ; preds = %812
  %814 = fpext float %810 to double, !taffo.info !24, !taffo.initweight !27, !taffo.target !34
  %815 = fcmp ogt double %814, 0.000000e+00, !taffo.info !24, !taffo.initweight !28, !taffo.target !34
  br i1 %815, label %816, label %821, !taffo.info !24, !taffo.initweight !29, !taffo.target !34

; <label>:816:                                    ; preds = %813
  %817 = fpext float %811 to double, !taffo.info !24, !taffo.initweight !27, !taffo.target !34
  %818 = fcmp ogt double %817, 0.000000e+00, !taffo.info !24, !taffo.initweight !28, !taffo.target !34
  br i1 %818, label %819, label %820, !taffo.info !24, !taffo.initweight !29, !taffo.target !34

; <label>:819:                                    ; preds = %816
  br label %939

; <label>:820:                                    ; preds = %816
  br label %821

; <label>:821:                                    ; preds = %813, %820
  %822 = sext i16 %.24 to i64
  %823 = getelementptr inbounds float, float* %2, i64 %822
  %824 = load float, float* %823, align 4
  %825 = sext i16 %.24 to i64
  %826 = getelementptr inbounds float, float* %1, i64 %825
  %827 = load float, float* %826, align 4
  %828 = fsub float %824, %827
  %829 = sext i16 %.2 to i64
  %830 = getelementptr inbounds float, float* %2, i64 %829
  %831 = load float, float* %830, align 4
  %832 = sext i16 %.2 to i64
  %833 = getelementptr inbounds float, float* %1, i64 %832
  %834 = load float, float* %833, align 4
  %835 = fsub float %831, %834
  %836 = fsub float -0.000000e+00, %835, !taffo.constinfo !31
  %837 = fsub float -0.000000e+00, %828, !taffo.info !24, !taffo.initweight !27, !taffo.constinfo !31
  %838 = sext i16 %.2 to i64
  %839 = getelementptr inbounds float, float* %1, i64 %838
  %840 = load float, float* %839, align 4
  %841 = fmul float %837, %840, !taffo.info !24, !taffo.initweight !28
  %842 = sext i16 %.24 to i64
  %843 = getelementptr inbounds float, float* %1, i64 %842
  %844 = load float, float* %843, align 4
  %845 = fmul float %836, %844, !taffo.info !24, !taffo.initweight !27
  %846 = fsub float %841, %845, !taffo.info !24, !taffo.initweight !28
  %847 = sext i16 %.2 to i64
  %848 = getelementptr inbounds float, float* %4, i64 %847
  %849 = load float, float* %848, align 4
  %850 = fmul float %828, %849, !taffo.info !24, !taffo.initweight !27
  %851 = sext i16 %.24 to i64
  %852 = getelementptr inbounds float, float* %4, i64 %851
  %853 = load float, float* %852, align 4
  %854 = fmul float %836, %853, !taffo.info !24, !taffo.initweight !27
  %855 = fadd float %850, %854, !taffo.info !24, !taffo.initweight !28
  %856 = fadd float %855, %846, !taffo.info !24, !taffo.initweight !27
  %857 = sext i16 %.24 to i64
  %858 = getelementptr inbounds float, float* %3, i64 %857
  %859 = load float, float* %858, align 4
  %860 = sext i16 %.24 to i64
  %861 = getelementptr inbounds float, float* %2, i64 %860
  %862 = load float, float* %861, align 4
  %863 = fsub float %859, %862
  %864 = sext i16 %.2 to i64
  %865 = getelementptr inbounds float, float* %3, i64 %864
  %866 = load float, float* %865, align 4
  %867 = sext i16 %.2 to i64
  %868 = getelementptr inbounds float, float* %2, i64 %867
  %869 = load float, float* %868, align 4
  %870 = fsub float %866, %869
  %871 = fsub float -0.000000e+00, %870, !taffo.constinfo !31
  %872 = fsub float -0.000000e+00, %863, !taffo.info !24, !taffo.initweight !27, !taffo.constinfo !31
  %873 = sext i16 %.2 to i64
  %874 = getelementptr inbounds float, float* %2, i64 %873
  %875 = load float, float* %874, align 4
  %876 = fmul float %872, %875, !taffo.info !24, !taffo.initweight !28
  %877 = sext i16 %.24 to i64
  %878 = getelementptr inbounds float, float* %2, i64 %877
  %879 = load float, float* %878, align 4
  %880 = fmul float %871, %879, !taffo.info !24, !taffo.initweight !27
  %881 = fsub float %876, %880, !taffo.info !24, !taffo.initweight !28
  %882 = sext i16 %.2 to i64
  %883 = getelementptr inbounds float, float* %4, i64 %882
  %884 = load float, float* %883, align 4
  %885 = fmul float %863, %884, !taffo.info !24, !taffo.initweight !27
  %886 = sext i16 %.24 to i64
  %887 = getelementptr inbounds float, float* %4, i64 %886
  %888 = load float, float* %887, align 4
  %889 = fmul float %871, %888, !taffo.info !24, !taffo.initweight !27
  %890 = fadd float %885, %889, !taffo.info !24, !taffo.initweight !28
  %891 = fadd float %890, %881, !taffo.info !24, !taffo.initweight !27
  %892 = sext i16 %.24 to i64
  %893 = getelementptr inbounds float, float* %1, i64 %892
  %894 = load float, float* %893, align 4
  %895 = sext i16 %.24 to i64
  %896 = getelementptr inbounds float, float* %3, i64 %895
  %897 = load float, float* %896, align 4
  %898 = fsub float %894, %897
  %899 = sext i16 %.2 to i64
  %900 = getelementptr inbounds float, float* %1, i64 %899
  %901 = load float, float* %900, align 4
  %902 = sext i16 %.2 to i64
  %903 = getelementptr inbounds float, float* %3, i64 %902
  %904 = load float, float* %903, align 4
  %905 = fsub float %901, %904
  %906 = fsub float -0.000000e+00, %905, !taffo.constinfo !31
  %907 = fsub float -0.000000e+00, %898, !taffo.info !24, !taffo.initweight !27, !taffo.constinfo !31
  %908 = sext i16 %.2 to i64
  %909 = getelementptr inbounds float, float* %3, i64 %908
  %910 = load float, float* %909, align 4
  %911 = fmul float %907, %910, !taffo.info !24, !taffo.initweight !28
  %912 = sext i16 %.24 to i64
  %913 = getelementptr inbounds float, float* %3, i64 %912
  %914 = load float, float* %913, align 4
  %915 = fmul float %906, %914, !taffo.info !24, !taffo.initweight !27
  %916 = fsub float %911, %915, !taffo.info !24, !taffo.initweight !28
  %917 = sext i16 %.2 to i64
  %918 = getelementptr inbounds float, float* %4, i64 %917
  %919 = load float, float* %918, align 4
  %920 = fmul float %898, %919, !taffo.info !24, !taffo.initweight !27
  %921 = sext i16 %.24 to i64
  %922 = getelementptr inbounds float, float* %4, i64 %921
  %923 = load float, float* %922, align 4
  %924 = fmul float %906, %923, !taffo.info !24, !taffo.initweight !27
  %925 = fadd float %920, %924, !taffo.info !24, !taffo.initweight !28
  %926 = fadd float %925, %916, !taffo.info !24, !taffo.initweight !27
  %927 = fmul float %856, %891, !taffo.info !24, !taffo.initweight !27
  %928 = fmul float %856, %926, !taffo.info !24, !taffo.initweight !27
  br label %929

; <label>:929:                                    ; preds = %821
  br label %930

; <label>:930:                                    ; preds = %929
  %931 = fpext float %927 to double, !taffo.info !24, !taffo.initweight !27, !taffo.target !34
  %932 = fcmp ogt double %931, 0.000000e+00, !taffo.info !24, !taffo.initweight !28, !taffo.target !34
  br i1 %932, label %933, label %938, !taffo.info !24, !taffo.initweight !29, !taffo.target !34

; <label>:933:                                    ; preds = %930
  %934 = fpext float %928 to double, !taffo.info !24, !taffo.initweight !27, !taffo.target !34
  %935 = fcmp ogt double %934, 0.000000e+00, !taffo.info !24, !taffo.initweight !28, !taffo.target !34
  br i1 %935, label %936, label %937, !taffo.info !24, !taffo.initweight !29, !taffo.target !34

; <label>:936:                                    ; preds = %933
  br label %939

; <label>:937:                                    ; preds = %933
  br label %938

; <label>:938:                                    ; preds = %930, %937
  br label %939

; <label>:939:                                    ; preds = %938, %936, %819, %701, %695, %633, %627, %565, %559, %483, %477, %415, %409, %347, %341, %265, %259, %197, %191, %129, %123
  %.0 = phi i32 [ 1, %123 ], [ 1, %191 ], [ 1, %259 ], [ 1, %341 ], [ 1, %409 ], [ 1, %477 ], [ 1, %559 ], [ 1, %627 ], [ 1, %695 ], [ 1, %819 ], [ 1, %936 ], [ 0, %938 ], [ 1, %701 ], [ 1, %633 ], [ 1, %565 ], [ 1, %483 ], [ 1, %415 ], [ 1, %347 ], [ 1, %265 ], [ 1, %197 ], [ 1, %129 ]
  ret i32 %.0
}

; Function Attrs: nounwind readnone speculatable
declare !taffo.initweight !17 !taffo.funinfo !18 double @llvm.fabs.f64(double) #5

; Function Attrs: noinline nounwind uwtable
define dso_local i32 @_Z17tri_tri_intersectPfS_S_S_S_S_S_Pi(float*, float*, float*, float*, float*, float*, float*, i32*) #4 !taffo.initweight !35 !taffo.funinfo !36 !taffo.equivalentChild !37 {
  %9 = alloca [3 x float], align 4, !taffo.info !24, !taffo.initweight !25
  %10 = alloca [3 x float], align 4, !taffo.info !24, !taffo.initweight !25
  %11 = alloca [3 x float], align 4, !taffo.info !24, !taffo.initweight !25
  %12 = alloca [3 x float], align 4, !taffo.info !24, !taffo.initweight !25
  %13 = alloca [3 x float], align 4, !taffo.info !24, !taffo.initweight !25
  %14 = alloca [2 x float], align 4, !taffo.info !24, !taffo.initweight !25
  %15 = alloca [2 x float], align 4, !taffo.info !24, !taffo.initweight !25
  %16 = getelementptr inbounds float, float* %1, i64 0, !taffo.info !24, !taffo.initweight !27
  %17 = load float, float* %16, align 4, !taffo.info !24, !taffo.initweight !28
  %18 = getelementptr inbounds float, float* %0, i64 0, !taffo.info !24, !taffo.initweight !27
  %19 = load float, float* %18, align 4, !taffo.info !24, !taffo.initweight !28
  %20 = fsub float %17, %19, !taffo.info !24, !taffo.initweight !29
  %21 = getelementptr inbounds [3 x float], [3 x float]* %9, i64 0, i64 0, !taffo.info !24, !taffo.initweight !26
  store float %20, float* %21, align 4, !taffo.info !24
  %22 = getelementptr inbounds float, float* %1, i64 1, !taffo.info !24, !taffo.initweight !27
  %23 = load float, float* %22, align 4, !taffo.info !24, !taffo.initweight !28
  %24 = getelementptr inbounds float, float* %0, i64 1, !taffo.info !24, !taffo.initweight !27
  %25 = load float, float* %24, align 4, !taffo.info !24, !taffo.initweight !28
  %26 = fsub float %23, %25, !taffo.info !24, !taffo.initweight !29
  %27 = getelementptr inbounds [3 x float], [3 x float]* %9, i64 0, i64 1, !taffo.info !24, !taffo.initweight !26
  store float %26, float* %27, align 4, !taffo.info !24
  %28 = getelementptr inbounds float, float* %1, i64 2, !taffo.info !24, !taffo.initweight !27
  %29 = load float, float* %28, align 4, !taffo.info !24, !taffo.initweight !28
  %30 = getelementptr inbounds float, float* %0, i64 2, !taffo.info !24, !taffo.initweight !27
  %31 = load float, float* %30, align 4, !taffo.info !24, !taffo.initweight !28
  %32 = fsub float %29, %31, !taffo.info !24, !taffo.initweight !29
  %33 = getelementptr inbounds [3 x float], [3 x float]* %9, i64 0, i64 2, !taffo.info !24, !taffo.initweight !26
  store float %32, float* %33, align 4, !taffo.info !24
  %34 = getelementptr inbounds float, float* %2, i64 0, !taffo.info !24, !taffo.initweight !27
  %35 = load float, float* %34, align 4, !taffo.info !24, !taffo.initweight !28
  %36 = getelementptr inbounds float, float* %0, i64 0, !taffo.info !24, !taffo.initweight !27
  %37 = load float, float* %36, align 4, !taffo.info !24, !taffo.initweight !28
  %38 = fsub float %35, %37, !taffo.info !24, !taffo.initweight !29
  %39 = getelementptr inbounds [3 x float], [3 x float]* %10, i64 0, i64 0, !taffo.info !24, !taffo.initweight !26
  store float %38, float* %39, align 4, !taffo.info !24
  %40 = getelementptr inbounds float, float* %2, i64 1, !taffo.info !24, !taffo.initweight !27
  %41 = load float, float* %40, align 4, !taffo.info !24, !taffo.initweight !28
  %42 = getelementptr inbounds float, float* %0, i64 1, !taffo.info !24, !taffo.initweight !27
  %43 = load float, float* %42, align 4, !taffo.info !24, !taffo.initweight !28
  %44 = fsub float %41, %43, !taffo.info !24, !taffo.initweight !29
  %45 = getelementptr inbounds [3 x float], [3 x float]* %10, i64 0, i64 1, !taffo.info !24, !taffo.initweight !26
  store float %44, float* %45, align 4, !taffo.info !24
  %46 = getelementptr inbounds float, float* %2, i64 2, !taffo.info !24, !taffo.initweight !27
  %47 = load float, float* %46, align 4, !taffo.info !24, !taffo.initweight !28
  %48 = getelementptr inbounds float, float* %0, i64 2, !taffo.info !24, !taffo.initweight !27
  %49 = load float, float* %48, align 4, !taffo.info !24, !taffo.initweight !28
  %50 = fsub float %47, %49, !taffo.info !24, !taffo.initweight !29
  %51 = getelementptr inbounds [3 x float], [3 x float]* %10, i64 0, i64 2, !taffo.info !24, !taffo.initweight !26
  store float %50, float* %51, align 4, !taffo.info !24
  %52 = getelementptr inbounds [3 x float], [3 x float]* %9, i64 0, i64 1, !taffo.info !24, !taffo.initweight !26
  %53 = load float, float* %52, align 4, !taffo.info !24, !taffo.initweight !27
  %54 = getelementptr inbounds [3 x float], [3 x float]* %10, i64 0, i64 2, !taffo.info !24, !taffo.initweight !26
  %55 = load float, float* %54, align 4, !taffo.info !24, !taffo.initweight !27
  %56 = fmul float %53, %55, !taffo.info !24, !taffo.initweight !28
  %57 = getelementptr inbounds [3 x float], [3 x float]* %9, i64 0, i64 2, !taffo.info !24, !taffo.initweight !26
  %58 = load float, float* %57, align 4, !taffo.info !24, !taffo.initweight !27
  %59 = getelementptr inbounds [3 x float], [3 x float]* %10, i64 0, i64 1, !taffo.info !24, !taffo.initweight !26
  %60 = load float, float* %59, align 4, !taffo.info !24, !taffo.initweight !27
  %61 = fmul float %58, %60, !taffo.info !24, !taffo.initweight !28
  %62 = fsub float %56, %61, !taffo.info !24, !taffo.initweight !29
  %63 = getelementptr inbounds [3 x float], [3 x float]* %11, i64 0, i64 0, !taffo.info !24, !taffo.initweight !26
  store float %62, float* %63, align 4, !taffo.info !24
  %64 = getelementptr inbounds [3 x float], [3 x float]* %9, i64 0, i64 2, !taffo.info !24, !taffo.initweight !26
  %65 = load float, float* %64, align 4, !taffo.info !24, !taffo.initweight !27
  %66 = getelementptr inbounds [3 x float], [3 x float]* %10, i64 0, i64 0, !taffo.info !24, !taffo.initweight !26
  %67 = load float, float* %66, align 4, !taffo.info !24, !taffo.initweight !27
  %68 = fmul float %65, %67, !taffo.info !24, !taffo.initweight !28
  %69 = getelementptr inbounds [3 x float], [3 x float]* %9, i64 0, i64 0, !taffo.info !24, !taffo.initweight !26
  %70 = load float, float* %69, align 4, !taffo.info !24, !taffo.initweight !27
  %71 = getelementptr inbounds [3 x float], [3 x float]* %10, i64 0, i64 2, !taffo.info !24, !taffo.initweight !26
  %72 = load float, float* %71, align 4, !taffo.info !24, !taffo.initweight !27
  %73 = fmul float %70, %72, !taffo.info !24, !taffo.initweight !28
  %74 = fsub float %68, %73, !taffo.info !24, !taffo.initweight !29
  %75 = getelementptr inbounds [3 x float], [3 x float]* %11, i64 0, i64 1, !taffo.info !24, !taffo.initweight !26
  store float %74, float* %75, align 4, !taffo.info !24
  %76 = getelementptr inbounds [3 x float], [3 x float]* %9, i64 0, i64 0, !taffo.info !24, !taffo.initweight !26
  %77 = load float, float* %76, align 4, !taffo.info !24, !taffo.initweight !27
  %78 = getelementptr inbounds [3 x float], [3 x float]* %10, i64 0, i64 1, !taffo.info !24, !taffo.initweight !26
  %79 = load float, float* %78, align 4, !taffo.info !24, !taffo.initweight !27
  %80 = fmul float %77, %79, !taffo.info !24, !taffo.initweight !28
  %81 = getelementptr inbounds [3 x float], [3 x float]* %9, i64 0, i64 1, !taffo.info !24, !taffo.initweight !26
  %82 = load float, float* %81, align 4, !taffo.info !24, !taffo.initweight !27
  %83 = getelementptr inbounds [3 x float], [3 x float]* %10, i64 0, i64 0, !taffo.info !24, !taffo.initweight !26
  %84 = load float, float* %83, align 4, !taffo.info !24, !taffo.initweight !27
  %85 = fmul float %82, %84, !taffo.info !24, !taffo.initweight !28
  %86 = fsub float %80, %85, !taffo.info !24, !taffo.initweight !29
  %87 = getelementptr inbounds [3 x float], [3 x float]* %11, i64 0, i64 2, !taffo.info !24, !taffo.initweight !26
  store float %86, float* %87, align 4, !taffo.info !24
  %88 = getelementptr inbounds [3 x float], [3 x float]* %11, i64 0, i64 0, !taffo.info !24, !taffo.initweight !26
  %89 = load float, float* %88, align 4, !taffo.info !24, !taffo.initweight !27
  %90 = getelementptr inbounds float, float* %0, i64 0, !taffo.info !24, !taffo.initweight !27
  %91 = load float, float* %90, align 4, !taffo.info !24, !taffo.initweight !28
  %92 = fmul float %89, %91, !taffo.info !24, !taffo.initweight !28
  %93 = getelementptr inbounds [3 x float], [3 x float]* %11, i64 0, i64 1, !taffo.info !24, !taffo.initweight !26
  %94 = load float, float* %93, align 4, !taffo.info !24, !taffo.initweight !27
  %95 = getelementptr inbounds float, float* %0, i64 1, !taffo.info !24, !taffo.initweight !27
  %96 = load float, float* %95, align 4, !taffo.info !24, !taffo.initweight !28
  %97 = fmul float %94, %96, !taffo.info !24, !taffo.initweight !28
  %98 = fadd float %92, %97, !taffo.info !24, !taffo.initweight !29
  %99 = getelementptr inbounds [3 x float], [3 x float]* %11, i64 0, i64 2, !taffo.info !24, !taffo.initweight !26
  %100 = load float, float* %99, align 4, !taffo.info !24, !taffo.initweight !27
  %101 = getelementptr inbounds float, float* %0, i64 2, !taffo.info !24, !taffo.initweight !27
  %102 = load float, float* %101, align 4, !taffo.info !24, !taffo.initweight !28
  %103 = fmul float %100, %102, !taffo.info !24, !taffo.initweight !28
  %104 = fadd float %98, %103, !taffo.info !24, !taffo.initweight !29
  %105 = fsub float -0.000000e+00, %104, !taffo.info !24, !taffo.initweight !38, !taffo.constinfo !31
  %106 = getelementptr inbounds [3 x float], [3 x float]* %11, i64 0, i64 0, !taffo.info !24, !taffo.initweight !26
  %107 = load float, float* %106, align 4, !taffo.info !24, !taffo.initweight !27
  %108 = getelementptr inbounds float, float* %3, i64 0, !taffo.info !24, !taffo.initweight !27
  %109 = load float, float* %108, align 4, !taffo.info !24, !taffo.initweight !28
  %110 = fmul float %107, %109, !taffo.info !24, !taffo.initweight !28
  %111 = getelementptr inbounds [3 x float], [3 x float]* %11, i64 0, i64 1, !taffo.info !24, !taffo.initweight !26
  %112 = load float, float* %111, align 4, !taffo.info !24, !taffo.initweight !27
  %113 = getelementptr inbounds float, float* %3, i64 1, !taffo.info !24, !taffo.initweight !27
  %114 = load float, float* %113, align 4, !taffo.info !24, !taffo.initweight !28
  %115 = fmul float %112, %114, !taffo.info !24, !taffo.initweight !28
  %116 = fadd float %110, %115, !taffo.info !24, !taffo.initweight !29
  %117 = getelementptr inbounds [3 x float], [3 x float]* %11, i64 0, i64 2, !taffo.info !24, !taffo.initweight !26
  %118 = load float, float* %117, align 4, !taffo.info !24, !taffo.initweight !27
  %119 = getelementptr inbounds float, float* %3, i64 2, !taffo.info !24, !taffo.initweight !27
  %120 = load float, float* %119, align 4, !taffo.info !24, !taffo.initweight !28
  %121 = fmul float %118, %120, !taffo.info !24, !taffo.initweight !28
  %122 = fadd float %116, %121, !taffo.info !24, !taffo.initweight !29
  %123 = fadd float %122, %105, !taffo.info !24, !taffo.initweight !27
  %124 = getelementptr inbounds [3 x float], [3 x float]* %11, i64 0, i64 0, !taffo.info !24, !taffo.initweight !26
  %125 = load float, float* %124, align 4, !taffo.info !24, !taffo.initweight !27
  %126 = getelementptr inbounds float, float* %4, i64 0, !taffo.info !24, !taffo.initweight !27
  %127 = load float, float* %126, align 4, !taffo.info !24, !taffo.initweight !28
  %128 = fmul float %125, %127, !taffo.info !24, !taffo.initweight !28
  %129 = getelementptr inbounds [3 x float], [3 x float]* %11, i64 0, i64 1, !taffo.info !24, !taffo.initweight !26
  %130 = load float, float* %129, align 4, !taffo.info !24, !taffo.initweight !27
  %131 = getelementptr inbounds float, float* %4, i64 1, !taffo.info !24, !taffo.initweight !27
  %132 = load float, float* %131, align 4, !taffo.info !24, !taffo.initweight !28
  %133 = fmul float %130, %132, !taffo.info !24, !taffo.initweight !28
  %134 = fadd float %128, %133, !taffo.info !24, !taffo.initweight !29
  %135 = getelementptr inbounds [3 x float], [3 x float]* %11, i64 0, i64 2, !taffo.info !24, !taffo.initweight !26
  %136 = load float, float* %135, align 4, !taffo.info !24, !taffo.initweight !27
  %137 = getelementptr inbounds float, float* %4, i64 2, !taffo.info !24, !taffo.initweight !27
  %138 = load float, float* %137, align 4, !taffo.info !24, !taffo.initweight !28
  %139 = fmul float %136, %138, !taffo.info !24, !taffo.initweight !28
  %140 = fadd float %134, %139, !taffo.info !24, !taffo.initweight !29
  %141 = fadd float %140, %105, !taffo.info !24, !taffo.initweight !27
  %142 = getelementptr inbounds [3 x float], [3 x float]* %11, i64 0, i64 0, !taffo.info !24, !taffo.initweight !26
  %143 = load float, float* %142, align 4, !taffo.info !24, !taffo.initweight !27
  %144 = getelementptr inbounds float, float* %5, i64 0, !taffo.info !24, !taffo.initweight !27
  %145 = load float, float* %144, align 4, !taffo.info !24, !taffo.initweight !28
  %146 = fmul float %143, %145, !taffo.info !24, !taffo.initweight !28
  %147 = getelementptr inbounds [3 x float], [3 x float]* %11, i64 0, i64 1, !taffo.info !24, !taffo.initweight !26
  %148 = load float, float* %147, align 4, !taffo.info !24, !taffo.initweight !27
  %149 = getelementptr inbounds float, float* %5, i64 1, !taffo.info !24, !taffo.initweight !27
  %150 = load float, float* %149, align 4, !taffo.info !24, !taffo.initweight !28
  %151 = fmul float %148, %150, !taffo.info !24, !taffo.initweight !28
  %152 = fadd float %146, %151, !taffo.info !24, !taffo.initweight !29
  %153 = getelementptr inbounds [3 x float], [3 x float]* %11, i64 0, i64 2, !taffo.info !24, !taffo.initweight !26
  %154 = load float, float* %153, align 4, !taffo.info !24, !taffo.initweight !27
  %155 = getelementptr inbounds float, float* %5, i64 2, !taffo.info !24, !taffo.initweight !27
  %156 = load float, float* %155, align 4, !taffo.info !24, !taffo.initweight !28
  %157 = fmul float %154, %156, !taffo.info !24, !taffo.initweight !28
  %158 = fadd float %152, %157, !taffo.info !24, !taffo.initweight !29
  %159 = fadd float %158, %105, !taffo.info !24, !taffo.initweight !27
  %160 = fpext float %123 to double, !taffo.info !24, !taffo.initweight !27
  %161 = call double @llvm.fabs.f64(double %160), !taffo.info !24, !taffo.initweight !28, !taffo.constinfo !15
  %162 = fcmp olt double %161, 0x3EB0C6F7A0B5ED8D, !taffo.info !24, !taffo.initweight !29
  br i1 %162, label %163, label %164, !taffo.info !24, !taffo.initweight !38

; <label>:163:                                    ; preds = %8
  br label %164

; <label>:164:                                    ; preds = %8, %163
  %.08 = phi float [ 0.000000e+00, %163 ], [ %123, %8 ]
  %165 = fpext float %141 to double, !taffo.info !24, !taffo.initweight !27
  %166 = call double @llvm.fabs.f64(double %165), !taffo.info !24, !taffo.initweight !28, !taffo.constinfo !15
  %167 = fcmp olt double %166, 0x3EB0C6F7A0B5ED8D, !taffo.info !24, !taffo.initweight !29
  br i1 %167, label %168, label %169, !taffo.info !24, !taffo.initweight !38

; <label>:168:                                    ; preds = %164
  br label %169

; <label>:169:                                    ; preds = %164, %168
  %.07 = phi float [ 0.000000e+00, %168 ], [ %141, %164 ]
  %170 = fpext float %159 to double, !taffo.info !24, !taffo.initweight !27
  %171 = call double @llvm.fabs.f64(double %170), !taffo.info !24, !taffo.initweight !28, !taffo.constinfo !15
  %172 = fcmp olt double %171, 0x3EB0C6F7A0B5ED8D, !taffo.info !24, !taffo.initweight !29
  br i1 %172, label %173, label %174, !taffo.info !24, !taffo.initweight !38

; <label>:173:                                    ; preds = %169
  br label %174

; <label>:174:                                    ; preds = %169, %173
  %.06 = phi float [ 0.000000e+00, %173 ], [ %159, %169 ]
  %175 = fmul float %.08, %.07, !taffo.info !24, !taffo.initweight !27
  %176 = fmul float %.08, %.06, !taffo.info !24, !taffo.initweight !27
  br label %177

; <label>:177:                                    ; preds = %174
  br label %178

; <label>:178:                                    ; preds = %177
  %179 = fcmp ogt float %175, 0.000000e+00, !taffo.info !24, !taffo.initweight !27, !taffo.target !39
  br i1 %179, label %180, label %183, !taffo.info !24, !taffo.initweight !28, !taffo.target !39

; <label>:180:                                    ; preds = %178
  %181 = fcmp ogt float %176, 0.000000e+00, !taffo.info !24, !taffo.initweight !27, !taffo.target !40
  br i1 %181, label %182, label %183, !taffo.info !24, !taffo.initweight !28, !taffo.target !40

; <label>:182:                                    ; preds = %180
  store i32 0, i32* %7, align 4, !taffo.constinfo !15
  br label %1264

; <label>:183:                                    ; preds = %178, %180
  %184 = getelementptr inbounds float, float* %4, i64 0, !taffo.info !24, !taffo.initweight !27
  %185 = load float, float* %184, align 4, !taffo.info !24, !taffo.initweight !28
  %186 = getelementptr inbounds float, float* %3, i64 0, !taffo.info !24, !taffo.initweight !27
  %187 = load float, float* %186, align 4, !taffo.info !24, !taffo.initweight !28
  %188 = fsub float %185, %187, !taffo.info !24, !taffo.initweight !29
  %189 = getelementptr inbounds [3 x float], [3 x float]* %9, i64 0, i64 0, !taffo.info !24, !taffo.initweight !26
  store float %188, float* %189, align 4, !taffo.info !24
  %190 = getelementptr inbounds float, float* %4, i64 1, !taffo.info !24, !taffo.initweight !27
  %191 = load float, float* %190, align 4, !taffo.info !24, !taffo.initweight !28
  %192 = getelementptr inbounds float, float* %3, i64 1, !taffo.info !24, !taffo.initweight !27
  %193 = load float, float* %192, align 4, !taffo.info !24, !taffo.initweight !28
  %194 = fsub float %191, %193, !taffo.info !24, !taffo.initweight !29
  %195 = getelementptr inbounds [3 x float], [3 x float]* %9, i64 0, i64 1, !taffo.info !24, !taffo.initweight !26
  store float %194, float* %195, align 4, !taffo.info !24
  %196 = getelementptr inbounds float, float* %4, i64 2, !taffo.info !24, !taffo.initweight !27
  %197 = load float, float* %196, align 4, !taffo.info !24, !taffo.initweight !28
  %198 = getelementptr inbounds float, float* %3, i64 2, !taffo.info !24, !taffo.initweight !27
  %199 = load float, float* %198, align 4, !taffo.info !24, !taffo.initweight !28
  %200 = fsub float %197, %199, !taffo.info !24, !taffo.initweight !29
  %201 = getelementptr inbounds [3 x float], [3 x float]* %9, i64 0, i64 2, !taffo.info !24, !taffo.initweight !26
  store float %200, float* %201, align 4, !taffo.info !24
  %202 = getelementptr inbounds float, float* %5, i64 0, !taffo.info !24, !taffo.initweight !27
  %203 = load float, float* %202, align 4, !taffo.info !24, !taffo.initweight !28
  %204 = getelementptr inbounds float, float* %3, i64 0, !taffo.info !24, !taffo.initweight !27
  %205 = load float, float* %204, align 4, !taffo.info !24, !taffo.initweight !28
  %206 = fsub float %203, %205, !taffo.info !24, !taffo.initweight !29
  %207 = getelementptr inbounds [3 x float], [3 x float]* %10, i64 0, i64 0, !taffo.info !24, !taffo.initweight !26
  store float %206, float* %207, align 4, !taffo.info !24
  %208 = getelementptr inbounds float, float* %5, i64 1, !taffo.info !24, !taffo.initweight !27
  %209 = load float, float* %208, align 4, !taffo.info !24, !taffo.initweight !28
  %210 = getelementptr inbounds float, float* %3, i64 1, !taffo.info !24, !taffo.initweight !27
  %211 = load float, float* %210, align 4, !taffo.info !24, !taffo.initweight !28
  %212 = fsub float %209, %211, !taffo.info !24, !taffo.initweight !29
  %213 = getelementptr inbounds [3 x float], [3 x float]* %10, i64 0, i64 1, !taffo.info !24, !taffo.initweight !26
  store float %212, float* %213, align 4, !taffo.info !24
  %214 = getelementptr inbounds float, float* %5, i64 2, !taffo.info !24, !taffo.initweight !27
  %215 = load float, float* %214, align 4, !taffo.info !24, !taffo.initweight !28
  %216 = getelementptr inbounds float, float* %3, i64 2, !taffo.info !24, !taffo.initweight !27
  %217 = load float, float* %216, align 4, !taffo.info !24, !taffo.initweight !28
  %218 = fsub float %215, %217, !taffo.info !24, !taffo.initweight !29
  %219 = getelementptr inbounds [3 x float], [3 x float]* %10, i64 0, i64 2, !taffo.info !24, !taffo.initweight !26
  store float %218, float* %219, align 4, !taffo.info !24
  %220 = getelementptr inbounds [3 x float], [3 x float]* %9, i64 0, i64 1, !taffo.info !24, !taffo.initweight !26
  %221 = load float, float* %220, align 4, !taffo.info !24, !taffo.initweight !27
  %222 = getelementptr inbounds [3 x float], [3 x float]* %10, i64 0, i64 2, !taffo.info !24, !taffo.initweight !26
  %223 = load float, float* %222, align 4, !taffo.info !24, !taffo.initweight !27
  %224 = fmul float %221, %223, !taffo.info !24, !taffo.initweight !28
  %225 = getelementptr inbounds [3 x float], [3 x float]* %9, i64 0, i64 2, !taffo.info !24, !taffo.initweight !26
  %226 = load float, float* %225, align 4, !taffo.info !24, !taffo.initweight !27
  %227 = getelementptr inbounds [3 x float], [3 x float]* %10, i64 0, i64 1, !taffo.info !24, !taffo.initweight !26
  %228 = load float, float* %227, align 4, !taffo.info !24, !taffo.initweight !27
  %229 = fmul float %226, %228, !taffo.info !24, !taffo.initweight !28
  %230 = fsub float %224, %229, !taffo.info !24, !taffo.initweight !29
  %231 = getelementptr inbounds [3 x float], [3 x float]* %12, i64 0, i64 0, !taffo.info !24, !taffo.initweight !26
  store float %230, float* %231, align 4, !taffo.info !24
  %232 = getelementptr inbounds [3 x float], [3 x float]* %9, i64 0, i64 2, !taffo.info !24, !taffo.initweight !26
  %233 = load float, float* %232, align 4, !taffo.info !24, !taffo.initweight !27
  %234 = getelementptr inbounds [3 x float], [3 x float]* %10, i64 0, i64 0, !taffo.info !24, !taffo.initweight !26
  %235 = load float, float* %234, align 4, !taffo.info !24, !taffo.initweight !27
  %236 = fmul float %233, %235, !taffo.info !24, !taffo.initweight !28
  %237 = getelementptr inbounds [3 x float], [3 x float]* %9, i64 0, i64 0, !taffo.info !24, !taffo.initweight !26
  %238 = load float, float* %237, align 4, !taffo.info !24, !taffo.initweight !27
  %239 = getelementptr inbounds [3 x float], [3 x float]* %10, i64 0, i64 2, !taffo.info !24, !taffo.initweight !26
  %240 = load float, float* %239, align 4, !taffo.info !24, !taffo.initweight !27
  %241 = fmul float %238, %240, !taffo.info !24, !taffo.initweight !28
  %242 = fsub float %236, %241, !taffo.info !24, !taffo.initweight !29
  %243 = getelementptr inbounds [3 x float], [3 x float]* %12, i64 0, i64 1, !taffo.info !24, !taffo.initweight !26
  store float %242, float* %243, align 4, !taffo.info !24
  %244 = getelementptr inbounds [3 x float], [3 x float]* %9, i64 0, i64 0, !taffo.info !24, !taffo.initweight !26
  %245 = load float, float* %244, align 4, !taffo.info !24, !taffo.initweight !27
  %246 = getelementptr inbounds [3 x float], [3 x float]* %10, i64 0, i64 1, !taffo.info !24, !taffo.initweight !26
  %247 = load float, float* %246, align 4, !taffo.info !24, !taffo.initweight !27
  %248 = fmul float %245, %247, !taffo.info !24, !taffo.initweight !28
  %249 = getelementptr inbounds [3 x float], [3 x float]* %9, i64 0, i64 1, !taffo.info !24, !taffo.initweight !26
  %250 = load float, float* %249, align 4, !taffo.info !24, !taffo.initweight !27
  %251 = getelementptr inbounds [3 x float], [3 x float]* %10, i64 0, i64 0, !taffo.info !24, !taffo.initweight !26
  %252 = load float, float* %251, align 4, !taffo.info !24, !taffo.initweight !27
  %253 = fmul float %250, %252, !taffo.info !24, !taffo.initweight !28
  %254 = fsub float %248, %253, !taffo.info !24, !taffo.initweight !29
  %255 = getelementptr inbounds [3 x float], [3 x float]* %12, i64 0, i64 2, !taffo.info !24, !taffo.initweight !26
  store float %254, float* %255, align 4, !taffo.info !24
  %256 = getelementptr inbounds [3 x float], [3 x float]* %12, i64 0, i64 0, !taffo.info !24, !taffo.initweight !26
  %257 = load float, float* %256, align 4, !taffo.info !24, !taffo.initweight !27
  %258 = getelementptr inbounds float, float* %3, i64 0, !taffo.info !24, !taffo.initweight !27
  %259 = load float, float* %258, align 4, !taffo.info !24, !taffo.initweight !28
  %260 = fmul float %257, %259, !taffo.info !24, !taffo.initweight !28
  %261 = getelementptr inbounds [3 x float], [3 x float]* %12, i64 0, i64 1, !taffo.info !24, !taffo.initweight !26
  %262 = load float, float* %261, align 4, !taffo.info !24, !taffo.initweight !27
  %263 = getelementptr inbounds float, float* %3, i64 1, !taffo.info !24, !taffo.initweight !27
  %264 = load float, float* %263, align 4, !taffo.info !24, !taffo.initweight !28
  %265 = fmul float %262, %264, !taffo.info !24, !taffo.initweight !28
  %266 = fadd float %260, %265, !taffo.info !24, !taffo.initweight !29
  %267 = getelementptr inbounds [3 x float], [3 x float]* %12, i64 0, i64 2, !taffo.info !24, !taffo.initweight !26
  %268 = load float, float* %267, align 4, !taffo.info !24, !taffo.initweight !27
  %269 = getelementptr inbounds float, float* %3, i64 2, !taffo.info !24, !taffo.initweight !27
  %270 = load float, float* %269, align 4, !taffo.info !24, !taffo.initweight !28
  %271 = fmul float %268, %270, !taffo.info !24, !taffo.initweight !28
  %272 = fadd float %266, %271, !taffo.info !24, !taffo.initweight !29
  %273 = fsub float -0.000000e+00, %272, !taffo.info !24, !taffo.initweight !38, !taffo.constinfo !31
  %274 = getelementptr inbounds [3 x float], [3 x float]* %12, i64 0, i64 0, !taffo.info !24, !taffo.initweight !26
  %275 = load float, float* %274, align 4, !taffo.info !24, !taffo.initweight !27
  %276 = getelementptr inbounds float, float* %0, i64 0, !taffo.info !24, !taffo.initweight !27
  %277 = load float, float* %276, align 4, !taffo.info !24, !taffo.initweight !28
  %278 = fmul float %275, %277, !taffo.info !24, !taffo.initweight !28
  %279 = getelementptr inbounds [3 x float], [3 x float]* %12, i64 0, i64 1, !taffo.info !24, !taffo.initweight !26
  %280 = load float, float* %279, align 4, !taffo.info !24, !taffo.initweight !27
  %281 = getelementptr inbounds float, float* %0, i64 1, !taffo.info !24, !taffo.initweight !27
  %282 = load float, float* %281, align 4, !taffo.info !24, !taffo.initweight !28
  %283 = fmul float %280, %282, !taffo.info !24, !taffo.initweight !28
  %284 = fadd float %278, %283, !taffo.info !24, !taffo.initweight !29
  %285 = getelementptr inbounds [3 x float], [3 x float]* %12, i64 0, i64 2, !taffo.info !24, !taffo.initweight !26
  %286 = load float, float* %285, align 4, !taffo.info !24, !taffo.initweight !27
  %287 = getelementptr inbounds float, float* %0, i64 2, !taffo.info !24, !taffo.initweight !27
  %288 = load float, float* %287, align 4, !taffo.info !24, !taffo.initweight !28
  %289 = fmul float %286, %288, !taffo.info !24, !taffo.initweight !28
  %290 = fadd float %284, %289, !taffo.info !24, !taffo.initweight !29
  %291 = fadd float %290, %273, !taffo.info !24, !taffo.initweight !27
  %292 = getelementptr inbounds [3 x float], [3 x float]* %12, i64 0, i64 0, !taffo.info !24, !taffo.initweight !26
  %293 = load float, float* %292, align 4, !taffo.info !24, !taffo.initweight !27
  %294 = getelementptr inbounds float, float* %1, i64 0, !taffo.info !24, !taffo.initweight !27
  %295 = load float, float* %294, align 4, !taffo.info !24, !taffo.initweight !28
  %296 = fmul float %293, %295, !taffo.info !24, !taffo.initweight !28
  %297 = getelementptr inbounds [3 x float], [3 x float]* %12, i64 0, i64 1, !taffo.info !24, !taffo.initweight !26
  %298 = load float, float* %297, align 4, !taffo.info !24, !taffo.initweight !27
  %299 = getelementptr inbounds float, float* %1, i64 1, !taffo.info !24, !taffo.initweight !27
  %300 = load float, float* %299, align 4, !taffo.info !24, !taffo.initweight !28
  %301 = fmul float %298, %300, !taffo.info !24, !taffo.initweight !28
  %302 = fadd float %296, %301, !taffo.info !24, !taffo.initweight !29
  %303 = getelementptr inbounds [3 x float], [3 x float]* %12, i64 0, i64 2, !taffo.info !24, !taffo.initweight !26
  %304 = load float, float* %303, align 4, !taffo.info !24, !taffo.initweight !27
  %305 = getelementptr inbounds float, float* %1, i64 2, !taffo.info !24, !taffo.initweight !27
  %306 = load float, float* %305, align 4, !taffo.info !24, !taffo.initweight !28
  %307 = fmul float %304, %306, !taffo.info !24, !taffo.initweight !28
  %308 = fadd float %302, %307, !taffo.info !24, !taffo.initweight !29
  %309 = fadd float %308, %273, !taffo.info !24, !taffo.initweight !27
  %310 = getelementptr inbounds [3 x float], [3 x float]* %12, i64 0, i64 0, !taffo.info !24, !taffo.initweight !26
  %311 = load float, float* %310, align 4, !taffo.info !24, !taffo.initweight !27
  %312 = getelementptr inbounds float, float* %2, i64 0, !taffo.info !24, !taffo.initweight !27
  %313 = load float, float* %312, align 4, !taffo.info !24, !taffo.initweight !28
  %314 = fmul float %311, %313, !taffo.info !24, !taffo.initweight !28
  %315 = getelementptr inbounds [3 x float], [3 x float]* %12, i64 0, i64 1, !taffo.info !24, !taffo.initweight !26
  %316 = load float, float* %315, align 4, !taffo.info !24, !taffo.initweight !27
  %317 = getelementptr inbounds float, float* %2, i64 1, !taffo.info !24, !taffo.initweight !27
  %318 = load float, float* %317, align 4, !taffo.info !24, !taffo.initweight !28
  %319 = fmul float %316, %318, !taffo.info !24, !taffo.initweight !28
  %320 = fadd float %314, %319, !taffo.info !24, !taffo.initweight !29
  %321 = getelementptr inbounds [3 x float], [3 x float]* %12, i64 0, i64 2, !taffo.info !24, !taffo.initweight !26
  %322 = load float, float* %321, align 4, !taffo.info !24, !taffo.initweight !27
  %323 = getelementptr inbounds float, float* %2, i64 2, !taffo.info !24, !taffo.initweight !27
  %324 = load float, float* %323, align 4, !taffo.info !24, !taffo.initweight !28
  %325 = fmul float %322, %324, !taffo.info !24, !taffo.initweight !28
  %326 = fadd float %320, %325, !taffo.info !24, !taffo.initweight !29
  %327 = fadd float %326, %273, !taffo.info !24, !taffo.initweight !27
  %328 = fpext float %291 to double, !taffo.info !24, !taffo.initweight !27
  %329 = call double @llvm.fabs.f64(double %328), !taffo.info !24, !taffo.initweight !28, !taffo.constinfo !15
  %330 = fcmp olt double %329, 0x3EB0C6F7A0B5ED8D, !taffo.info !24, !taffo.initweight !29
  br i1 %330, label %331, label %332, !taffo.info !24, !taffo.initweight !38

; <label>:331:                                    ; preds = %183
  br label %332

; <label>:332:                                    ; preds = %183, %331
  %.05 = phi float [ 0.000000e+00, %331 ], [ %291, %183 ]
  %333 = fpext float %309 to double, !taffo.info !24, !taffo.initweight !27
  %334 = call double @llvm.fabs.f64(double %333), !taffo.info !24, !taffo.initweight !28, !taffo.constinfo !15
  %335 = fcmp olt double %334, 0x3EB0C6F7A0B5ED8D, !taffo.info !24, !taffo.initweight !29
  br i1 %335, label %336, label %337, !taffo.info !24, !taffo.initweight !38

; <label>:336:                                    ; preds = %332
  br label %337

; <label>:337:                                    ; preds = %332, %336
  %.04 = phi float [ 0.000000e+00, %336 ], [ %309, %332 ]
  %338 = fpext float %327 to double, !taffo.info !24, !taffo.initweight !27
  %339 = call double @llvm.fabs.f64(double %338), !taffo.info !24, !taffo.initweight !28, !taffo.constinfo !15
  %340 = fcmp olt double %339, 0x3EB0C6F7A0B5ED8D, !taffo.info !24, !taffo.initweight !29
  br i1 %340, label %341, label %342, !taffo.info !24, !taffo.initweight !38

; <label>:341:                                    ; preds = %337
  br label %342

; <label>:342:                                    ; preds = %337, %341
  %.03 = phi float [ 0.000000e+00, %341 ], [ %327, %337 ]
  %343 = fmul float %.05, %.04, !taffo.info !24, !taffo.initweight !27
  %344 = fmul float %.05, %.03, !taffo.info !24, !taffo.initweight !27
  br label %345

; <label>:345:                                    ; preds = %342
  br label %346

; <label>:346:                                    ; preds = %345
  %347 = fcmp ogt float %343, 0.000000e+00, !taffo.info !24, !taffo.initweight !27, !taffo.target !41
  br i1 %347, label %348, label %351, !taffo.info !24, !taffo.initweight !28, !taffo.target !41

; <label>:348:                                    ; preds = %346
  %349 = fcmp ogt float %344, 0.000000e+00, !taffo.info !24, !taffo.initweight !27, !taffo.target !42
  br i1 %349, label %350, label %351, !taffo.info !24, !taffo.initweight !28, !taffo.target !42

; <label>:350:                                    ; preds = %348
  store i32 1, i32* %7, align 4, !taffo.constinfo !15
  br label %1264

; <label>:351:                                    ; preds = %346, %348
  %352 = getelementptr inbounds [3 x float], [3 x float]* %11, i64 0, i64 1, !taffo.info !24, !taffo.initweight !26
  %353 = load float, float* %352, align 4, !taffo.info !24, !taffo.initweight !27
  %354 = getelementptr inbounds [3 x float], [3 x float]* %12, i64 0, i64 2, !taffo.info !24, !taffo.initweight !26
  %355 = load float, float* %354, align 4, !taffo.info !24, !taffo.initweight !27
  %356 = fmul float %353, %355, !taffo.info !24, !taffo.initweight !28
  %357 = getelementptr inbounds [3 x float], [3 x float]* %11, i64 0, i64 2, !taffo.info !24, !taffo.initweight !26
  %358 = load float, float* %357, align 4, !taffo.info !24, !taffo.initweight !27
  %359 = getelementptr inbounds [3 x float], [3 x float]* %12, i64 0, i64 1, !taffo.info !24, !taffo.initweight !26
  %360 = load float, float* %359, align 4, !taffo.info !24, !taffo.initweight !27
  %361 = fmul float %358, %360, !taffo.info !24, !taffo.initweight !28
  %362 = fsub float %356, %361, !taffo.info !24, !taffo.initweight !29
  %363 = getelementptr inbounds [3 x float], [3 x float]* %13, i64 0, i64 0, !taffo.info !24, !taffo.initweight !26
  store float %362, float* %363, align 4, !taffo.info !24
  %364 = getelementptr inbounds [3 x float], [3 x float]* %11, i64 0, i64 2, !taffo.info !24, !taffo.initweight !26
  %365 = load float, float* %364, align 4, !taffo.info !24, !taffo.initweight !27
  %366 = getelementptr inbounds [3 x float], [3 x float]* %12, i64 0, i64 0, !taffo.info !24, !taffo.initweight !26
  %367 = load float, float* %366, align 4, !taffo.info !24, !taffo.initweight !27
  %368 = fmul float %365, %367, !taffo.info !24, !taffo.initweight !28
  %369 = getelementptr inbounds [3 x float], [3 x float]* %11, i64 0, i64 0, !taffo.info !24, !taffo.initweight !26
  %370 = load float, float* %369, align 4, !taffo.info !24, !taffo.initweight !27
  %371 = getelementptr inbounds [3 x float], [3 x float]* %12, i64 0, i64 2, !taffo.info !24, !taffo.initweight !26
  %372 = load float, float* %371, align 4, !taffo.info !24, !taffo.initweight !27
  %373 = fmul float %370, %372, !taffo.info !24, !taffo.initweight !28
  %374 = fsub float %368, %373, !taffo.info !24, !taffo.initweight !29
  %375 = getelementptr inbounds [3 x float], [3 x float]* %13, i64 0, i64 1, !taffo.info !24, !taffo.initweight !26
  store float %374, float* %375, align 4, !taffo.info !24
  %376 = getelementptr inbounds [3 x float], [3 x float]* %11, i64 0, i64 0, !taffo.info !24, !taffo.initweight !26
  %377 = load float, float* %376, align 4, !taffo.info !24, !taffo.initweight !27
  %378 = getelementptr inbounds [3 x float], [3 x float]* %12, i64 0, i64 1, !taffo.info !24, !taffo.initweight !26
  %379 = load float, float* %378, align 4, !taffo.info !24, !taffo.initweight !27
  %380 = fmul float %377, %379, !taffo.info !24, !taffo.initweight !28
  %381 = getelementptr inbounds [3 x float], [3 x float]* %11, i64 0, i64 1, !taffo.info !24, !taffo.initweight !26
  %382 = load float, float* %381, align 4, !taffo.info !24, !taffo.initweight !27
  %383 = getelementptr inbounds [3 x float], [3 x float]* %12, i64 0, i64 0, !taffo.info !24, !taffo.initweight !26
  %384 = load float, float* %383, align 4, !taffo.info !24, !taffo.initweight !27
  %385 = fmul float %382, %384, !taffo.info !24, !taffo.initweight !28
  %386 = fsub float %380, %385, !taffo.info !24, !taffo.initweight !29
  %387 = getelementptr inbounds [3 x float], [3 x float]* %13, i64 0, i64 2, !taffo.info !24, !taffo.initweight !26
  store float %386, float* %387, align 4, !taffo.info !24
  %388 = getelementptr inbounds [3 x float], [3 x float]* %13, i64 0, i64 0, !taffo.info !24, !taffo.initweight !26
  %389 = load float, float* %388, align 4, !taffo.info !24, !taffo.initweight !27
  %390 = fpext float %389 to double, !taffo.info !24, !taffo.initweight !28
  %391 = call double @llvm.fabs.f64(double %390), !taffo.info !24, !taffo.initweight !29, !taffo.constinfo !15
  %392 = fptrunc double %391 to float, !taffo.info !24, !taffo.initweight !38
  %393 = getelementptr inbounds [3 x float], [3 x float]* %13, i64 0, i64 1, !taffo.info !24, !taffo.initweight !26
  %394 = load float, float* %393, align 4, !taffo.info !24, !taffo.initweight !27
  %395 = fpext float %394 to double, !taffo.info !24, !taffo.initweight !28
  %396 = call double @llvm.fabs.f64(double %395), !taffo.info !24, !taffo.initweight !29, !taffo.constinfo !15
  %397 = fptrunc double %396 to float, !taffo.info !24, !taffo.initweight !38
  %398 = getelementptr inbounds [3 x float], [3 x float]* %13, i64 0, i64 2, !taffo.info !24, !taffo.initweight !26
  %399 = load float, float* %398, align 4, !taffo.info !24, !taffo.initweight !27
  %400 = fpext float %399 to double, !taffo.info !24, !taffo.initweight !28
  %401 = call double @llvm.fabs.f64(double %400), !taffo.info !24, !taffo.initweight !29, !taffo.constinfo !15
  %402 = fptrunc double %401 to float, !taffo.info !24, !taffo.initweight !38
  %403 = fcmp ogt float %397, %392, !taffo.info !24, !taffo.initweight !27
  br i1 %403, label %404, label %405, !taffo.info !24, !taffo.initweight !28

; <label>:404:                                    ; preds = %351
  br label %405

; <label>:405:                                    ; preds = %351, %404
  %.02 = phi float [ %397, %404 ], [ %392, %351 ]
  %.01 = phi i16 [ 1, %404 ], [ 0, %351 ]
  %406 = fcmp ogt float %402, %.02, !taffo.info !24, !taffo.initweight !27
  br i1 %406, label %407, label %408, !taffo.info !24, !taffo.initweight !28

; <label>:407:                                    ; preds = %405
  br label %408

; <label>:408:                                    ; preds = %405, %407
  %.1 = phi i16 [ 2, %407 ], [ %.01, %405 ]
  %409 = sext i16 %.1 to i64
  %410 = getelementptr inbounds float, float* %0, i64 %409, !taffo.info !24, !taffo.initweight !27
  %411 = load float, float* %410, align 4, !taffo.info !24, !taffo.initweight !28
  %412 = sext i16 %.1 to i64
  %413 = getelementptr inbounds float, float* %1, i64 %412, !taffo.info !24, !taffo.initweight !27
  %414 = load float, float* %413, align 4, !taffo.info !24, !taffo.initweight !28
  %415 = sext i16 %.1 to i64
  %416 = getelementptr inbounds float, float* %2, i64 %415, !taffo.info !24, !taffo.initweight !27
  %417 = load float, float* %416, align 4, !taffo.info !24, !taffo.initweight !28
  %418 = sext i16 %.1 to i64
  %419 = getelementptr inbounds float, float* %3, i64 %418, !taffo.info !24, !taffo.initweight !27
  %420 = load float, float* %419, align 4, !taffo.info !24, !taffo.initweight !28
  %421 = sext i16 %.1 to i64
  %422 = getelementptr inbounds float, float* %4, i64 %421, !taffo.info !24, !taffo.initweight !27
  %423 = load float, float* %422, align 4, !taffo.info !24, !taffo.initweight !28
  %424 = sext i16 %.1 to i64
  %425 = getelementptr inbounds float, float* %5, i64 %424, !taffo.info !24, !taffo.initweight !27
  %426 = load float, float* %425, align 4, !taffo.info !24, !taffo.initweight !28
  store i32 2, i32* %7, align 4, !taffo.constinfo !15
  %427 = fcmp ogt float %343, 0.000000e+00, !taffo.info !24, !taffo.initweight !27, !taffo.target !41
  br i1 %427, label %428, label %503, !taffo.info !24, !taffo.initweight !28, !taffo.target !41

; <label>:428:                                    ; preds = %408
  %429 = fsub float %.03, %.05, !taffo.info !24, !taffo.initweight !27
  %430 = fsub float %.03, %.04, !taffo.info !24, !taffo.initweight !27
  %431 = fcmp oge float %429, 0.000000e+00, !taffo.info !24, !taffo.initweight !27
  br i1 %431, label %432, label %449, !taffo.info !24, !taffo.initweight !28

; <label>:432:                                    ; preds = %428
  %433 = fpext float %417 to double, !taffo.info !24, !taffo.initweight !27
  %434 = fsub float %411, %417, !taffo.info !24, !taffo.initweight !27
  %435 = fmul float %434, %.03, !taffo.info !24, !taffo.initweight !27
  %436 = fpext float %435 to double, !taffo.info !24, !taffo.initweight !28
  %437 = fmul float 0x41A0000000000000, %429, !taffo.info !24
  %u5_27fixp7 = fptoui float %437 to i32, !taffo.info !43
  %u5_27fixp47 = add i32 %u5_27fixp7, 1342, !taffo.info !43, !taffo.constinfo !46
  %438 = fmul double 0x41A0000000000000, %436, !taffo.info !24
  %439 = fptoui double %438 to i32, !taffo.info !24
  %440 = zext i32 %439 to i64, !taffo.info !24
  %441 = shl i64 %440, 27, !taffo.info !24
  %442 = zext i32 %u5_27fixp47 to i64
  %443 = udiv i64 %441, %442
  %u5_27fixp87 = trunc i64 %443 to i32, !taffo.info !49
  %444 = fmul double 0x41A0000000000000, %433, !taffo.info !24
  %445 = fptoui double %444 to i32, !taffo.info !24
  %u5_27fixp127 = add i32 %445, %u5_27fixp87, !taffo.info !49
  %446 = uitofp i32 %u5_27fixp127 to float, !taffo.info !49
  %447 = fdiv float %446, 0x41A0000000000000, !taffo.info !49
  %448 = getelementptr inbounds [2 x float], [2 x float]* %14, i64 0, i64 0, !taffo.info !24, !taffo.initweight !26
  store float %447, float* %448, align 4, !taffo.info !24
  br label %466

; <label>:449:                                    ; preds = %428
  %450 = fpext float %417 to double, !taffo.info !24, !taffo.initweight !27
  %451 = fsub float %411, %417, !taffo.info !24, !taffo.initweight !27
  %452 = fmul float %451, %.03, !taffo.info !24, !taffo.initweight !27
  %453 = fpext float %452 to double, !taffo.info !24, !taffo.initweight !28
  %454 = fmul float 0x4190000000000000, %429, !taffo.info !24
  %s6_26fixp28 = fptosi float %454 to i32, !taffo.info !50
  %s6_26fixp68 = add i32 %s6_26fixp28, 671, !taffo.info !50, !taffo.constinfo !46
  %455 = fmul double 0x4190000000000000, %453, !taffo.info !24
  %456 = fptosi double %455 to i32, !taffo.info !24
  %457 = sext i32 %456 to i64, !taffo.info !24
  %458 = shl i64 %457, 26, !taffo.info !24
  %459 = sext i32 %s6_26fixp68 to i64
  %460 = sdiv i64 %458, %459
  %s6_26fixp108 = trunc i64 %460 to i32, !taffo.info !53
  %461 = fmul double 0x4190000000000000, %450, !taffo.info !24
  %462 = fptosi double %461 to i32, !taffo.info !24
  %s6_26fixp148 = add i32 %462, %s6_26fixp108, !taffo.info !53
  %463 = sitofp i32 %s6_26fixp148 to float, !taffo.info !53
  %464 = fdiv float %463, 0x4190000000000000, !taffo.info !53
  %465 = getelementptr inbounds [2 x float], [2 x float]* %14, i64 0, i64 0, !taffo.info !24, !taffo.initweight !26
  store float %464, float* %465, align 4, !taffo.info !24
  br label %466

; <label>:466:                                    ; preds = %449, %432
  %467 = fcmp oge float %430, 0.000000e+00, !taffo.info !24, !taffo.initweight !27
  br i1 %467, label %468, label %485, !taffo.info !24, !taffo.initweight !28

; <label>:468:                                    ; preds = %466
  %469 = fpext float %417 to double, !taffo.info !24, !taffo.initweight !27
  %470 = fsub float %414, %417, !taffo.info !24, !taffo.initweight !27
  %471 = fmul float %470, %.03, !taffo.info !24, !taffo.initweight !27
  %472 = fpext float %471 to double, !taffo.info !24, !taffo.initweight !28
  %473 = fmul float 0x41A0000000000000, %430, !taffo.info !24
  %u5_27fixp1 = fptoui float %473 to i32, !taffo.info !43
  %u5_27fixp40 = add i32 %u5_27fixp1, 1342, !taffo.info !43, !taffo.constinfo !46
  %474 = fmul double 0x41A0000000000000, %472, !taffo.info !24
  %475 = fptoui double %474 to i32, !taffo.info !24
  %476 = zext i32 %475 to i64, !taffo.info !24
  %477 = shl i64 %476, 27, !taffo.info !24
  %478 = zext i32 %u5_27fixp40 to i64
  %479 = udiv i64 %477, %478
  %u5_27fixp80 = trunc i64 %479 to i32, !taffo.info !49
  %480 = fmul double 0x41A0000000000000, %469, !taffo.info !24
  %481 = fptoui double %480 to i32, !taffo.info !24
  %u5_27fixp120 = add i32 %481, %u5_27fixp80, !taffo.info !49
  %482 = uitofp i32 %u5_27fixp120 to float, !taffo.info !49
  %483 = fdiv float %482, 0x41A0000000000000, !taffo.info !49
  %484 = getelementptr inbounds [2 x float], [2 x float]* %14, i64 0, i64 1, !taffo.info !24, !taffo.initweight !26
  store float %483, float* %484, align 4, !taffo.info !24
  br label %502

; <label>:485:                                    ; preds = %466
  %486 = fpext float %417 to double, !taffo.info !24, !taffo.initweight !27
  %487 = fsub float %414, %417, !taffo.info !24, !taffo.initweight !27
  %488 = fmul float %487, %.03, !taffo.info !24, !taffo.initweight !27
  %489 = fpext float %488 to double, !taffo.info !24, !taffo.initweight !28
  %490 = fmul float 0x4190000000000000, %430, !taffo.info !24
  %s6_26fixp5 = fptosi float %490 to i32, !taffo.info !50
  %s6_26fixp45 = add i32 %s6_26fixp5, 671, !taffo.info !50, !taffo.constinfo !46
  %491 = fmul double 0x4190000000000000, %489, !taffo.info !24
  %492 = fptosi double %491 to i32, !taffo.info !24
  %493 = sext i32 %492 to i64, !taffo.info !24
  %494 = shl i64 %493, 26, !taffo.info !24
  %495 = sext i32 %s6_26fixp45 to i64
  %496 = sdiv i64 %494, %495
  %s6_26fixp85 = trunc i64 %496 to i32, !taffo.info !53
  %497 = fmul double 0x4190000000000000, %486, !taffo.info !24
  %498 = fptosi double %497 to i32, !taffo.info !24
  %s6_26fixp125 = add i32 %498, %s6_26fixp85, !taffo.info !53
  %499 = sitofp i32 %s6_26fixp125 to float, !taffo.info !53
  %500 = fdiv float %499, 0x4190000000000000, !taffo.info !53
  %501 = getelementptr inbounds [2 x float], [2 x float]* %14, i64 0, i64 1, !taffo.info !24, !taffo.initweight !26
  store float %500, float* %501, align 4, !taffo.info !24
  br label %502

; <label>:502:                                    ; preds = %485, %468
  br label %821

; <label>:503:                                    ; preds = %408
  %504 = fcmp ogt float %344, 0.000000e+00, !taffo.info !24, !taffo.initweight !27, !taffo.target !42
  br i1 %504, label %505, label %580, !taffo.info !24, !taffo.initweight !28, !taffo.target !42

; <label>:505:                                    ; preds = %503
  %506 = fsub float %.04, %.05, !taffo.info !24, !taffo.initweight !27
  %507 = fsub float %.04, %.03, !taffo.info !24, !taffo.initweight !27
  %508 = fcmp oge float %506, 0.000000e+00, !taffo.info !24, !taffo.initweight !27
  br i1 %508, label %509, label %526, !taffo.info !24, !taffo.initweight !28

; <label>:509:                                    ; preds = %505
  %510 = fpext float %414 to double, !taffo.info !24, !taffo.initweight !27
  %511 = fsub float %411, %414, !taffo.info !24, !taffo.initweight !27
  %512 = fmul float %511, %.04, !taffo.info !24, !taffo.initweight !27
  %513 = fpext float %512 to double, !taffo.info !24, !taffo.initweight !28
  %514 = fmul float 0x41A0000000000000, %506, !taffo.info !24
  %u5_27fixp17 = fptoui float %514 to i32, !taffo.info !43
  %u5_27fixp57 = add i32 %u5_27fixp17, 1342, !taffo.info !43, !taffo.constinfo !46
  %515 = fmul double 0x41A0000000000000, %513, !taffo.info !24
  %516 = fptoui double %515 to i32, !taffo.info !24
  %517 = zext i32 %516 to i64, !taffo.info !24
  %518 = shl i64 %517, 27, !taffo.info !24
  %519 = zext i32 %u5_27fixp57 to i64
  %520 = udiv i64 %518, %519
  %u5_27fixp97 = trunc i64 %520 to i32, !taffo.info !49
  %521 = fmul double 0x41A0000000000000, %510, !taffo.info !24
  %522 = fptoui double %521 to i32, !taffo.info !24
  %u5_27fixp137 = add i32 %522, %u5_27fixp97, !taffo.info !49
  %523 = uitofp i32 %u5_27fixp137 to float, !taffo.info !49
  %524 = fdiv float %523, 0x41A0000000000000, !taffo.info !49
  %525 = getelementptr inbounds [2 x float], [2 x float]* %14, i64 0, i64 0, !taffo.info !24, !taffo.initweight !26
  store float %524, float* %525, align 4, !taffo.info !24
  br label %543

; <label>:526:                                    ; preds = %505
  %527 = fpext float %414 to double, !taffo.info !24, !taffo.initweight !27
  %528 = fsub float %411, %414, !taffo.info !24, !taffo.initweight !27
  %529 = fmul float %528, %.04, !taffo.info !24, !taffo.initweight !27
  %530 = fpext float %529 to double, !taffo.info !24, !taffo.initweight !28
  %531 = fmul float 0x4190000000000000, %506, !taffo.info !24
  %s6_26fixp15 = fptosi float %531 to i32, !taffo.info !50
  %s6_26fixp55 = add i32 %s6_26fixp15, 671, !taffo.info !50, !taffo.constinfo !46
  %532 = fmul double 0x4190000000000000, %530, !taffo.info !24
  %533 = fptosi double %532 to i32, !taffo.info !24
  %534 = sext i32 %533 to i64, !taffo.info !24
  %535 = shl i64 %534, 26, !taffo.info !24
  %536 = sext i32 %s6_26fixp55 to i64
  %537 = sdiv i64 %535, %536
  %s6_26fixp95 = trunc i64 %537 to i32, !taffo.info !53
  %538 = fmul double 0x4190000000000000, %527, !taffo.info !24
  %539 = fptosi double %538 to i32, !taffo.info !24
  %s6_26fixp135 = add i32 %539, %s6_26fixp95, !taffo.info !53
  %540 = sitofp i32 %s6_26fixp135 to float, !taffo.info !53
  %541 = fdiv float %540, 0x4190000000000000, !taffo.info !53
  %542 = getelementptr inbounds [2 x float], [2 x float]* %14, i64 0, i64 0, !taffo.info !24, !taffo.initweight !26
  store float %541, float* %542, align 4, !taffo.info !24
  br label %543

; <label>:543:                                    ; preds = %526, %509
  %544 = fcmp oge float %507, 0.000000e+00, !taffo.info !24, !taffo.initweight !27
  br i1 %544, label %545, label %562, !taffo.info !24, !taffo.initweight !28

; <label>:545:                                    ; preds = %543
  %546 = fpext float %414 to double, !taffo.info !24, !taffo.initweight !27
  %547 = fsub float %417, %414, !taffo.info !24, !taffo.initweight !27
  %548 = fmul float %547, %.04, !taffo.info !24, !taffo.initweight !27
  %549 = fpext float %548 to double, !taffo.info !24, !taffo.initweight !28
  %550 = fmul float 0x41A0000000000000, %507, !taffo.info !24
  %u5_27fixp29 = fptoui float %550 to i32, !taffo.info !43
  %u5_27fixp69 = add i32 %u5_27fixp29, 1342, !taffo.info !43, !taffo.constinfo !46
  %551 = fmul double 0x41A0000000000000, %549, !taffo.info !24
  %552 = fptoui double %551 to i32, !taffo.info !24
  %553 = zext i32 %552 to i64, !taffo.info !24
  %554 = shl i64 %553, 27, !taffo.info !24
  %555 = zext i32 %u5_27fixp69 to i64
  %556 = udiv i64 %554, %555
  %u5_27fixp109 = trunc i64 %556 to i32, !taffo.info !49
  %557 = fmul double 0x41A0000000000000, %546, !taffo.info !24
  %558 = fptoui double %557 to i32, !taffo.info !24
  %u5_27fixp149 = add i32 %558, %u5_27fixp109, !taffo.info !49
  %559 = uitofp i32 %u5_27fixp149 to float, !taffo.info !49
  %560 = fdiv float %559, 0x41A0000000000000, !taffo.info !49
  %561 = getelementptr inbounds [2 x float], [2 x float]* %14, i64 0, i64 1, !taffo.info !24, !taffo.initweight !26
  store float %560, float* %561, align 4, !taffo.info !24
  br label %579

; <label>:562:                                    ; preds = %543
  %563 = fpext float %414 to double, !taffo.info !24, !taffo.initweight !27
  %564 = fsub float %417, %414, !taffo.info !24, !taffo.initweight !27
  %565 = fmul float %564, %.04, !taffo.info !24, !taffo.initweight !27
  %566 = fpext float %565 to double, !taffo.info !24, !taffo.initweight !28
  %567 = fmul float 0x4190000000000000, %507, !taffo.info !24
  %s6_26fixp33 = fptosi float %567 to i32, !taffo.info !50
  %s6_26fixp73 = add i32 %s6_26fixp33, 671, !taffo.info !50, !taffo.constinfo !46
  %568 = fmul double 0x4190000000000000, %566, !taffo.info !24
  %569 = fptosi double %568 to i32, !taffo.info !24
  %570 = sext i32 %569 to i64, !taffo.info !24
  %571 = shl i64 %570, 26, !taffo.info !24
  %572 = sext i32 %s6_26fixp73 to i64
  %573 = sdiv i64 %571, %572
  %s6_26fixp113 = trunc i64 %573 to i32, !taffo.info !53
  %574 = fmul double 0x4190000000000000, %563, !taffo.info !24
  %575 = fptosi double %574 to i32, !taffo.info !24
  %s6_26fixp153 = add i32 %575, %s6_26fixp113, !taffo.info !53
  %576 = sitofp i32 %s6_26fixp153 to float, !taffo.info !53
  %577 = fdiv float %576, 0x4190000000000000, !taffo.info !53
  %578 = getelementptr inbounds [2 x float], [2 x float]* %14, i64 0, i64 1, !taffo.info !24, !taffo.initweight !26
  store float %577, float* %578, align 4, !taffo.info !24
  br label %579

; <label>:579:                                    ; preds = %562, %545
  br label %820

; <label>:580:                                    ; preds = %503
  %581 = fmul float %.04, %.03, !taffo.info !24, !taffo.initweight !27
  %582 = fcmp ogt float %581, 0.000000e+00, !taffo.info !24, !taffo.initweight !28
  br i1 %582, label %585, label %583, !taffo.info !24, !taffo.initweight !29

; <label>:583:                                    ; preds = %580
  %584 = fcmp une float %.05, 0.000000e+00, !taffo.info !24, !taffo.initweight !27
  br i1 %584, label %585, label %660, !taffo.info !24, !taffo.initweight !28

; <label>:585:                                    ; preds = %580, %583
  %586 = fsub float %.05, %.04, !taffo.info !24, !taffo.initweight !27
  %587 = fsub float %.05, %.03, !taffo.info !24, !taffo.initweight !27
  %588 = fcmp oge float %586, 0.000000e+00, !taffo.info !24, !taffo.initweight !27
  br i1 %588, label %589, label %606, !taffo.info !24, !taffo.initweight !28

; <label>:589:                                    ; preds = %585
  %590 = fpext float %411 to double, !taffo.info !24, !taffo.initweight !27
  %591 = fsub float %414, %411, !taffo.info !24, !taffo.initweight !27
  %592 = fmul float %591, %.05, !taffo.info !24, !taffo.initweight !27
  %593 = fpext float %592 to double, !taffo.info !24, !taffo.initweight !28
  %594 = fmul float 0x41A0000000000000, %586, !taffo.info !24
  %u5_27fixp18 = fptoui float %594 to i32, !taffo.info !43
  %u5_27fixp58 = add i32 %u5_27fixp18, 1342, !taffo.info !43, !taffo.constinfo !46
  %595 = fmul double 0x41A0000000000000, %593, !taffo.info !24
  %596 = fptoui double %595 to i32, !taffo.info !24
  %597 = zext i32 %596 to i64, !taffo.info !24
  %598 = shl i64 %597, 27, !taffo.info !24
  %599 = zext i32 %u5_27fixp58 to i64
  %600 = udiv i64 %598, %599
  %u5_27fixp98 = trunc i64 %600 to i32, !taffo.info !49
  %601 = fmul double 0x41A0000000000000, %590, !taffo.info !24
  %602 = fptoui double %601 to i32, !taffo.info !24
  %u5_27fixp138 = add i32 %602, %u5_27fixp98, !taffo.info !49
  %603 = uitofp i32 %u5_27fixp138 to float, !taffo.info !49
  %604 = fdiv float %603, 0x41A0000000000000, !taffo.info !49
  %605 = getelementptr inbounds [2 x float], [2 x float]* %14, i64 0, i64 0, !taffo.info !24, !taffo.initweight !26
  store float %604, float* %605, align 4, !taffo.info !24
  br label %623

; <label>:606:                                    ; preds = %585
  %607 = fpext float %411 to double, !taffo.info !24, !taffo.initweight !27
  %608 = fsub float %414, %411, !taffo.info !24, !taffo.initweight !27
  %609 = fmul float %608, %.05, !taffo.info !24, !taffo.initweight !27
  %610 = fpext float %609 to double, !taffo.info !24, !taffo.initweight !28
  %611 = fmul float 0x4190000000000000, %586, !taffo.info !24
  %s6_26fixp12 = fptosi float %611 to i32, !taffo.info !50
  %s6_26fixp52 = add i32 %s6_26fixp12, 671, !taffo.info !50, !taffo.constinfo !46
  %612 = fmul double 0x4190000000000000, %610, !taffo.info !24
  %613 = fptosi double %612 to i32, !taffo.info !24
  %614 = sext i32 %613 to i64, !taffo.info !24
  %615 = shl i64 %614, 26, !taffo.info !24
  %616 = sext i32 %s6_26fixp52 to i64
  %617 = sdiv i64 %615, %616
  %s6_26fixp92 = trunc i64 %617 to i32, !taffo.info !53
  %618 = fmul double 0x4190000000000000, %607, !taffo.info !24
  %619 = fptosi double %618 to i32, !taffo.info !24
  %s6_26fixp132 = add i32 %619, %s6_26fixp92, !taffo.info !53
  %620 = sitofp i32 %s6_26fixp132 to float, !taffo.info !53
  %621 = fdiv float %620, 0x4190000000000000, !taffo.info !53
  %622 = getelementptr inbounds [2 x float], [2 x float]* %14, i64 0, i64 0, !taffo.info !24, !taffo.initweight !26
  store float %621, float* %622, align 4, !taffo.info !24
  br label %623

; <label>:623:                                    ; preds = %606, %589
  %624 = fcmp oge float %587, 0.000000e+00, !taffo.info !24, !taffo.initweight !27
  br i1 %624, label %625, label %642, !taffo.info !24, !taffo.initweight !28

; <label>:625:                                    ; preds = %623
  %626 = fpext float %411 to double, !taffo.info !24, !taffo.initweight !27
  %627 = fsub float %417, %411, !taffo.info !24, !taffo.initweight !27
  %628 = fmul float %627, %.05, !taffo.info !24, !taffo.initweight !27
  %629 = fpext float %628 to double, !taffo.info !24, !taffo.initweight !28
  %630 = fmul float 0x41A0000000000000, %587, !taffo.info !24
  %u5_27fixp19 = fptoui float %630 to i32, !taffo.info !43
  %u5_27fixp59 = add i32 %u5_27fixp19, 1342, !taffo.info !43, !taffo.constinfo !46
  %631 = fmul double 0x41A0000000000000, %629, !taffo.info !24
  %632 = fptoui double %631 to i32, !taffo.info !24
  %633 = zext i32 %632 to i64, !taffo.info !24
  %634 = shl i64 %633, 27, !taffo.info !24
  %635 = zext i32 %u5_27fixp59 to i64
  %636 = udiv i64 %634, %635
  %u5_27fixp99 = trunc i64 %636 to i32, !taffo.info !49
  %637 = fmul double 0x41A0000000000000, %626, !taffo.info !24
  %638 = fptoui double %637 to i32, !taffo.info !24
  %u5_27fixp139 = add i32 %638, %u5_27fixp99, !taffo.info !49
  %639 = uitofp i32 %u5_27fixp139 to float, !taffo.info !49
  %640 = fdiv float %639, 0x41A0000000000000, !taffo.info !49
  %641 = getelementptr inbounds [2 x float], [2 x float]* %14, i64 0, i64 1, !taffo.info !24, !taffo.initweight !26
  store float %640, float* %641, align 4, !taffo.info !24
  br label %659

; <label>:642:                                    ; preds = %623
  %643 = fpext float %411 to double, !taffo.info !24, !taffo.initweight !27
  %644 = fsub float %417, %411, !taffo.info !24, !taffo.initweight !27
  %645 = fmul float %644, %.05, !taffo.info !24, !taffo.initweight !27
  %646 = fpext float %645 to double, !taffo.info !24, !taffo.initweight !28
  %647 = fmul float 0x4190000000000000, %587, !taffo.info !24
  %s6_26fixp27 = fptosi float %647 to i32, !taffo.info !50
  %s6_26fixp67 = add i32 %s6_26fixp27, 671, !taffo.info !50, !taffo.constinfo !46
  %648 = fmul double 0x4190000000000000, %646, !taffo.info !24
  %649 = fptosi double %648 to i32, !taffo.info !24
  %650 = sext i32 %649 to i64, !taffo.info !24
  %651 = shl i64 %650, 26, !taffo.info !24
  %652 = sext i32 %s6_26fixp67 to i64
  %653 = sdiv i64 %651, %652
  %s6_26fixp107 = trunc i64 %653 to i32, !taffo.info !53
  %654 = fmul double 0x4190000000000000, %643, !taffo.info !24
  %655 = fptosi double %654 to i32, !taffo.info !24
  %s6_26fixp147 = add i32 %655, %s6_26fixp107, !taffo.info !53
  %656 = sitofp i32 %s6_26fixp147 to float, !taffo.info !53
  %657 = fdiv float %656, 0x4190000000000000, !taffo.info !53
  %658 = getelementptr inbounds [2 x float], [2 x float]* %14, i64 0, i64 1, !taffo.info !24, !taffo.initweight !26
  store float %657, float* %658, align 4, !taffo.info !24
  br label %659

; <label>:659:                                    ; preds = %642, %625
  br label %819

; <label>:660:                                    ; preds = %583
  %661 = fcmp une float %.04, 0.000000e+00, !taffo.info !24, !taffo.initweight !27
  br i1 %661, label %662, label %737, !taffo.info !24, !taffo.initweight !28

; <label>:662:                                    ; preds = %660
  %663 = fsub float %.04, %.05, !taffo.info !24, !taffo.initweight !27
  %664 = fsub float %.04, %.03, !taffo.info !24, !taffo.initweight !27
  %665 = fcmp oge float %663, 0.000000e+00, !taffo.info !24, !taffo.initweight !27
  br i1 %665, label %666, label %683, !taffo.info !24, !taffo.initweight !28

; <label>:666:                                    ; preds = %662
  %667 = fpext float %414 to double, !taffo.info !24, !taffo.initweight !27
  %668 = fsub float %411, %414, !taffo.info !24, !taffo.initweight !27
  %669 = fmul float %668, %.04, !taffo.info !24, !taffo.initweight !27
  %670 = fpext float %669 to double, !taffo.info !24, !taffo.initweight !28
  %671 = fmul float 0x41A0000000000000, %663, !taffo.info !24
  %u5_27fixp22 = fptoui float %671 to i32, !taffo.info !43
  %u5_27fixp62 = add i32 %u5_27fixp22, 1342, !taffo.info !43, !taffo.constinfo !46
  %672 = fmul double 0x41A0000000000000, %670, !taffo.info !24
  %673 = fptoui double %672 to i32, !taffo.info !24
  %674 = zext i32 %673 to i64, !taffo.info !24
  %675 = shl i64 %674, 27, !taffo.info !24
  %676 = zext i32 %u5_27fixp62 to i64
  %677 = udiv i64 %675, %676
  %u5_27fixp102 = trunc i64 %677 to i32, !taffo.info !49
  %678 = fmul double 0x41A0000000000000, %667, !taffo.info !24
  %679 = fptoui double %678 to i32, !taffo.info !24
  %u5_27fixp142 = add i32 %679, %u5_27fixp102, !taffo.info !49
  %680 = uitofp i32 %u5_27fixp142 to float, !taffo.info !49
  %681 = fdiv float %680, 0x41A0000000000000, !taffo.info !49
  %682 = getelementptr inbounds [2 x float], [2 x float]* %14, i64 0, i64 0, !taffo.info !24, !taffo.initweight !26
  store float %681, float* %682, align 4, !taffo.info !24
  br label %700

; <label>:683:                                    ; preds = %662
  %684 = fpext float %414 to double, !taffo.info !24, !taffo.initweight !27
  %685 = fsub float %411, %414, !taffo.info !24, !taffo.initweight !27
  %686 = fmul float %685, %.04, !taffo.info !24, !taffo.initweight !27
  %687 = fpext float %686 to double, !taffo.info !24, !taffo.initweight !28
  %688 = fmul float 0x4190000000000000, %663, !taffo.info !24
  %s6_26fixp25 = fptosi float %688 to i32, !taffo.info !50
  %s6_26fixp65 = add i32 %s6_26fixp25, 671, !taffo.info !50, !taffo.constinfo !46
  %689 = fmul double 0x4190000000000000, %687, !taffo.info !24
  %690 = fptosi double %689 to i32, !taffo.info !24
  %691 = sext i32 %690 to i64, !taffo.info !24
  %692 = shl i64 %691, 26, !taffo.info !24
  %693 = sext i32 %s6_26fixp65 to i64
  %694 = sdiv i64 %692, %693
  %s6_26fixp105 = trunc i64 %694 to i32, !taffo.info !53
  %695 = fmul double 0x4190000000000000, %684, !taffo.info !24
  %696 = fptosi double %695 to i32, !taffo.info !24
  %s6_26fixp145 = add i32 %696, %s6_26fixp105, !taffo.info !53
  %697 = sitofp i32 %s6_26fixp145 to float, !taffo.info !53
  %698 = fdiv float %697, 0x4190000000000000, !taffo.info !53
  %699 = getelementptr inbounds [2 x float], [2 x float]* %14, i64 0, i64 0, !taffo.info !24, !taffo.initweight !26
  store float %698, float* %699, align 4, !taffo.info !24
  br label %700

; <label>:700:                                    ; preds = %683, %666
  %701 = fcmp oge float %664, 0.000000e+00, !taffo.info !24, !taffo.initweight !27
  br i1 %701, label %702, label %719, !taffo.info !24, !taffo.initweight !28

; <label>:702:                                    ; preds = %700
  %703 = fpext float %414 to double, !taffo.info !24, !taffo.initweight !27
  %704 = fsub float %417, %414, !taffo.info !24, !taffo.initweight !27
  %705 = fmul float %704, %.04, !taffo.info !24, !taffo.initweight !27
  %706 = fpext float %705 to double, !taffo.info !24, !taffo.initweight !28
  %707 = fmul float 0x41A0000000000000, %664, !taffo.info !24
  %u5_27fixp11 = fptoui float %707 to i32, !taffo.info !43
  %u5_27fixp51 = add i32 %u5_27fixp11, 1342, !taffo.info !43, !taffo.constinfo !46
  %708 = fmul double 0x41A0000000000000, %706, !taffo.info !24
  %709 = fptoui double %708 to i32, !taffo.info !24
  %710 = zext i32 %709 to i64, !taffo.info !24
  %711 = shl i64 %710, 27, !taffo.info !24
  %712 = zext i32 %u5_27fixp51 to i64
  %713 = udiv i64 %711, %712
  %u5_27fixp91 = trunc i64 %713 to i32, !taffo.info !49
  %714 = fmul double 0x41A0000000000000, %703, !taffo.info !24
  %715 = fptoui double %714 to i32, !taffo.info !24
  %u5_27fixp131 = add i32 %715, %u5_27fixp91, !taffo.info !49
  %716 = uitofp i32 %u5_27fixp131 to float, !taffo.info !49
  %717 = fdiv float %716, 0x41A0000000000000, !taffo.info !49
  %718 = getelementptr inbounds [2 x float], [2 x float]* %14, i64 0, i64 1, !taffo.info !24, !taffo.initweight !26
  store float %717, float* %718, align 4, !taffo.info !24
  br label %736

; <label>:719:                                    ; preds = %700
  %720 = fpext float %414 to double, !taffo.info !24, !taffo.initweight !27
  %721 = fsub float %417, %414, !taffo.info !24, !taffo.initweight !27
  %722 = fmul float %721, %.04, !taffo.info !24, !taffo.initweight !27
  %723 = fpext float %722 to double, !taffo.info !24, !taffo.initweight !28
  %724 = fmul float 0x4190000000000000, %664, !taffo.info !24
  %s6_26fixp13 = fptosi float %724 to i32, !taffo.info !50
  %s6_26fixp53 = add i32 %s6_26fixp13, 671, !taffo.info !50, !taffo.constinfo !46
  %725 = fmul double 0x4190000000000000, %723, !taffo.info !24
  %726 = fptosi double %725 to i32, !taffo.info !24
  %727 = sext i32 %726 to i64, !taffo.info !24
  %728 = shl i64 %727, 26, !taffo.info !24
  %729 = sext i32 %s6_26fixp53 to i64
  %730 = sdiv i64 %728, %729
  %s6_26fixp93 = trunc i64 %730 to i32, !taffo.info !53
  %731 = fmul double 0x4190000000000000, %720, !taffo.info !24
  %732 = fptosi double %731 to i32, !taffo.info !24
  %s6_26fixp133 = add i32 %732, %s6_26fixp93, !taffo.info !53
  %733 = sitofp i32 %s6_26fixp133 to float, !taffo.info !53
  %734 = fdiv float %733, 0x4190000000000000, !taffo.info !53
  %735 = getelementptr inbounds [2 x float], [2 x float]* %14, i64 0, i64 1, !taffo.info !24, !taffo.initweight !26
  store float %734, float* %735, align 4, !taffo.info !24
  br label %736

; <label>:736:                                    ; preds = %719, %702
  br label %818

; <label>:737:                                    ; preds = %660
  %738 = fcmp une float %.03, 0.000000e+00, !taffo.info !24, !taffo.initweight !27
  br i1 %738, label %739, label %814, !taffo.info !24, !taffo.initweight !28

; <label>:739:                                    ; preds = %737
  %740 = fsub float %.03, %.05, !taffo.info !24, !taffo.initweight !27
  %741 = fsub float %.03, %.04, !taffo.info !24, !taffo.initweight !27
  %742 = fcmp oge float %740, 0.000000e+00, !taffo.info !24, !taffo.initweight !27
  br i1 %742, label %743, label %760, !taffo.info !24, !taffo.initweight !28

; <label>:743:                                    ; preds = %739
  %744 = fpext float %417 to double, !taffo.info !24, !taffo.initweight !27
  %745 = fsub float %411, %417, !taffo.info !24, !taffo.initweight !27
  %746 = fmul float %745, %.03, !taffo.info !24, !taffo.initweight !27
  %747 = fpext float %746 to double, !taffo.info !24, !taffo.initweight !28
  %748 = fmul float 0x41A0000000000000, %740, !taffo.info !24
  %u5_27fixp = fptoui float %748 to i32, !taffo.info !43
  %u5_27fixp39 = add i32 %u5_27fixp, 1342, !taffo.info !43, !taffo.constinfo !46
  %749 = fmul double 0x41A0000000000000, %747, !taffo.info !24
  %750 = fptoui double %749 to i32, !taffo.info !24
  %751 = zext i32 %750 to i64, !taffo.info !24
  %752 = shl i64 %751, 27, !taffo.info !24
  %753 = zext i32 %u5_27fixp39 to i64
  %754 = udiv i64 %752, %753
  %u5_27fixp79 = trunc i64 %754 to i32, !taffo.info !49
  %755 = fmul double 0x41A0000000000000, %744, !taffo.info !24
  %756 = fptoui double %755 to i32, !taffo.info !24
  %u5_27fixp119 = add i32 %756, %u5_27fixp79, !taffo.info !49
  %757 = uitofp i32 %u5_27fixp119 to float, !taffo.info !49
  %758 = fdiv float %757, 0x41A0000000000000, !taffo.info !49
  %759 = getelementptr inbounds [2 x float], [2 x float]* %14, i64 0, i64 0, !taffo.info !24, !taffo.initweight !26
  store float %758, float* %759, align 4, !taffo.info !24
  br label %777

; <label>:760:                                    ; preds = %739
  %761 = fpext float %417 to double, !taffo.info !24, !taffo.initweight !27
  %762 = fsub float %411, %417, !taffo.info !24, !taffo.initweight !27
  %763 = fmul float %762, %.03, !taffo.info !24, !taffo.initweight !27
  %764 = fpext float %763 to double, !taffo.info !24, !taffo.initweight !28
  %765 = fmul float 0x4190000000000000, %740, !taffo.info !24
  %s6_26fixp3 = fptosi float %765 to i32, !taffo.info !50
  %s6_26fixp43 = add i32 %s6_26fixp3, 671, !taffo.info !50, !taffo.constinfo !46
  %766 = fmul double 0x4190000000000000, %764, !taffo.info !24
  %767 = fptosi double %766 to i32, !taffo.info !24
  %768 = sext i32 %767 to i64, !taffo.info !24
  %769 = shl i64 %768, 26, !taffo.info !24
  %770 = sext i32 %s6_26fixp43 to i64
  %771 = sdiv i64 %769, %770
  %s6_26fixp83 = trunc i64 %771 to i32, !taffo.info !53
  %772 = fmul double 0x4190000000000000, %761, !taffo.info !24
  %773 = fptosi double %772 to i32, !taffo.info !24
  %s6_26fixp123 = add i32 %773, %s6_26fixp83, !taffo.info !53
  %774 = sitofp i32 %s6_26fixp123 to float, !taffo.info !53
  %775 = fdiv float %774, 0x4190000000000000, !taffo.info !53
  %776 = getelementptr inbounds [2 x float], [2 x float]* %14, i64 0, i64 0, !taffo.info !24, !taffo.initweight !26
  store float %775, float* %776, align 4, !taffo.info !24
  br label %777

; <label>:777:                                    ; preds = %760, %743
  %778 = fcmp oge float %741, 0.000000e+00, !taffo.info !24, !taffo.initweight !27
  br i1 %778, label %779, label %796, !taffo.info !24, !taffo.initweight !28

; <label>:779:                                    ; preds = %777
  %780 = fpext float %417 to double, !taffo.info !24, !taffo.initweight !27
  %781 = fsub float %414, %417, !taffo.info !24, !taffo.initweight !27
  %782 = fmul float %781, %.03, !taffo.info !24, !taffo.initweight !27
  %783 = fpext float %782 to double, !taffo.info !24, !taffo.initweight !28
  %784 = fmul float 0x41A0000000000000, %741, !taffo.info !24
  %u5_27fixp10 = fptoui float %784 to i32, !taffo.info !43
  %u5_27fixp50 = add i32 %u5_27fixp10, 1342, !taffo.info !43, !taffo.constinfo !46
  %785 = fmul double 0x41A0000000000000, %783, !taffo.info !24
  %786 = fptoui double %785 to i32, !taffo.info !24
  %787 = zext i32 %786 to i64, !taffo.info !24
  %788 = shl i64 %787, 27, !taffo.info !24
  %789 = zext i32 %u5_27fixp50 to i64
  %790 = udiv i64 %788, %789
  %u5_27fixp90 = trunc i64 %790 to i32, !taffo.info !49
  %791 = fmul double 0x41A0000000000000, %780, !taffo.info !24
  %792 = fptoui double %791 to i32, !taffo.info !24
  %u5_27fixp130 = add i32 %792, %u5_27fixp90, !taffo.info !49
  %793 = uitofp i32 %u5_27fixp130 to float, !taffo.info !49
  %794 = fdiv float %793, 0x41A0000000000000, !taffo.info !49
  %795 = getelementptr inbounds [2 x float], [2 x float]* %14, i64 0, i64 1, !taffo.info !24, !taffo.initweight !26
  store float %794, float* %795, align 4, !taffo.info !24
  br label %813

; <label>:796:                                    ; preds = %777
  %797 = fpext float %417 to double, !taffo.info !24, !taffo.initweight !27
  %798 = fsub float %414, %417, !taffo.info !24, !taffo.initweight !27
  %799 = fmul float %798, %.03, !taffo.info !24, !taffo.initweight !27
  %800 = fpext float %799 to double, !taffo.info !24, !taffo.initweight !28
  %801 = fmul float 0x4190000000000000, %741, !taffo.info !24
  %s6_26fixp26 = fptosi float %801 to i32, !taffo.info !50
  %s6_26fixp66 = add i32 %s6_26fixp26, 671, !taffo.info !50, !taffo.constinfo !46
  %802 = fmul double 0x4190000000000000, %800, !taffo.info !24
  %803 = fptosi double %802 to i32, !taffo.info !24
  %804 = sext i32 %803 to i64, !taffo.info !24
  %805 = shl i64 %804, 26, !taffo.info !24
  %806 = sext i32 %s6_26fixp66 to i64
  %807 = sdiv i64 %805, %806
  %s6_26fixp106 = trunc i64 %807 to i32, !taffo.info !53
  %808 = fmul double 0x4190000000000000, %797, !taffo.info !24
  %809 = fptosi double %808 to i32, !taffo.info !24
  %s6_26fixp146 = add i32 %809, %s6_26fixp106, !taffo.info !53
  %810 = sitofp i32 %s6_26fixp146 to float, !taffo.info !53
  %811 = fdiv float %810, 0x4190000000000000, !taffo.info !53
  %812 = getelementptr inbounds [2 x float], [2 x float]* %14, i64 0, i64 1, !taffo.info !24, !taffo.initweight !26
  store float %811, float* %812, align 4, !taffo.info !24
  br label %813

; <label>:813:                                    ; preds = %796, %779
  br label %817

; <label>:814:                                    ; preds = %737
  %815 = getelementptr inbounds [3 x float], [3 x float]* %11, i32 0, i32 0, !taffo.info !24, !taffo.initweight !26
  %816 = call i32 @_Z16coplanar_tri_triPfS_S_S_S_S_S_.1(float* %815, float* %0, float* %1, float* %2, float* %3, float* %4, float* %5), !taffo.info !24, !taffo.initweight !27, !taffo.constinfo !54, !taffo.originalCall !55
  br label %1264

; <label>:817:                                    ; preds = %813
  br label %818

; <label>:818:                                    ; preds = %817, %736
  br label %819

; <label>:819:                                    ; preds = %818, %659
  br label %820

; <label>:820:                                    ; preds = %819, %579
  br label %821

; <label>:821:                                    ; preds = %820, %502
  store i32 3, i32* %7, align 4, !taffo.constinfo !15
  %822 = fcmp ogt float %175, 0.000000e+00, !taffo.info !24, !taffo.initweight !27, !taffo.target !39
  br i1 %822, label %823, label %898, !taffo.info !24, !taffo.initweight !28, !taffo.target !39

; <label>:823:                                    ; preds = %821
  %824 = fsub float %.06, %.08, !taffo.info !24, !taffo.initweight !27
  %825 = fsub float %.06, %.07, !taffo.info !24, !taffo.initweight !27
  %826 = fcmp oge float %824, 0.000000e+00, !taffo.info !24, !taffo.initweight !27
  br i1 %826, label %827, label %844, !taffo.info !24, !taffo.initweight !28

; <label>:827:                                    ; preds = %823
  %828 = fpext float %426 to double, !taffo.info !24, !taffo.initweight !27
  %829 = fsub float %420, %426, !taffo.info !24, !taffo.initweight !27
  %830 = fmul float %829, %.06, !taffo.info !24, !taffo.initweight !27
  %831 = fpext float %830 to double, !taffo.info !24, !taffo.initweight !28
  %832 = fmul float 0x41A0000000000000, %824, !taffo.info !24
  %u5_27fixp23 = fptoui float %832 to i32, !taffo.info !43
  %u5_27fixp63 = add i32 %u5_27fixp23, 1342, !taffo.info !43, !taffo.constinfo !46
  %833 = fmul double 0x41A0000000000000, %831, !taffo.info !24
  %834 = fptoui double %833 to i32, !taffo.info !24
  %835 = zext i32 %834 to i64, !taffo.info !24
  %836 = shl i64 %835, 27, !taffo.info !24
  %837 = zext i32 %u5_27fixp63 to i64
  %838 = udiv i64 %836, %837
  %u5_27fixp103 = trunc i64 %838 to i32, !taffo.info !49
  %839 = fmul double 0x41A0000000000000, %828, !taffo.info !24
  %840 = fptoui double %839 to i32, !taffo.info !24
  %u5_27fixp143 = add i32 %840, %u5_27fixp103, !taffo.info !49
  %841 = uitofp i32 %u5_27fixp143 to float, !taffo.info !49
  %842 = fdiv float %841, 0x41A0000000000000, !taffo.info !49
  %843 = getelementptr inbounds [2 x float], [2 x float]* %15, i64 0, i64 0, !taffo.info !24, !taffo.initweight !26
  store float %842, float* %843, align 4, !taffo.info !24
  br label %861

; <label>:844:                                    ; preds = %823
  %845 = fpext float %426 to double, !taffo.info !24, !taffo.initweight !27
  %846 = fsub float %420, %426, !taffo.info !24, !taffo.initweight !27
  %847 = fmul float %846, %.06, !taffo.info !24, !taffo.initweight !27
  %848 = fpext float %847 to double, !taffo.info !24, !taffo.initweight !28
  %849 = fmul float 0x4190000000000000, %824, !taffo.info !24
  %s6_26fixp31 = fptosi float %849 to i32, !taffo.info !50
  %s6_26fixp71 = add i32 %s6_26fixp31, 671, !taffo.info !50, !taffo.constinfo !46
  %850 = fmul double 0x4190000000000000, %848, !taffo.info !24
  %851 = fptosi double %850 to i32, !taffo.info !24
  %852 = sext i32 %851 to i64, !taffo.info !24
  %853 = shl i64 %852, 26, !taffo.info !24
  %854 = sext i32 %s6_26fixp71 to i64
  %855 = sdiv i64 %853, %854
  %s6_26fixp111 = trunc i64 %855 to i32, !taffo.info !53
  %856 = fmul double 0x4190000000000000, %845, !taffo.info !24
  %857 = fptosi double %856 to i32, !taffo.info !24
  %s6_26fixp151 = add i32 %857, %s6_26fixp111, !taffo.info !53
  %858 = sitofp i32 %s6_26fixp151 to float, !taffo.info !53
  %859 = fdiv float %858, 0x4190000000000000, !taffo.info !53
  %860 = getelementptr inbounds [2 x float], [2 x float]* %15, i64 0, i64 0, !taffo.info !24, !taffo.initweight !26
  store float %859, float* %860, align 4, !taffo.info !24
  br label %861

; <label>:861:                                    ; preds = %844, %827
  %862 = fcmp oge float %825, 0.000000e+00, !taffo.info !24, !taffo.initweight !27
  br i1 %862, label %863, label %880, !taffo.info !24, !taffo.initweight !28

; <label>:863:                                    ; preds = %861
  %864 = fpext float %426 to double, !taffo.info !24, !taffo.initweight !27
  %865 = fsub float %423, %426, !taffo.info !24, !taffo.initweight !27
  %866 = fmul float %865, %.06, !taffo.info !24, !taffo.initweight !27
  %867 = fpext float %866 to double, !taffo.info !24, !taffo.initweight !28
  %868 = fmul float 0x41A0000000000000, %825, !taffo.info !24
  %u5_27fixp38 = fptoui float %868 to i32, !taffo.info !43
  %u5_27fixp78 = add i32 %u5_27fixp38, 1342, !taffo.info !43, !taffo.constinfo !46
  %869 = fmul double 0x41A0000000000000, %867, !taffo.info !24
  %870 = fptoui double %869 to i32, !taffo.info !24
  %871 = zext i32 %870 to i64, !taffo.info !24
  %872 = shl i64 %871, 27, !taffo.info !24
  %873 = zext i32 %u5_27fixp78 to i64
  %874 = udiv i64 %872, %873
  %u5_27fixp118 = trunc i64 %874 to i32, !taffo.info !49
  %875 = fmul double 0x41A0000000000000, %864, !taffo.info !24
  %876 = fptoui double %875 to i32, !taffo.info !24
  %u5_27fixp158 = add i32 %876, %u5_27fixp118, !taffo.info !49
  %877 = uitofp i32 %u5_27fixp158 to float, !taffo.info !49
  %878 = fdiv float %877, 0x41A0000000000000, !taffo.info !49
  %879 = getelementptr inbounds [2 x float], [2 x float]* %15, i64 0, i64 1, !taffo.info !24, !taffo.initweight !26
  store float %878, float* %879, align 4, !taffo.info !24
  br label %897

; <label>:880:                                    ; preds = %861
  %881 = fpext float %426 to double, !taffo.info !24, !taffo.initweight !27
  %882 = fsub float %423, %426, !taffo.info !24, !taffo.initweight !27
  %883 = fmul float %882, %.06, !taffo.info !24, !taffo.initweight !27
  %884 = fpext float %883 to double, !taffo.info !24, !taffo.initweight !28
  %885 = fmul float 0x4190000000000000, %825, !taffo.info !24
  %s6_26fixp = fptosi float %885 to i32, !taffo.info !50
  %s6_26fixp41 = add i32 %s6_26fixp, 671, !taffo.info !50, !taffo.constinfo !46
  %886 = fmul double 0x4190000000000000, %884, !taffo.info !24
  %887 = fptosi double %886 to i32, !taffo.info !24
  %888 = sext i32 %887 to i64, !taffo.info !24
  %889 = shl i64 %888, 26, !taffo.info !24
  %890 = sext i32 %s6_26fixp41 to i64
  %891 = sdiv i64 %889, %890
  %s6_26fixp81 = trunc i64 %891 to i32, !taffo.info !53
  %892 = fmul double 0x4190000000000000, %881, !taffo.info !24
  %893 = fptosi double %892 to i32, !taffo.info !24
  %s6_26fixp121 = add i32 %893, %s6_26fixp81, !taffo.info !53
  %894 = sitofp i32 %s6_26fixp121 to float, !taffo.info !53
  %895 = fdiv float %894, 0x4190000000000000, !taffo.info !53
  %896 = getelementptr inbounds [2 x float], [2 x float]* %15, i64 0, i64 1, !taffo.info !24, !taffo.initweight !26
  store float %895, float* %896, align 4, !taffo.info !24
  br label %897

; <label>:897:                                    ; preds = %880, %863
  br label %1216

; <label>:898:                                    ; preds = %821
  %899 = fcmp ogt float %176, 0.000000e+00, !taffo.info !24, !taffo.initweight !27, !taffo.target !40
  br i1 %899, label %900, label %975, !taffo.info !24, !taffo.initweight !28, !taffo.target !40

; <label>:900:                                    ; preds = %898
  %901 = fsub float %.07, %.08, !taffo.info !24, !taffo.initweight !27
  %902 = fsub float %.07, %.06, !taffo.info !24, !taffo.initweight !27
  %903 = fcmp oge float %901, 0.000000e+00, !taffo.info !24, !taffo.initweight !27
  br i1 %903, label %904, label %921, !taffo.info !24, !taffo.initweight !28

; <label>:904:                                    ; preds = %900
  %905 = fpext float %423 to double, !taffo.info !24, !taffo.initweight !27
  %906 = fsub float %420, %423, !taffo.info !24, !taffo.initweight !27
  %907 = fmul float %906, %.07, !taffo.info !24, !taffo.initweight !27
  %908 = fpext float %907 to double, !taffo.info !24, !taffo.initweight !28
  %909 = fmul float 0x41A0000000000000, %901, !taffo.info !24
  %u5_27fixp30 = fptoui float %909 to i32, !taffo.info !43
  %u5_27fixp70 = add i32 %u5_27fixp30, 1342, !taffo.info !43, !taffo.constinfo !46
  %910 = fmul double 0x41A0000000000000, %908, !taffo.info !24
  %911 = fptoui double %910 to i32, !taffo.info !24
  %912 = zext i32 %911 to i64, !taffo.info !24
  %913 = shl i64 %912, 27, !taffo.info !24
  %914 = zext i32 %u5_27fixp70 to i64
  %915 = udiv i64 %913, %914
  %u5_27fixp110 = trunc i64 %915 to i32, !taffo.info !49
  %916 = fmul double 0x41A0000000000000, %905, !taffo.info !24
  %917 = fptoui double %916 to i32, !taffo.info !24
  %u5_27fixp150 = add i32 %917, %u5_27fixp110, !taffo.info !49
  %918 = uitofp i32 %u5_27fixp150 to float, !taffo.info !49
  %919 = fdiv float %918, 0x41A0000000000000, !taffo.info !49
  %920 = getelementptr inbounds [2 x float], [2 x float]* %15, i64 0, i64 0, !taffo.info !24, !taffo.initweight !26
  store float %919, float* %920, align 4, !taffo.info !24
  br label %938

; <label>:921:                                    ; preds = %900
  %922 = fpext float %423 to double, !taffo.info !24, !taffo.initweight !27
  %923 = fsub float %420, %423, !taffo.info !24, !taffo.initweight !27
  %924 = fmul float %923, %.07, !taffo.info !24, !taffo.initweight !27
  %925 = fpext float %924 to double, !taffo.info !24, !taffo.initweight !28
  %926 = fmul float 0x4190000000000000, %901, !taffo.info !24
  %s6_26fixp36 = fptosi float %926 to i32, !taffo.info !50
  %s6_26fixp76 = add i32 %s6_26fixp36, 671, !taffo.info !50, !taffo.constinfo !46
  %927 = fmul double 0x4190000000000000, %925, !taffo.info !24
  %928 = fptosi double %927 to i32, !taffo.info !24
  %929 = sext i32 %928 to i64, !taffo.info !24
  %930 = shl i64 %929, 26, !taffo.info !24
  %931 = sext i32 %s6_26fixp76 to i64
  %932 = sdiv i64 %930, %931
  %s6_26fixp116 = trunc i64 %932 to i32, !taffo.info !53
  %933 = fmul double 0x4190000000000000, %922, !taffo.info !24
  %934 = fptosi double %933 to i32, !taffo.info !24
  %s6_26fixp156 = add i32 %934, %s6_26fixp116, !taffo.info !53
  %935 = sitofp i32 %s6_26fixp156 to float, !taffo.info !53
  %936 = fdiv float %935, 0x4190000000000000, !taffo.info !53
  %937 = getelementptr inbounds [2 x float], [2 x float]* %15, i64 0, i64 0, !taffo.info !24, !taffo.initweight !26
  store float %936, float* %937, align 4, !taffo.info !24
  br label %938

; <label>:938:                                    ; preds = %921, %904
  %939 = fcmp oge float %902, 0.000000e+00, !taffo.info !24, !taffo.initweight !27
  br i1 %939, label %940, label %957, !taffo.info !24, !taffo.initweight !28

; <label>:940:                                    ; preds = %938
  %941 = fpext float %423 to double, !taffo.info !24, !taffo.initweight !27
  %942 = fsub float %426, %423, !taffo.info !24, !taffo.initweight !27
  %943 = fmul float %942, %.07, !taffo.info !24, !taffo.initweight !27
  %944 = fpext float %943 to double, !taffo.info !24, !taffo.initweight !28
  %945 = fmul float 0x41A0000000000000, %902, !taffo.info !24
  %u5_27fixp35 = fptoui float %945 to i32, !taffo.info !43
  %u5_27fixp75 = add i32 %u5_27fixp35, 1342, !taffo.info !43, !taffo.constinfo !46
  %946 = fmul double 0x41A0000000000000, %944, !taffo.info !24
  %947 = fptoui double %946 to i32, !taffo.info !24
  %948 = zext i32 %947 to i64, !taffo.info !24
  %949 = shl i64 %948, 27, !taffo.info !24
  %950 = zext i32 %u5_27fixp75 to i64
  %951 = udiv i64 %949, %950
  %u5_27fixp115 = trunc i64 %951 to i32, !taffo.info !49
  %952 = fmul double 0x41A0000000000000, %941, !taffo.info !24
  %953 = fptoui double %952 to i32, !taffo.info !24
  %u5_27fixp155 = add i32 %953, %u5_27fixp115, !taffo.info !49
  %954 = uitofp i32 %u5_27fixp155 to float, !taffo.info !49
  %955 = fdiv float %954, 0x41A0000000000000, !taffo.info !49
  %956 = getelementptr inbounds [2 x float], [2 x float]* %15, i64 0, i64 1, !taffo.info !24, !taffo.initweight !26
  store float %955, float* %956, align 4, !taffo.info !24
  br label %974

; <label>:957:                                    ; preds = %938
  %958 = fpext float %423 to double, !taffo.info !24, !taffo.initweight !27
  %959 = fsub float %426, %423, !taffo.info !24, !taffo.initweight !27
  %960 = fmul float %959, %.07, !taffo.info !24, !taffo.initweight !27
  %961 = fpext float %960 to double, !taffo.info !24, !taffo.initweight !28
  %962 = fmul float 0x4190000000000000, %902, !taffo.info !24
  %s6_26fixp20 = fptosi float %962 to i32, !taffo.info !50
  %s6_26fixp60 = add i32 %s6_26fixp20, 671, !taffo.info !50, !taffo.constinfo !46
  %963 = fmul double 0x4190000000000000, %961, !taffo.info !24
  %964 = fptosi double %963 to i32, !taffo.info !24
  %965 = sext i32 %964 to i64, !taffo.info !24
  %966 = shl i64 %965, 26, !taffo.info !24
  %967 = sext i32 %s6_26fixp60 to i64
  %968 = sdiv i64 %966, %967
  %s6_26fixp100 = trunc i64 %968 to i32, !taffo.info !53
  %969 = fmul double 0x4190000000000000, %958, !taffo.info !24
  %970 = fptosi double %969 to i32, !taffo.info !24
  %s6_26fixp140 = add i32 %970, %s6_26fixp100, !taffo.info !53
  %971 = sitofp i32 %s6_26fixp140 to float, !taffo.info !53
  %972 = fdiv float %971, 0x4190000000000000, !taffo.info !53
  %973 = getelementptr inbounds [2 x float], [2 x float]* %15, i64 0, i64 1, !taffo.info !24, !taffo.initweight !26
  store float %972, float* %973, align 4, !taffo.info !24
  br label %974

; <label>:974:                                    ; preds = %957, %940
  br label %1215

; <label>:975:                                    ; preds = %898
  %976 = fmul float %.07, %.06, !taffo.info !24, !taffo.initweight !27
  %977 = fcmp ogt float %976, 0.000000e+00, !taffo.info !24, !taffo.initweight !28
  br i1 %977, label %980, label %978, !taffo.info !24, !taffo.initweight !29

; <label>:978:                                    ; preds = %975
  %979 = fcmp une float %.08, 0.000000e+00, !taffo.info !24, !taffo.initweight !27
  br i1 %979, label %980, label %1055, !taffo.info !24, !taffo.initweight !28

; <label>:980:                                    ; preds = %978, %975
  %981 = fsub float %.08, %.07, !taffo.info !24, !taffo.initweight !27
  %982 = fsub float %.08, %.06, !taffo.info !24, !taffo.initweight !27
  %983 = fcmp oge float %981, 0.000000e+00, !taffo.info !24, !taffo.initweight !27
  br i1 %983, label %984, label %1001, !taffo.info !24, !taffo.initweight !28

; <label>:984:                                    ; preds = %980
  %985 = fpext float %420 to double, !taffo.info !24, !taffo.initweight !27
  %986 = fsub float %423, %420, !taffo.info !24, !taffo.initweight !27
  %987 = fmul float %986, %.08, !taffo.info !24, !taffo.initweight !27
  %988 = fpext float %987 to double, !taffo.info !24, !taffo.initweight !28
  %989 = fmul float 0x41A0000000000000, %981, !taffo.info !24
  %u5_27fixp6 = fptoui float %989 to i32, !taffo.info !43
  %u5_27fixp46 = add i32 %u5_27fixp6, 1342, !taffo.info !43, !taffo.constinfo !46
  %990 = fmul double 0x41A0000000000000, %988, !taffo.info !24
  %991 = fptoui double %990 to i32, !taffo.info !24
  %992 = zext i32 %991 to i64, !taffo.info !24
  %993 = shl i64 %992, 27, !taffo.info !24
  %994 = zext i32 %u5_27fixp46 to i64
  %995 = udiv i64 %993, %994
  %u5_27fixp86 = trunc i64 %995 to i32, !taffo.info !49
  %996 = fmul double 0x41A0000000000000, %985, !taffo.info !24
  %997 = fptoui double %996 to i32, !taffo.info !24
  %u5_27fixp126 = add i32 %997, %u5_27fixp86, !taffo.info !49
  %998 = uitofp i32 %u5_27fixp126 to float, !taffo.info !49
  %999 = fdiv float %998, 0x41A0000000000000, !taffo.info !49
  %1000 = getelementptr inbounds [2 x float], [2 x float]* %15, i64 0, i64 0, !taffo.info !24, !taffo.initweight !26
  store float %999, float* %1000, align 4, !taffo.info !24
  br label %1018

; <label>:1001:                                   ; preds = %980
  %1002 = fpext float %420 to double, !taffo.info !24, !taffo.initweight !27
  %1003 = fsub float %423, %420, !taffo.info !24, !taffo.initweight !27
  %1004 = fmul float %1003, %.08, !taffo.info !24, !taffo.initweight !27
  %1005 = fpext float %1004 to double, !taffo.info !24, !taffo.initweight !28
  %1006 = fmul float 0x4190000000000000, %981, !taffo.info !24
  %s6_26fixp9 = fptosi float %1006 to i32, !taffo.info !50
  %s6_26fixp49 = add i32 %s6_26fixp9, 671, !taffo.info !50, !taffo.constinfo !46
  %1007 = fmul double 0x4190000000000000, %1005, !taffo.info !24
  %1008 = fptosi double %1007 to i32, !taffo.info !24
  %1009 = sext i32 %1008 to i64, !taffo.info !24
  %1010 = shl i64 %1009, 26, !taffo.info !24
  %1011 = sext i32 %s6_26fixp49 to i64
  %1012 = sdiv i64 %1010, %1011
  %s6_26fixp89 = trunc i64 %1012 to i32, !taffo.info !53
  %1013 = fmul double 0x4190000000000000, %1002, !taffo.info !24
  %1014 = fptosi double %1013 to i32, !taffo.info !24
  %s6_26fixp129 = add i32 %1014, %s6_26fixp89, !taffo.info !53
  %1015 = sitofp i32 %s6_26fixp129 to float, !taffo.info !53
  %1016 = fdiv float %1015, 0x4190000000000000, !taffo.info !53
  %1017 = getelementptr inbounds [2 x float], [2 x float]* %15, i64 0, i64 0, !taffo.info !24, !taffo.initweight !26
  store float %1016, float* %1017, align 4, !taffo.info !24
  br label %1018

; <label>:1018:                                   ; preds = %1001, %984
  %1019 = fcmp oge float %982, 0.000000e+00, !taffo.info !24, !taffo.initweight !27
  br i1 %1019, label %1020, label %1037, !taffo.info !24, !taffo.initweight !28

; <label>:1020:                                   ; preds = %1018
  %1021 = fpext float %420 to double, !taffo.info !24, !taffo.initweight !27
  %1022 = fsub float %426, %420, !taffo.info !24, !taffo.initweight !27
  %1023 = fmul float %1022, %.08, !taffo.info !24, !taffo.initweight !27
  %1024 = fpext float %1023 to double, !taffo.info !24, !taffo.initweight !28
  %1025 = fmul float 0x41A0000000000000, %982, !taffo.info !24
  %u5_27fixp4 = fptoui float %1025 to i32, !taffo.info !43
  %u5_27fixp44 = add i32 %u5_27fixp4, 1342, !taffo.info !43, !taffo.constinfo !46
  %1026 = fmul double 0x41A0000000000000, %1024, !taffo.info !24
  %1027 = fptoui double %1026 to i32, !taffo.info !24
  %1028 = zext i32 %1027 to i64, !taffo.info !24
  %1029 = shl i64 %1028, 27, !taffo.info !24
  %1030 = zext i32 %u5_27fixp44 to i64
  %1031 = udiv i64 %1029, %1030
  %u5_27fixp84 = trunc i64 %1031 to i32, !taffo.info !49
  %1032 = fmul double 0x41A0000000000000, %1021, !taffo.info !24
  %1033 = fptoui double %1032 to i32, !taffo.info !24
  %u5_27fixp124 = add i32 %1033, %u5_27fixp84, !taffo.info !49
  %1034 = uitofp i32 %u5_27fixp124 to float, !taffo.info !49
  %1035 = fdiv float %1034, 0x41A0000000000000, !taffo.info !49
  %1036 = getelementptr inbounds [2 x float], [2 x float]* %15, i64 0, i64 1, !taffo.info !24, !taffo.initweight !26
  store float %1035, float* %1036, align 4, !taffo.info !24
  br label %1054

; <label>:1037:                                   ; preds = %1018
  %1038 = fpext float %420 to double, !taffo.info !24, !taffo.initweight !27
  %1039 = fsub float %426, %420, !taffo.info !24, !taffo.initweight !27
  %1040 = fmul float %1039, %.08, !taffo.info !24, !taffo.initweight !27
  %1041 = fpext float %1040 to double, !taffo.info !24, !taffo.initweight !28
  %1042 = fmul float 0x4190000000000000, %982, !taffo.info !24
  %s6_26fixp24 = fptosi float %1042 to i32, !taffo.info !50
  %s6_26fixp64 = add i32 %s6_26fixp24, 671, !taffo.info !50, !taffo.constinfo !46
  %1043 = fmul double 0x4190000000000000, %1041, !taffo.info !24
  %1044 = fptosi double %1043 to i32, !taffo.info !24
  %1045 = sext i32 %1044 to i64, !taffo.info !24
  %1046 = shl i64 %1045, 26, !taffo.info !24
  %1047 = sext i32 %s6_26fixp64 to i64
  %1048 = sdiv i64 %1046, %1047
  %s6_26fixp104 = trunc i64 %1048 to i32, !taffo.info !53
  %1049 = fmul double 0x4190000000000000, %1038, !taffo.info !24
  %1050 = fptosi double %1049 to i32, !taffo.info !24
  %s6_26fixp144 = add i32 %1050, %s6_26fixp104, !taffo.info !53
  %1051 = sitofp i32 %s6_26fixp144 to float, !taffo.info !53
  %1052 = fdiv float %1051, 0x4190000000000000, !taffo.info !53
  %1053 = getelementptr inbounds [2 x float], [2 x float]* %15, i64 0, i64 1, !taffo.info !24, !taffo.initweight !26
  store float %1052, float* %1053, align 4, !taffo.info !24
  br label %1054

; <label>:1054:                                   ; preds = %1037, %1020
  br label %1214

; <label>:1055:                                   ; preds = %978
  %1056 = fcmp une float %.07, 0.000000e+00, !taffo.info !24, !taffo.initweight !27
  br i1 %1056, label %1057, label %1132, !taffo.info !24, !taffo.initweight !28

; <label>:1057:                                   ; preds = %1055
  %1058 = fsub float %.07, %.08, !taffo.info !24, !taffo.initweight !27
  %1059 = fsub float %.07, %.06, !taffo.info !24, !taffo.initweight !27
  %1060 = fcmp oge float %1058, 0.000000e+00, !taffo.info !24, !taffo.initweight !27
  br i1 %1060, label %1061, label %1078, !taffo.info !24, !taffo.initweight !28

; <label>:1061:                                   ; preds = %1057
  %1062 = fpext float %423 to double, !taffo.info !24, !taffo.initweight !27
  %1063 = fsub float %420, %423, !taffo.info !24, !taffo.initweight !27
  %1064 = fmul float %1063, %.07, !taffo.info !24, !taffo.initweight !27
  %1065 = fpext float %1064 to double, !taffo.info !24, !taffo.initweight !28
  %1066 = fmul float 0x41A0000000000000, %1058, !taffo.info !24
  %u5_27fixp21 = fptoui float %1066 to i32, !taffo.info !43
  %u5_27fixp61 = add i32 %u5_27fixp21, 1342, !taffo.info !43, !taffo.constinfo !46
  %1067 = fmul double 0x41A0000000000000, %1065, !taffo.info !24
  %1068 = fptoui double %1067 to i32, !taffo.info !24
  %1069 = zext i32 %1068 to i64, !taffo.info !24
  %1070 = shl i64 %1069, 27, !taffo.info !24
  %1071 = zext i32 %u5_27fixp61 to i64
  %1072 = udiv i64 %1070, %1071
  %u5_27fixp101 = trunc i64 %1072 to i32, !taffo.info !49
  %1073 = fmul double 0x41A0000000000000, %1062, !taffo.info !24
  %1074 = fptoui double %1073 to i32, !taffo.info !24
  %u5_27fixp141 = add i32 %1074, %u5_27fixp101, !taffo.info !49
  %1075 = uitofp i32 %u5_27fixp141 to float, !taffo.info !49
  %1076 = fdiv float %1075, 0x41A0000000000000, !taffo.info !49
  %1077 = getelementptr inbounds [2 x float], [2 x float]* %15, i64 0, i64 0, !taffo.info !24, !taffo.initweight !26
  store float %1076, float* %1077, align 4, !taffo.info !24
  br label %1095

; <label>:1078:                                   ; preds = %1057
  %1079 = fpext float %423 to double, !taffo.info !24, !taffo.initweight !27
  %1080 = fsub float %420, %423, !taffo.info !24, !taffo.initweight !27
  %1081 = fmul float %1080, %.07, !taffo.info !24, !taffo.initweight !27
  %1082 = fpext float %1081 to double, !taffo.info !24, !taffo.initweight !28
  %1083 = fmul float 0x4190000000000000, %1058, !taffo.info !24
  %s6_26fixp14 = fptosi float %1083 to i32, !taffo.info !50
  %s6_26fixp54 = add i32 %s6_26fixp14, 671, !taffo.info !50, !taffo.constinfo !46
  %1084 = fmul double 0x4190000000000000, %1082, !taffo.info !24
  %1085 = fptosi double %1084 to i32, !taffo.info !24
  %1086 = sext i32 %1085 to i64, !taffo.info !24
  %1087 = shl i64 %1086, 26, !taffo.info !24
  %1088 = sext i32 %s6_26fixp54 to i64
  %1089 = sdiv i64 %1087, %1088
  %s6_26fixp94 = trunc i64 %1089 to i32, !taffo.info !53
  %1090 = fmul double 0x4190000000000000, %1079, !taffo.info !24
  %1091 = fptosi double %1090 to i32, !taffo.info !24
  %s6_26fixp134 = add i32 %1091, %s6_26fixp94, !taffo.info !53
  %1092 = sitofp i32 %s6_26fixp134 to float, !taffo.info !53
  %1093 = fdiv float %1092, 0x4190000000000000, !taffo.info !53
  %1094 = getelementptr inbounds [2 x float], [2 x float]* %15, i64 0, i64 0, !taffo.info !24, !taffo.initweight !26
  store float %1093, float* %1094, align 4, !taffo.info !24
  br label %1095

; <label>:1095:                                   ; preds = %1078, %1061
  %1096 = fcmp oge float %1059, 0.000000e+00, !taffo.info !24, !taffo.initweight !27
  br i1 %1096, label %1097, label %1114, !taffo.info !24, !taffo.initweight !28

; <label>:1097:                                   ; preds = %1095
  %1098 = fpext float %423 to double, !taffo.info !24, !taffo.initweight !27
  %1099 = fsub float %426, %423, !taffo.info !24, !taffo.initweight !27
  %1100 = fmul float %1099, %.07, !taffo.info !24, !taffo.initweight !27
  %1101 = fpext float %1100 to double, !taffo.info !24, !taffo.initweight !28
  %1102 = fmul float 0x41A0000000000000, %1059, !taffo.info !24
  %u5_27fixp16 = fptoui float %1102 to i32, !taffo.info !43
  %u5_27fixp56 = add i32 %u5_27fixp16, 1342, !taffo.info !43, !taffo.constinfo !46
  %1103 = fmul double 0x41A0000000000000, %1101, !taffo.info !24
  %1104 = fptoui double %1103 to i32, !taffo.info !24
  %1105 = zext i32 %1104 to i64, !taffo.info !24
  %1106 = shl i64 %1105, 27, !taffo.info !24
  %1107 = zext i32 %u5_27fixp56 to i64
  %1108 = udiv i64 %1106, %1107
  %u5_27fixp96 = trunc i64 %1108 to i32, !taffo.info !49
  %1109 = fmul double 0x41A0000000000000, %1098, !taffo.info !24
  %1110 = fptoui double %1109 to i32, !taffo.info !24
  %u5_27fixp136 = add i32 %1110, %u5_27fixp96, !taffo.info !49
  %1111 = uitofp i32 %u5_27fixp136 to float, !taffo.info !49
  %1112 = fdiv float %1111, 0x41A0000000000000, !taffo.info !49
  %1113 = getelementptr inbounds [2 x float], [2 x float]* %15, i64 0, i64 1, !taffo.info !24, !taffo.initweight !26
  store float %1112, float* %1113, align 4, !taffo.info !24
  br label %1131

; <label>:1114:                                   ; preds = %1095
  %1115 = fpext float %423 to double, !taffo.info !24, !taffo.initweight !27
  %1116 = fsub float %426, %423, !taffo.info !24, !taffo.initweight !27
  %1117 = fmul float %1116, %.07, !taffo.info !24, !taffo.initweight !27
  %1118 = fpext float %1117 to double, !taffo.info !24, !taffo.initweight !28
  %1119 = fmul float 0x4190000000000000, %1059, !taffo.info !24
  %s6_26fixp2 = fptosi float %1119 to i32, !taffo.info !50
  %s6_26fixp42 = add i32 %s6_26fixp2, 671, !taffo.info !50, !taffo.constinfo !46
  %1120 = fmul double 0x4190000000000000, %1118, !taffo.info !24
  %1121 = fptosi double %1120 to i32, !taffo.info !24
  %1122 = sext i32 %1121 to i64, !taffo.info !24
  %1123 = shl i64 %1122, 26, !taffo.info !24
  %1124 = sext i32 %s6_26fixp42 to i64
  %1125 = sdiv i64 %1123, %1124
  %s6_26fixp82 = trunc i64 %1125 to i32, !taffo.info !53
  %1126 = fmul double 0x4190000000000000, %1115, !taffo.info !24
  %1127 = fptosi double %1126 to i32, !taffo.info !24
  %s6_26fixp122 = add i32 %1127, %s6_26fixp82, !taffo.info !53
  %1128 = sitofp i32 %s6_26fixp122 to float, !taffo.info !53
  %1129 = fdiv float %1128, 0x4190000000000000, !taffo.info !53
  %1130 = getelementptr inbounds [2 x float], [2 x float]* %15, i64 0, i64 1, !taffo.info !24, !taffo.initweight !26
  store float %1129, float* %1130, align 4, !taffo.info !24
  br label %1131

; <label>:1131:                                   ; preds = %1114, %1097
  br label %1213

; <label>:1132:                                   ; preds = %1055
  %1133 = fcmp une float %.06, 0.000000e+00, !taffo.info !24, !taffo.initweight !27
  br i1 %1133, label %1134, label %1209, !taffo.info !24, !taffo.initweight !28

; <label>:1134:                                   ; preds = %1132
  %1135 = fsub float %.06, %.08, !taffo.info !24, !taffo.initweight !27
  %1136 = fsub float %.06, %.07, !taffo.info !24, !taffo.initweight !27
  %1137 = fcmp oge float %1135, 0.000000e+00, !taffo.info !24, !taffo.initweight !27
  br i1 %1137, label %1138, label %1155, !taffo.info !24, !taffo.initweight !28

; <label>:1138:                                   ; preds = %1134
  %1139 = fpext float %426 to double, !taffo.info !24, !taffo.initweight !27
  %1140 = fsub float %420, %426, !taffo.info !24, !taffo.initweight !27
  %1141 = fmul float %1140, %.06, !taffo.info !24, !taffo.initweight !27
  %1142 = fpext float %1141 to double, !taffo.info !24, !taffo.initweight !28
  %1143 = fmul float 0x41A0000000000000, %1135, !taffo.info !24
  %u5_27fixp8 = fptoui float %1143 to i32, !taffo.info !43
  %u5_27fixp48 = add i32 %u5_27fixp8, 1342, !taffo.info !43, !taffo.constinfo !46
  %1144 = fmul double 0x41A0000000000000, %1142, !taffo.info !24
  %1145 = fptoui double %1144 to i32, !taffo.info !24
  %1146 = zext i32 %1145 to i64, !taffo.info !24
  %1147 = shl i64 %1146, 27, !taffo.info !24
  %1148 = zext i32 %u5_27fixp48 to i64
  %1149 = udiv i64 %1147, %1148
  %u5_27fixp88 = trunc i64 %1149 to i32, !taffo.info !49
  %1150 = fmul double 0x41A0000000000000, %1139, !taffo.info !24
  %1151 = fptoui double %1150 to i32, !taffo.info !24
  %u5_27fixp128 = add i32 %1151, %u5_27fixp88, !taffo.info !49
  %1152 = uitofp i32 %u5_27fixp128 to float, !taffo.info !49
  %1153 = fdiv float %1152, 0x41A0000000000000, !taffo.info !49
  %1154 = getelementptr inbounds [2 x float], [2 x float]* %15, i64 0, i64 0, !taffo.info !24, !taffo.initweight !26
  store float %1153, float* %1154, align 4, !taffo.info !24
  br label %1172

; <label>:1155:                                   ; preds = %1134
  %1156 = fpext float %426 to double, !taffo.info !24, !taffo.initweight !27
  %1157 = fsub float %420, %426, !taffo.info !24, !taffo.initweight !27
  %1158 = fmul float %1157, %.06, !taffo.info !24, !taffo.initweight !27
  %1159 = fpext float %1158 to double, !taffo.info !24, !taffo.initweight !28
  %1160 = fmul float 0x4190000000000000, %1135, !taffo.info !24
  %s6_26fixp32 = fptosi float %1160 to i32, !taffo.info !50
  %s6_26fixp72 = add i32 %s6_26fixp32, 671, !taffo.info !50, !taffo.constinfo !46
  %1161 = fmul double 0x4190000000000000, %1159, !taffo.info !24
  %1162 = fptosi double %1161 to i32, !taffo.info !24
  %1163 = sext i32 %1162 to i64, !taffo.info !24
  %1164 = shl i64 %1163, 26, !taffo.info !24
  %1165 = sext i32 %s6_26fixp72 to i64
  %1166 = sdiv i64 %1164, %1165
  %s6_26fixp112 = trunc i64 %1166 to i32, !taffo.info !53
  %1167 = fmul double 0x4190000000000000, %1156, !taffo.info !24
  %1168 = fptosi double %1167 to i32, !taffo.info !24
  %s6_26fixp152 = add i32 %1168, %s6_26fixp112, !taffo.info !53
  %1169 = sitofp i32 %s6_26fixp152 to float, !taffo.info !53
  %1170 = fdiv float %1169, 0x4190000000000000, !taffo.info !53
  %1171 = getelementptr inbounds [2 x float], [2 x float]* %15, i64 0, i64 0, !taffo.info !24, !taffo.initweight !26
  store float %1170, float* %1171, align 4, !taffo.info !24
  br label %1172

; <label>:1172:                                   ; preds = %1155, %1138
  %1173 = fcmp oge float %1136, 0.000000e+00, !taffo.info !24, !taffo.initweight !27
  br i1 %1173, label %1174, label %1191, !taffo.info !24, !taffo.initweight !28

; <label>:1174:                                   ; preds = %1172
  %1175 = fpext float %426 to double, !taffo.info !24, !taffo.initweight !27
  %1176 = fsub float %423, %426, !taffo.info !24, !taffo.initweight !27
  %1177 = fmul float %1176, %.06, !taffo.info !24, !taffo.initweight !27
  %1178 = fpext float %1177 to double, !taffo.info !24, !taffo.initweight !28
  %1179 = fmul float 0x41A0000000000000, %1136, !taffo.info !24
  %u5_27fixp37 = fptoui float %1179 to i32, !taffo.info !43
  %u5_27fixp77 = add i32 %u5_27fixp37, 1342, !taffo.info !43, !taffo.constinfo !46
  %1180 = fmul double 0x41A0000000000000, %1178, !taffo.info !24
  %1181 = fptoui double %1180 to i32, !taffo.info !24
  %1182 = zext i32 %1181 to i64, !taffo.info !24
  %1183 = shl i64 %1182, 27, !taffo.info !24
  %1184 = zext i32 %u5_27fixp77 to i64
  %1185 = udiv i64 %1183, %1184
  %u5_27fixp117 = trunc i64 %1185 to i32, !taffo.info !49
  %1186 = fmul double 0x41A0000000000000, %1175, !taffo.info !24
  %1187 = fptoui double %1186 to i32, !taffo.info !24
  %u5_27fixp157 = add i32 %1187, %u5_27fixp117, !taffo.info !49
  %1188 = uitofp i32 %u5_27fixp157 to float, !taffo.info !49
  %1189 = fdiv float %1188, 0x41A0000000000000, !taffo.info !49
  %1190 = getelementptr inbounds [2 x float], [2 x float]* %15, i64 0, i64 1, !taffo.info !24, !taffo.initweight !26
  store float %1189, float* %1190, align 4, !taffo.info !24
  br label %1208

; <label>:1191:                                   ; preds = %1172
  %1192 = fpext float %426 to double, !taffo.info !24, !taffo.initweight !27
  %1193 = fsub float %423, %426, !taffo.info !24, !taffo.initweight !27
  %1194 = fmul float %1193, %.06, !taffo.info !24, !taffo.initweight !27
  %1195 = fpext float %1194 to double, !taffo.info !24, !taffo.initweight !28
  %1196 = fmul float 0x4190000000000000, %1136, !taffo.info !24
  %s6_26fixp34 = fptosi float %1196 to i32, !taffo.info !50
  %s6_26fixp74 = add i32 %s6_26fixp34, 671, !taffo.info !50, !taffo.constinfo !46
  %1197 = fmul double 0x4190000000000000, %1195, !taffo.info !24
  %1198 = fptosi double %1197 to i32, !taffo.info !24
  %1199 = sext i32 %1198 to i64, !taffo.info !24
  %1200 = shl i64 %1199, 26, !taffo.info !24
  %1201 = sext i32 %s6_26fixp74 to i64
  %1202 = sdiv i64 %1200, %1201
  %s6_26fixp114 = trunc i64 %1202 to i32, !taffo.info !53
  %1203 = fmul double 0x4190000000000000, %1192, !taffo.info !24
  %1204 = fptosi double %1203 to i32, !taffo.info !24
  %s6_26fixp154 = add i32 %1204, %s6_26fixp114, !taffo.info !53
  %1205 = sitofp i32 %s6_26fixp154 to float, !taffo.info !53
  %1206 = fdiv float %1205, 0x4190000000000000, !taffo.info !53
  %1207 = getelementptr inbounds [2 x float], [2 x float]* %15, i64 0, i64 1, !taffo.info !24, !taffo.initweight !26
  store float %1206, float* %1207, align 4, !taffo.info !24
  br label %1208

; <label>:1208:                                   ; preds = %1191, %1174
  br label %1212

; <label>:1209:                                   ; preds = %1132
  %1210 = getelementptr inbounds [3 x float], [3 x float]* %11, i32 0, i32 0, !taffo.info !24, !taffo.initweight !26
  %1211 = call i32 @_Z16coplanar_tri_triPfS_S_S_S_S_S_.1(float* %1210, float* %0, float* %1, float* %2, float* %3, float* %4, float* %5), !taffo.info !24, !taffo.initweight !27, !taffo.constinfo !54, !taffo.originalCall !55
  br label %1264

; <label>:1212:                                   ; preds = %1208
  br label %1213

; <label>:1213:                                   ; preds = %1212, %1131
  br label %1214

; <label>:1214:                                   ; preds = %1213, %1054
  br label %1215

; <label>:1215:                                   ; preds = %1214, %974
  br label %1216

; <label>:1216:                                   ; preds = %1215, %897
  %1217 = getelementptr inbounds [2 x float], [2 x float]* %14, i64 0, i64 0, !taffo.info !24, !taffo.initweight !26
  %1218 = load float, float* %1217, align 4, !taffo.info !24, !taffo.initweight !27
  %1219 = getelementptr inbounds [2 x float], [2 x float]* %14, i64 0, i64 1, !taffo.info !24, !taffo.initweight !26
  %1220 = load float, float* %1219, align 4, !taffo.info !24, !taffo.initweight !27
  %1221 = fcmp ogt float %1218, %1220, !taffo.info !24, !taffo.initweight !28
  br i1 %1221, label %1222, label %1229, !taffo.info !24, !taffo.initweight !29

; <label>:1222:                                   ; preds = %1216
  %1223 = getelementptr inbounds [2 x float], [2 x float]* %14, i64 0, i64 0, !taffo.info !24, !taffo.initweight !26
  %1224 = load float, float* %1223, align 4, !taffo.info !24, !taffo.initweight !27
  %1225 = getelementptr inbounds [2 x float], [2 x float]* %14, i64 0, i64 1, !taffo.info !24, !taffo.initweight !26
  %1226 = load float, float* %1225, align 4, !taffo.info !24, !taffo.initweight !27
  %1227 = getelementptr inbounds [2 x float], [2 x float]* %14, i64 0, i64 0, !taffo.info !24, !taffo.initweight !26
  store float %1226, float* %1227, align 4, !taffo.info !24
  %1228 = getelementptr inbounds [2 x float], [2 x float]* %14, i64 0, i64 1, !taffo.info !24, !taffo.initweight !26
  store float %1224, float* %1228, align 4, !taffo.info !24
  br label %1229

; <label>:1229:                                   ; preds = %1216, %1222
  %1230 = getelementptr inbounds [2 x float], [2 x float]* %15, i64 0, i64 0, !taffo.info !24, !taffo.initweight !26
  %1231 = load float, float* %1230, align 4, !taffo.info !24, !taffo.initweight !27
  %1232 = getelementptr inbounds [2 x float], [2 x float]* %15, i64 0, i64 1, !taffo.info !24, !taffo.initweight !26
  %1233 = load float, float* %1232, align 4, !taffo.info !24, !taffo.initweight !27
  %1234 = fcmp ogt float %1231, %1233, !taffo.info !24, !taffo.initweight !28
  br i1 %1234, label %1235, label %1242, !taffo.info !24, !taffo.initweight !29

; <label>:1235:                                   ; preds = %1229
  %1236 = getelementptr inbounds [2 x float], [2 x float]* %15, i64 0, i64 0, !taffo.info !24, !taffo.initweight !26
  %1237 = load float, float* %1236, align 4, !taffo.info !24, !taffo.initweight !27
  %1238 = getelementptr inbounds [2 x float], [2 x float]* %15, i64 0, i64 1, !taffo.info !24, !taffo.initweight !26
  %1239 = load float, float* %1238, align 4, !taffo.info !24, !taffo.initweight !27
  %1240 = getelementptr inbounds [2 x float], [2 x float]* %15, i64 0, i64 0, !taffo.info !24, !taffo.initweight !26
  store float %1239, float* %1240, align 4, !taffo.info !24
  %1241 = getelementptr inbounds [2 x float], [2 x float]* %15, i64 0, i64 1, !taffo.info !24, !taffo.initweight !26
  store float %1237, float* %1241, align 4, !taffo.info !24
  br label %1242

; <label>:1242:                                   ; preds = %1229, %1235
  %1243 = getelementptr inbounds [2 x float], [2 x float]* %14, i64 0, i64 0, !taffo.info !24, !taffo.initweight !26
  %1244 = load float, float* %1243, align 4, !taffo.info !24, !taffo.initweight !27
  %1245 = getelementptr inbounds float, float* %6, i64 0, !taffo.info !24, !taffo.initweight !27
  store float %1244, float* %1245, align 4, !taffo.info !24
  %1246 = getelementptr inbounds [2 x float], [2 x float]* %14, i64 0, i64 1, !taffo.info !24, !taffo.initweight !26
  %1247 = load float, float* %1246, align 4, !taffo.info !24, !taffo.initweight !27
  %1248 = getelementptr inbounds float, float* %6, i64 1, !taffo.info !24, !taffo.initweight !27
  store float %1247, float* %1248, align 4, !taffo.info !24
  br label %1249

; <label>:1249:                                   ; preds = %1242
  br label %1250

; <label>:1250:                                   ; preds = %1249
  %1251 = getelementptr inbounds [2 x float], [2 x float]* %14, i64 0, i64 1, !taffo.info !24, !taffo.initweight !26
  %1252 = load float, float* %1251, align 4, !taffo.info !24, !taffo.initweight !27
  %1253 = getelementptr inbounds [2 x float], [2 x float]* %15, i64 0, i64 0, !taffo.info !24, !taffo.initweight !26
  %1254 = load float, float* %1253, align 4, !taffo.info !24, !taffo.initweight !27
  %1255 = fcmp olt float %1252, %1254, !taffo.info !24, !taffo.initweight !28
  br i1 %1255, label %1262, label %1256, !taffo.info !24, !taffo.initweight !29

; <label>:1256:                                   ; preds = %1250
  %1257 = getelementptr inbounds [2 x float], [2 x float]* %15, i64 0, i64 1, !taffo.info !24, !taffo.initweight !26
  %1258 = load float, float* %1257, align 4, !taffo.info !24, !taffo.initweight !27
  %1259 = getelementptr inbounds [2 x float], [2 x float]* %14, i64 0, i64 0, !taffo.info !24, !taffo.initweight !26
  %1260 = load float, float* %1259, align 4, !taffo.info !24, !taffo.initweight !27
  %1261 = fcmp olt float %1258, %1260, !taffo.info !24, !taffo.initweight !28
  br i1 %1261, label %1262, label %1263, !taffo.info !24, !taffo.initweight !29

; <label>:1262:                                   ; preds = %1256, %1250
  store i32 4, i32* %7, align 4, !taffo.constinfo !15
  br label %1264

; <label>:1263:                                   ; preds = %1256
  store i32 5, i32* %7, align 4, !taffo.constinfo !15
  br label %1264

; <label>:1264:                                   ; preds = %1263, %1262, %1209, %814, %350, %182
  %.0 = phi i32 [ 0, %182 ], [ 0, %350 ], [ 0, %1262 ], [ 1, %1263 ], [ %1211, %1209 ], [ %816, %814 ]
  ret i32 %.0
}

; Function Attrs: noinline uwtable
define internal void @_GLOBAL__sub_I_jmeint.cpp() #0 section ".text.startup" !taffo.initweight !13 !taffo.funinfo !13 {
  call void @__cxx_global_var_init.2(), !taffo.constinfo !14
  ret void
}

; Function Attrs: noinline uwtable
define internal void @__cxx_global_var_init.2() #0 section ".text.startup" !taffo.initweight !13 !taffo.funinfo !13 {
  call void @_ZNSt8ios_base4InitC1Ev(%"class.std::ios_base::Init"* @_ZStL8__ioinit.3), !taffo.constinfo !15
  %1 = call i32 @__cxa_atexit(void (i8*)* bitcast (void (%"class.std::ios_base::Init"*)* @_ZNSt8ios_base4InitD1Ev to void (i8*)*), i8* getelementptr inbounds (%"class.std::ios_base::Init", %"class.std::ios_base::Init"* @_ZStL8__ioinit.3, i32 0, i32 0), i8* @__dso_handle) #3, !taffo.constinfo !16
  ret void
}

; Function Attrs: noinline norecurse uwtable
define dso_local i32 @main(i32, i8**) #6 personality i8* bitcast (i32 (...)* @__gxx_personality_v0 to i8*) !taffo.initweight !56 !taffo.funinfo !57 !taffo.start !58 {
  %3 = alloca i32, align 4
  %4 = alloca %"class.std::__cxx11::basic_string", align 8
  %5 = alloca %"class.std::ios_base::Init", align 1
  %6 = alloca %"class.std::__cxx11::basic_string", align 8
  %7 = alloca %"class.std::ios_base::Init", align 1
  %8 = alloca %"class.std::basic_ofstream", align 8
  %9 = alloca %"class.std::basic_ifstream", align 8
  %10 = alloca [18 x float], align 16, !taffo.info !59, !taffo.initweight !25
  %11 = alloca [6 x i32], align 16
  %12 = alloca %class.AxBenchTimer, align 8
  %s15_17fixp = alloca [2 x i32], align 4, !taffo.info !61, !taffo.target !64
  %13 = alloca i32, align 4, !taffo.info !65
  %14 = load i8*, i8** bitcast (%"class.std::basic_ostream"* @_ZSt4cout to i8**), align 8
  %15 = getelementptr i8, i8* %14, i64 -24
  %16 = bitcast i8* %15 to i64*
  %17 = load i64, i64* %16, align 8
  %18 = getelementptr inbounds i8, i8* bitcast (%"class.std::basic_ostream"* @_ZSt4cout to i8*), i64 %17
  %19 = bitcast i8* %18 to %"class.std::ios_base"*, !taffo.structinfo !67
  %20 = call i64 @_ZNSt8ios_base9precisionEl(%"class.std::ios_base"* %19, i64 8), !taffo.constinfo !70
  %21 = getelementptr inbounds i8*, i8** %1, i64 1
  %22 = load i8*, i8** %21, align 8
  call void @_ZNSaIcEC1Ev(%"class.std::ios_base::Init"* %5) #3, !taffo.constinfo !15
  invoke void @_ZNSt7__cxx1112basic_stringIcSt11char_traitsIcESaIcEEC1EPKcRKS3_(%"class.std::__cxx11::basic_string"* %4, i8* %22, %"class.std::ios_base::Init"* dereferenceable(1) %5)
          to label %23 unwind label %55, !taffo.constinfo !71

; <label>:23:                                     ; preds = %2
  call void @_ZNSaIcED1Ev(%"class.std::ios_base::Init"* %5) #3, !taffo.constinfo !15
  %24 = getelementptr inbounds i8*, i8** %1, i64 2
  %25 = load i8*, i8** %24, align 8
  call void @_ZNSaIcEC1Ev(%"class.std::ios_base::Init"* %7) #3, !taffo.constinfo !15
  invoke void @_ZNSt7__cxx1112basic_stringIcSt11char_traitsIcESaIcEEC1EPKcRKS3_(%"class.std::__cxx11::basic_string"* %6, i8* %25, %"class.std::ios_base::Init"* dereferenceable(1) %7)
          to label %26 unwind label %59, !taffo.constinfo !71

; <label>:26:                                     ; preds = %23
  call void @_ZNSaIcED1Ev(%"class.std::ios_base::Init"* %7) #3, !taffo.constinfo !15
  invoke void @_ZNSt14basic_ofstreamIcSt11char_traitsIcEEC1Ev(%"class.std::basic_ofstream"* %8)
          to label %27 unwind label %63, !taffo.constinfo !16

; <label>:27:                                     ; preds = %26
  invoke void @_ZNSt14basic_ofstreamIcSt11char_traitsIcEE4openERKNSt7__cxx1112basic_stringIcS1_SaIcEEESt13_Ios_Openmode(%"class.std::basic_ofstream"* %8, %"class.std::__cxx11::basic_string"* dereferenceable(32) %6, i32 16)
          to label %28 unwind label %67, !taffo.constinfo !71

; <label>:28:                                     ; preds = %27
  %29 = bitcast %"class.std::basic_ofstream"* %8 to i8**
  %30 = load i8*, i8** %29, align 8
  %31 = getelementptr i8, i8* %30, i64 -24
  %32 = bitcast i8* %31 to i64*
  %33 = load i64, i64* %32, align 8
  %34 = bitcast %"class.std::basic_ofstream"* %8 to i8*
  %35 = getelementptr inbounds i8, i8* %34, i64 %33
  %36 = bitcast i8* %35 to %"class.std::ios_base"*, !taffo.structinfo !72
  %37 = invoke i64 @_ZNSt8ios_base9precisionEl(%"class.std::ios_base"* %36, i64 5)
          to label %38 unwind label %67, !taffo.constinfo !75

; <label>:38:                                     ; preds = %28
  invoke void @_ZNSt14basic_ifstreamIcSt11char_traitsIcEEC1ERKNSt7__cxx1112basic_stringIcS1_SaIcEEESt13_Ios_Openmode(%"class.std::basic_ifstream"* %9, %"class.std::__cxx11::basic_string"* dereferenceable(32) %4, i32 8)
          to label %39 unwind label %67, !taffo.constinfo !71

; <label>:39:                                     ; preds = %38
  %40 = bitcast %"class.std::basic_ifstream"* %9 to %"class.std::basic_istream"*
  %41 = invoke dereferenceable(280) %"class.std::basic_istream"* @_ZNSirsERi(%"class.std::basic_istream"* %40, i32* dereferenceable(4) %3)
          to label %42 unwind label %71, !taffo.constinfo !75

; <label>:42:                                     ; preds = %39
  %43 = load i32, i32* %3, align 4
  %44 = mul nsw i32 %43, 6, !taffo.constinfo !15
  %45 = mul nsw i32 %44, 3, !taffo.constinfo !15
  %46 = sext i32 %45 to i64
  %47 = mul i64 %46, 4, !taffo.constinfo !15
  %48 = call noalias i8* @malloc(i64 %47) #3, !taffo.constinfo !15
  %u1_31fixp = bitcast i8* %48 to i32*, !taffo.info !76
  %49 = bitcast i32* %u1_31fixp to float*, !taffo.info !76
  %.flt = icmp eq float* %49, null, !taffo.info !76, !taffo.initweight !27
  br i1 %.flt, label %50, label %75, !taffo.info !79, !taffo.initweight !28

; <label>:50:                                     ; preds = %42
  %51 = invoke dereferenceable(272) %"class.std::basic_ostream"* @_ZStlsISt11char_traitsIcEERSt13basic_ostreamIcT_ES5_PKc(%"class.std::basic_ostream"* dereferenceable(272) @_ZSt4cout, i8* getelementptr inbounds ([53 x i8], [53 x i8]* @.str.2.17, i32 0, i32 0))
          to label %52 unwind label %71, !taffo.constinfo !75

; <label>:52:                                     ; preds = %50
  %53 = invoke dereferenceable(272) %"class.std::basic_ostream"* @_ZNSolsEPFRSoS_E(%"class.std::basic_ostream"* %51, %"class.std::basic_ostream"* (%"class.std::basic_ostream"*)* @_ZSt4endlIcSt11char_traitsIcEERSt13basic_ostreamIT_T0_ES6_)
          to label %54 unwind label %71, !taffo.constinfo !75

; <label>:54:                                     ; preds = %52
  br label %217

; <label>:55:                                     ; preds = %2
  %56 = landingpad { i8*, i32 }
          cleanup
  %57 = extractvalue { i8*, i32 } %56, 0
  %58 = extractvalue { i8*, i32 } %56, 1
  call void @_ZNSaIcED1Ev(%"class.std::ios_base::Init"* %5) #3, !taffo.constinfo !15
  br label %221

; <label>:59:                                     ; preds = %23
  %60 = landingpad { i8*, i32 }
          cleanup
  %61 = extractvalue { i8*, i32 } %60, 0
  %62 = extractvalue { i8*, i32 } %60, 1
  call void @_ZNSaIcED1Ev(%"class.std::ios_base::Init"* %7) #3, !taffo.constinfo !15
  br label %220

; <label>:63:                                     ; preds = %26
  %64 = landingpad { i8*, i32 }
          cleanup
  %65 = extractvalue { i8*, i32 } %64, 0
  %66 = extractvalue { i8*, i32 } %64, 1
  br label %219

; <label>:67:                                     ; preds = %38, %28, %27
  %68 = landingpad { i8*, i32 }
          cleanup
  %69 = extractvalue { i8*, i32 } %68, 0
  %70 = extractvalue { i8*, i32 } %68, 1
  br label %218

; <label>:71:                                     ; preds = %185, %182, %180, %177, %158, %214, %213, %211, %209, %205, %203, %191, %187, %166, %150, %131, %128, %125, %122, %119, %116, %113, %110, %107, %104, %101, %98, %95, %92, %89, %86, %83, %79, %52, %50, %39
  %72 = landingpad { i8*, i32 }
          cleanup
  %73 = extractvalue { i8*, i32 } %72, 0
  %74 = extractvalue { i8*, i32 } %72, 1
  call void @_ZNSt14basic_ifstreamIcSt11char_traitsIcEED1Ev(%"class.std::basic_ifstream"* %9) #3, !taffo.constinfo !15
  br label %218

; <label>:75:                                     ; preds = %42
  br label %76

; <label>:76:                                     ; preds = %148, %75
  %.03 = phi i32 [ 0, %75 ], [ %149, %148 ], !taffo.info !80
  %77 = load i32, i32* %3, align 4
  %78 = icmp slt i32 %.03, %77, !taffo.info !80
  br i1 %78, label %79, label %150

; <label>:79:                                     ; preds = %76
  %80 = bitcast %"class.std::basic_ifstream"* %9 to %"class.std::basic_istream"*
  %81 = getelementptr inbounds [18 x float], [18 x float]* %10, i64 0, i64 0, !taffo.info !59, !taffo.initweight !26
  %82 = invoke dereferenceable(280) %"class.std::basic_istream"* @_ZNSirsERf(%"class.std::basic_istream"* %80, float* dereferenceable(4) %81)
          to label %83 unwind label %71, !taffo.structinfo !70, !taffo.initweight !27, !taffo.constinfo !75

; <label>:83:                                     ; preds = %79
  %84 = getelementptr inbounds [18 x float], [18 x float]* %10, i64 0, i64 1, !taffo.info !59, !taffo.initweight !26
  %85 = invoke dereferenceable(280) %"class.std::basic_istream"* @_ZNSirsERf(%"class.std::basic_istream"* %82, float* dereferenceable(4) %84)
          to label %86 unwind label %71, !taffo.structinfo !70, !taffo.initweight !27, !taffo.constinfo !75

; <label>:86:                                     ; preds = %83
  %87 = getelementptr inbounds [18 x float], [18 x float]* %10, i64 0, i64 2, !taffo.info !59, !taffo.initweight !26
  %88 = invoke dereferenceable(280) %"class.std::basic_istream"* @_ZNSirsERf(%"class.std::basic_istream"* %85, float* dereferenceable(4) %87)
          to label %89 unwind label %71, !taffo.structinfo !70, !taffo.initweight !27, !taffo.constinfo !75

; <label>:89:                                     ; preds = %86
  %90 = getelementptr inbounds [18 x float], [18 x float]* %10, i64 0, i64 3, !taffo.info !59, !taffo.initweight !26
  %91 = invoke dereferenceable(280) %"class.std::basic_istream"* @_ZNSirsERf(%"class.std::basic_istream"* %88, float* dereferenceable(4) %90)
          to label %92 unwind label %71, !taffo.structinfo !70, !taffo.initweight !27, !taffo.constinfo !75

; <label>:92:                                     ; preds = %89
  %93 = getelementptr inbounds [18 x float], [18 x float]* %10, i64 0, i64 4, !taffo.info !59, !taffo.initweight !26
  %94 = invoke dereferenceable(280) %"class.std::basic_istream"* @_ZNSirsERf(%"class.std::basic_istream"* %91, float* dereferenceable(4) %93)
          to label %95 unwind label %71, !taffo.structinfo !70, !taffo.initweight !27, !taffo.constinfo !75

; <label>:95:                                     ; preds = %92
  %96 = getelementptr inbounds [18 x float], [18 x float]* %10, i64 0, i64 5, !taffo.info !59, !taffo.initweight !26
  %97 = invoke dereferenceable(280) %"class.std::basic_istream"* @_ZNSirsERf(%"class.std::basic_istream"* %94, float* dereferenceable(4) %96)
          to label %98 unwind label %71, !taffo.structinfo !70, !taffo.initweight !27, !taffo.constinfo !75

; <label>:98:                                     ; preds = %95
  %99 = getelementptr inbounds [18 x float], [18 x float]* %10, i64 0, i64 6, !taffo.info !59, !taffo.initweight !26
  %100 = invoke dereferenceable(280) %"class.std::basic_istream"* @_ZNSirsERf(%"class.std::basic_istream"* %97, float* dereferenceable(4) %99)
          to label %101 unwind label %71, !taffo.structinfo !70, !taffo.initweight !27, !taffo.constinfo !75

; <label>:101:                                    ; preds = %98
  %102 = getelementptr inbounds [18 x float], [18 x float]* %10, i64 0, i64 7, !taffo.info !59, !taffo.initweight !26
  %103 = invoke dereferenceable(280) %"class.std::basic_istream"* @_ZNSirsERf(%"class.std::basic_istream"* %100, float* dereferenceable(4) %102)
          to label %104 unwind label %71, !taffo.structinfo !70, !taffo.initweight !27, !taffo.constinfo !75

; <label>:104:                                    ; preds = %101
  %105 = getelementptr inbounds [18 x float], [18 x float]* %10, i64 0, i64 8, !taffo.info !59, !taffo.initweight !26
  %106 = invoke dereferenceable(280) %"class.std::basic_istream"* @_ZNSirsERf(%"class.std::basic_istream"* %103, float* dereferenceable(4) %105)
          to label %107 unwind label %71, !taffo.structinfo !70, !taffo.initweight !27, !taffo.constinfo !75

; <label>:107:                                    ; preds = %104
  %108 = getelementptr inbounds [18 x float], [18 x float]* %10, i64 0, i64 9, !taffo.info !59, !taffo.initweight !26
  %109 = invoke dereferenceable(280) %"class.std::basic_istream"* @_ZNSirsERf(%"class.std::basic_istream"* %106, float* dereferenceable(4) %108)
          to label %110 unwind label %71, !taffo.structinfo !70, !taffo.initweight !27, !taffo.constinfo !75

; <label>:110:                                    ; preds = %107
  %111 = getelementptr inbounds [18 x float], [18 x float]* %10, i64 0, i64 10, !taffo.info !59, !taffo.initweight !26
  %112 = invoke dereferenceable(280) %"class.std::basic_istream"* @_ZNSirsERf(%"class.std::basic_istream"* %109, float* dereferenceable(4) %111)
          to label %113 unwind label %71, !taffo.structinfo !70, !taffo.initweight !27, !taffo.constinfo !75

; <label>:113:                                    ; preds = %110
  %114 = getelementptr inbounds [18 x float], [18 x float]* %10, i64 0, i64 11, !taffo.info !59, !taffo.initweight !26
  %115 = invoke dereferenceable(280) %"class.std::basic_istream"* @_ZNSirsERf(%"class.std::basic_istream"* %112, float* dereferenceable(4) %114)
          to label %116 unwind label %71, !taffo.structinfo !70, !taffo.initweight !27, !taffo.constinfo !75

; <label>:116:                                    ; preds = %113
  %117 = getelementptr inbounds [18 x float], [18 x float]* %10, i64 0, i64 12, !taffo.info !59, !taffo.initweight !26
  %118 = invoke dereferenceable(280) %"class.std::basic_istream"* @_ZNSirsERf(%"class.std::basic_istream"* %115, float* dereferenceable(4) %117)
          to label %119 unwind label %71, !taffo.structinfo !70, !taffo.initweight !27, !taffo.constinfo !75

; <label>:119:                                    ; preds = %116
  %120 = getelementptr inbounds [18 x float], [18 x float]* %10, i64 0, i64 13, !taffo.info !59, !taffo.initweight !26
  %121 = invoke dereferenceable(280) %"class.std::basic_istream"* @_ZNSirsERf(%"class.std::basic_istream"* %118, float* dereferenceable(4) %120)
          to label %122 unwind label %71, !taffo.structinfo !70, !taffo.initweight !27, !taffo.constinfo !75

; <label>:122:                                    ; preds = %119
  %123 = getelementptr inbounds [18 x float], [18 x float]* %10, i64 0, i64 14, !taffo.info !59, !taffo.initweight !26
  %124 = invoke dereferenceable(280) %"class.std::basic_istream"* @_ZNSirsERf(%"class.std::basic_istream"* %121, float* dereferenceable(4) %123)
          to label %125 unwind label %71, !taffo.structinfo !70, !taffo.initweight !27, !taffo.constinfo !75

; <label>:125:                                    ; preds = %122
  %126 = getelementptr inbounds [18 x float], [18 x float]* %10, i64 0, i64 15, !taffo.info !59, !taffo.initweight !26
  %127 = invoke dereferenceable(280) %"class.std::basic_istream"* @_ZNSirsERf(%"class.std::basic_istream"* %124, float* dereferenceable(4) %126)
          to label %128 unwind label %71, !taffo.structinfo !70, !taffo.initweight !27, !taffo.constinfo !75

; <label>:128:                                    ; preds = %125
  %129 = getelementptr inbounds [18 x float], [18 x float]* %10, i64 0, i64 16, !taffo.info !59, !taffo.initweight !26
  %130 = invoke dereferenceable(280) %"class.std::basic_istream"* @_ZNSirsERf(%"class.std::basic_istream"* %127, float* dereferenceable(4) %129)
          to label %131 unwind label %71, !taffo.structinfo !70, !taffo.initweight !27, !taffo.constinfo !75

; <label>:131:                                    ; preds = %128
  %132 = getelementptr inbounds [18 x float], [18 x float]* %10, i64 0, i64 17, !taffo.info !59, !taffo.initweight !26
  %133 = invoke dereferenceable(280) %"class.std::basic_istream"* @_ZNSirsERf(%"class.std::basic_istream"* %130, float* dereferenceable(4) %132)
          to label %134 unwind label %71, !taffo.structinfo !70, !taffo.initweight !27, !taffo.constinfo !75

; <label>:134:                                    ; preds = %131
  br label %135

; <label>:135:                                    ; preds = %146, %134
  %.04 = phi i32 [ 0, %134 ], [ %147, %146 ], !taffo.info !80
  %136 = icmp slt i32 %.04, 18, !taffo.info !82
  br i1 %136, label %137, label %148

; <label>:137:                                    ; preds = %135
  %138 = sext i32 %.04 to i64, !taffo.info !1
  %139 = getelementptr inbounds [18 x float], [18 x float]* %10, i64 0, i64 %138, !taffo.info !59, !taffo.initweight !26
  %140 = load float, float* %139, align 4, !taffo.info !59, !taffo.initweight !27
  %141 = fmul float 0x41E0000000000000, %140, !taffo.info !59
  %142 = fptoui float %141 to i32, !taffo.info !59
  %143 = mul nsw i32 %.03, 18, !taffo.info !1, !taffo.constinfo !15
  %144 = add nsw i32 %143, %.04, !taffo.info !1
  %145 = sext i32 %144 to i64, !taffo.info !1
  %u1_31fixp7 = getelementptr inbounds i32, i32* %u1_31fixp, i64 %145, !taffo.info !84
  store i32 %142, i32* %u1_31fixp7, align 4, !taffo.info !79
  br label %146

; <label>:146:                                    ; preds = %137
  %147 = add nsw i32 %.04, 1, !taffo.info !82, !taffo.constinfo !15
  br label %135

; <label>:148:                                    ; preds = %135
  %149 = add nsw i32 %.03, 1, !taffo.info !82, !taffo.constinfo !15
  br label %76

; <label>:150:                                    ; preds = %76
  %151 = bitcast [6 x i32]* %11 to i8*
  call void @llvm.memset.p0i8.i64(i8* align 16 %151, i8 0, i64 24, i1 false), !taffo.constinfo !75
  invoke void @_ZN12AxBenchTimerC2Ev(%class.AxBenchTimer* %12)
          to label %152 unwind label %71, !taffo.constinfo !16

; <label>:152:                                    ; preds = %150
  br label %153

; <label>:153:                                    ; preds = %189, %152
  %.1 = phi i32 [ 0, %152 ], [ %190, %189 ], !taffo.info !85
  %.02 = phi i64 [ 0, %152 ], [ %169, %189 ], !taffo.info !1
  %154 = load i32, i32* %3, align 4
  %155 = mul nsw i32 %154, 6, !taffo.constinfo !15
  %156 = mul nsw i32 %155, 3, !taffo.constinfo !15
  %157 = icmp slt i32 %.1, %156, !taffo.info !80
  br i1 %157, label %158, label %191

; <label>:158:                                    ; preds = %153
  store i32 -1, i32* %13, align 4, !taffo.constinfo !15
  %159 = sext i32 %.1 to i64, !taffo.info !1
  %u1_31fixp6 = getelementptr inbounds i32, i32* %u1_31fixp, i64 %159, !taffo.info !84
  %u1_31fixp14 = getelementptr inbounds i32, i32* %u1_31fixp6, i64 0, !taffo.info !84
  %160 = sext i32 %.1 to i64, !taffo.info !1
  %u1_31fixp5 = getelementptr inbounds i32, i32* %u1_31fixp, i64 %160, !taffo.info !84
  %u1_31fixp13 = getelementptr inbounds i32, i32* %u1_31fixp5, i64 3, !taffo.info !84
  %161 = sext i32 %.1 to i64, !taffo.info !1
  %u1_31fixp4 = getelementptr inbounds i32, i32* %u1_31fixp, i64 %161, !taffo.info !84
  %u1_31fixp12 = getelementptr inbounds i32, i32* %u1_31fixp4, i64 6, !taffo.info !84
  %162 = sext i32 %.1 to i64, !taffo.info !1
  %u1_31fixp3 = getelementptr inbounds i32, i32* %u1_31fixp, i64 %162, !taffo.info !84
  %u1_31fixp11 = getelementptr inbounds i32, i32* %u1_31fixp3, i64 9, !taffo.info !84
  %163 = sext i32 %.1 to i64, !taffo.info !1
  %u1_31fixp2 = getelementptr inbounds i32, i32* %u1_31fixp, i64 %163, !taffo.info !84
  %u1_31fixp10 = getelementptr inbounds i32, i32* %u1_31fixp2, i64 12, !taffo.info !84
  %164 = sext i32 %.1 to i64, !taffo.info !1
  %u1_31fixp1 = getelementptr inbounds i32, i32* %u1_31fixp, i64 %164, !taffo.info !84
  %u1_31fixp9 = getelementptr inbounds i32, i32* %u1_31fixp1, i64 15, !taffo.info !84
  %s15_17fixp8 = getelementptr inbounds [2 x i32], [2 x i32]* %s15_17fixp, i32 0, i32 0, !taffo.info !61, !taffo.target !64
  %165 = invoke i32 @_Z17tri_tri_intersectPfS_S_S_S_S_S_Pi.3_fixp(i32* %u1_31fixp14, i32* %u1_31fixp13, i32* %u1_31fixp12, i32* %u1_31fixp11, i32* %u1_31fixp10, i32* %u1_31fixp9, i32* %s15_17fixp8, i32* %13)
          to label %166 unwind label %71, !taffo.info !87, !taffo.constinfo !88, !taffo.target !64

; <label>:166:                                    ; preds = %158
  %167 = invoke i64 @_ZN12AxBenchTimer20nanosecondsSinceInitEv(%class.AxBenchTimer* %12)
          to label %168 unwind label %71, !taffo.constinfo !16

; <label>:168:                                    ; preds = %166
  %169 = add i64 %.02, %167
  %170 = load i32, i32* %13, align 4, !taffo.info !65
  %171 = sext i32 %170 to i64, !taffo.info !65
  %172 = getelementptr inbounds [6 x i32], [6 x i32]* %11, i64 0, i64 %171
  %173 = load i32, i32* %172, align 4
  %174 = add nsw i32 %173, 1, !taffo.constinfo !15
  store i32 %174, i32* %172, align 4
  br label %175

; <label>:175:                                    ; preds = %168
  br label %176

; <label>:176:                                    ; preds = %175
  br label %177

; <label>:177:                                    ; preds = %176
  %178 = bitcast %"class.std::basic_ofstream"* %8 to %"class.std::basic_ostream"*
  %179 = invoke dereferenceable(272) %"class.std::basic_ostream"* @_ZNSolsEi(%"class.std::basic_ostream"* %178, i32 %165)
          to label %180 unwind label %71, !taffo.constinfo !75

; <label>:180:                                    ; preds = %177
  %181 = invoke dereferenceable(272) %"class.std::basic_ostream"* @_ZStlsISt11char_traitsIcEERSt13basic_ostreamIcT_ES5_PKc(%"class.std::basic_ostream"* dereferenceable(272) %179, i8* getelementptr inbounds ([6 x i8], [6 x i8]* @.str.5.20, i32 0, i32 0))
          to label %182 unwind label %71, !taffo.constinfo !75

; <label>:182:                                    ; preds = %180
  %183 = load i32, i32* %13, align 4, !taffo.info !65
  %184 = invoke dereferenceable(272) %"class.std::basic_ostream"* @_ZNSolsEi(%"class.std::basic_ostream"* %181, i32 %183)
          to label %185 unwind label %71, !taffo.constinfo !75

; <label>:185:                                    ; preds = %182
  %186 = invoke dereferenceable(272) %"class.std::basic_ostream"* @_ZNSolsEPFRSoS_E(%"class.std::basic_ostream"* %184, %"class.std::basic_ostream"* (%"class.std::basic_ostream"*)* @_ZSt4endlIcSt11char_traitsIcEERSt13basic_ostreamIT_T0_ES6_)
          to label %187 unwind label %71, !taffo.constinfo !75

; <label>:187:                                    ; preds = %185
  invoke void @_ZN12AxBenchTimer5resetEv(%class.AxBenchTimer* %12)
          to label %188 unwind label %71, !taffo.constinfo !16

; <label>:188:                                    ; preds = %187
  br label %189

; <label>:189:                                    ; preds = %188
  %190 = add nsw i32 %.1, 18, !taffo.info !89, !taffo.constinfo !15
  br label %153

; <label>:191:                                    ; preds = %153
  %192 = invoke i64 @_ZN12AxBenchTimer20nanosecondsSinceInitEv(%class.AxBenchTimer* %12)
          to label %193 unwind label %71, !taffo.constinfo !16

; <label>:193:                                    ; preds = %191
  %194 = add i64 %.02, %192
  br label %195

; <label>:195:                                    ; preds = %201, %193
  %.01 = phi i32 [ 0, %193 ], [ %202, %201 ], !taffo.info !80
  %196 = icmp slt i32 %.01, 6, !taffo.info !82
  br i1 %196, label %197, label %203

; <label>:197:                                    ; preds = %195
  br label %198

; <label>:198:                                    ; preds = %197
  br label %199

; <label>:199:                                    ; preds = %198
  br label %200

; <label>:200:                                    ; preds = %199
  br label %201

; <label>:201:                                    ; preds = %200
  %202 = add nsw i32 %.01, 1, !taffo.info !82, !taffo.constinfo !15
  br label %195

; <label>:203:                                    ; preds = %195
  %204 = invoke dereferenceable(272) %"class.std::basic_ostream"* @_ZStlsISt11char_traitsIcEERSt13basic_ostreamIcT_ES5_PKc(%"class.std::basic_ostream"* dereferenceable(272) @_ZSt4cout, i8* getelementptr inbounds ([15 x i8], [15 x i8]* @.str.6.21, i32 0, i32 0))
          to label %205 unwind label %71, !taffo.constinfo !75

; <label>:205:                                    ; preds = %203
  %206 = uitofp i64 %194 to double
  %207 = fdiv double %206, 1.000000e+09, !taffo.constinfo !91
  %208 = invoke dereferenceable(272) %"class.std::basic_ostream"* @_ZNSolsEd(%"class.std::basic_ostream"* %204, double %207)
          to label %209 unwind label %71, !taffo.constinfo !75

; <label>:209:                                    ; preds = %205
  %210 = invoke dereferenceable(272) %"class.std::basic_ostream"* @_ZStlsISt11char_traitsIcEERSt13basic_ostreamIcT_ES5_PKc(%"class.std::basic_ostream"* dereferenceable(272) %208, i8* getelementptr inbounds ([3 x i8], [3 x i8]* @.str.7.22, i32 0, i32 0))
          to label %211 unwind label %71, !taffo.constinfo !75

; <label>:211:                                    ; preds = %209
  %212 = invoke dereferenceable(272) %"class.std::basic_ostream"* @_ZNSolsEPFRSoS_E(%"class.std::basic_ostream"* %210, %"class.std::basic_ostream"* (%"class.std::basic_ostream"*)* @_ZSt4endlIcSt11char_traitsIcEERSt13basic_ostreamIT_T0_ES6_)
          to label %213 unwind label %71, !taffo.constinfo !75

; <label>:213:                                    ; preds = %211
  invoke void @_ZNSt14basic_ofstreamIcSt11char_traitsIcEE5closeEv(%"class.std::basic_ofstream"* %8)
          to label %214 unwind label %71, !taffo.constinfo !16

; <label>:214:                                    ; preds = %213
  invoke void @_ZNSt14basic_ifstreamIcSt11char_traitsIcEE5closeEv(%"class.std::basic_ifstream"* %9)
          to label %215 unwind label %71, !taffo.constinfo !16

; <label>:215:                                    ; preds = %214
  %216 = bitcast i32* %u1_31fixp to i8*, !taffo.info !76
  call void @free(i8* %216) #3, !taffo.info !79, !taffo.initweight !28, !taffo.constinfo !15
  br label %217

; <label>:217:                                    ; preds = %215, %54
  %.0 = phi i32 [ -1, %54 ], [ 0, %215 ], !taffo.info !94
  call void @_ZNSt14basic_ifstreamIcSt11char_traitsIcEED1Ev(%"class.std::basic_ifstream"* %9) #3, !taffo.constinfo !15
  call void @_ZNSt14basic_ofstreamIcSt11char_traitsIcEED1Ev(%"class.std::basic_ofstream"* %8) #3, !taffo.constinfo !15
  call void @_ZNSt7__cxx1112basic_stringIcSt11char_traitsIcESaIcEED1Ev(%"class.std::__cxx11::basic_string"* %6) #3, !taffo.constinfo !15
  call void @_ZNSt7__cxx1112basic_stringIcSt11char_traitsIcESaIcEED1Ev(%"class.std::__cxx11::basic_string"* %4) #3, !taffo.constinfo !15
  ret i32 %.0, !taffo.info !94

; <label>:218:                                    ; preds = %71, %67
  %.07 = phi i32 [ %74, %71 ], [ %70, %67 ]
  %.05 = phi i8* [ %73, %71 ], [ %69, %67 ]
  call void @_ZNSt14basic_ofstreamIcSt11char_traitsIcEED1Ev(%"class.std::basic_ofstream"* %8) #3, !taffo.constinfo !15
  br label %219

; <label>:219:                                    ; preds = %218, %63
  %.18 = phi i32 [ %.07, %218 ], [ %66, %63 ]
  %.16 = phi i8* [ %.05, %218 ], [ %65, %63 ]
  call void @_ZNSt7__cxx1112basic_stringIcSt11char_traitsIcESaIcEED1Ev(%"class.std::__cxx11::basic_string"* %6) #3, !taffo.constinfo !15
  br label %220

; <label>:220:                                    ; preds = %219, %59
  %.29 = phi i32 [ %.18, %219 ], [ %62, %59 ]
  %.2 = phi i8* [ %.16, %219 ], [ %61, %59 ]
  call void @_ZNSt7__cxx1112basic_stringIcSt11char_traitsIcESaIcEED1Ev(%"class.std::__cxx11::basic_string"* %4) #3, !taffo.constinfo !15
  br label %221

; <label>:221:                                    ; preds = %220, %55
  %.310 = phi i32 [ %.29, %220 ], [ %58, %55 ]
  %.3 = phi i8* [ %.2, %220 ], [ %57, %55 ]
  %222 = insertvalue { i8*, i32 } undef, i8* %.3, 0
  %223 = insertvalue { i8*, i32 } %222, i32 %.310, 1
  resume { i8*, i32 } %223
}

declare !taffo.initweight !13 !taffo.funinfo !13 dso_local i32 @__gxx_personality_v0(...)

; Function Attrs: noinline nounwind uwtable
define linkonce_odr dso_local i64 @_ZNSt8ios_base9precisionEl(%"class.std::ios_base"*, i64) #4 comdat align 2 !taffo.initweight !56 !taffo.funinfo !96 {
  %3 = getelementptr inbounds %"class.std::ios_base", %"class.std::ios_base"* %0, i32 0, i32 1, !taffo.info !73
  %4 = load i64, i64* %3, align 8, !taffo.info !73
  %5 = getelementptr inbounds %"class.std::ios_base", %"class.std::ios_base"* %0, i32 0, i32 1, !taffo.info !73
  store i64 %1, i64* %5, align 8
  ret i64 %4
}

; Function Attrs: nounwind
declare !taffo.initweight !17 !taffo.funinfo !18 dso_local void @_ZNSaIcEC1Ev(%"class.std::ios_base::Init"*) unnamed_addr #2

declare !taffo.initweight !19 !taffo.funinfo !20 dso_local void @_ZNSt7__cxx1112basic_stringIcSt11char_traitsIcESaIcEEC1EPKcRKS3_(%"class.std::__cxx11::basic_string"*, i8*, %"class.std::ios_base::Init"* dereferenceable(1)) unnamed_addr #1

; Function Attrs: nounwind
declare !taffo.initweight !17 !taffo.funinfo !18 dso_local void @_ZNSaIcED1Ev(%"class.std::ios_base::Init"*) unnamed_addr #2

declare !taffo.initweight !17 !taffo.funinfo !18 dso_local void @_ZNSt14basic_ofstreamIcSt11char_traitsIcEEC1Ev(%"class.std::basic_ofstream"*) unnamed_addr #1

declare !taffo.initweight !19 !taffo.funinfo !20 dso_local void @_ZNSt14basic_ofstreamIcSt11char_traitsIcEE4openERKNSt7__cxx1112basic_stringIcS1_SaIcEEESt13_Ios_Openmode(%"class.std::basic_ofstream"*, %"class.std::__cxx11::basic_string"* dereferenceable(32), i32) #1

declare !taffo.initweight !19 !taffo.funinfo !20 dso_local void @_ZNSt14basic_ifstreamIcSt11char_traitsIcEEC1ERKNSt7__cxx1112basic_stringIcS1_SaIcEEESt13_Ios_Openmode(%"class.std::basic_ifstream"*, %"class.std::__cxx11::basic_string"* dereferenceable(32), i32) unnamed_addr #1

declare !taffo.initweight !56 !taffo.funinfo !57 dso_local dereferenceable(280) %"class.std::basic_istream"* @_ZNSirsERi(%"class.std::basic_istream"*, i32* dereferenceable(4)) #1

; Function Attrs: nounwind
declare !taffo.initweight !17 !taffo.funinfo !18 dso_local noalias i8* @malloc(i64) #2

declare !taffo.initweight !56 !taffo.funinfo !57 dso_local dereferenceable(272) %"class.std::basic_ostream"* @_ZStlsISt11char_traitsIcEERSt13basic_ostreamIcT_ES5_PKc(%"class.std::basic_ostream"* dereferenceable(272), i8*) #1

declare !taffo.initweight !17 !taffo.funinfo !18 dso_local dereferenceable(272) %"class.std::basic_ostream"* @_ZSt4endlIcSt11char_traitsIcEERSt13basic_ostreamIT_T0_ES6_(%"class.std::basic_ostream"* dereferenceable(272)) #1

declare !taffo.initweight !56 !taffo.funinfo !57 dso_local dereferenceable(272) %"class.std::basic_ostream"* @_ZNSolsEPFRSoS_E(%"class.std::basic_ostream"*, %"class.std::basic_ostream"* (%"class.std::basic_ostream"*)*) #1

; Function Attrs: nounwind
declare !taffo.initweight !17 !taffo.funinfo !18 dso_local void @_ZNSt14basic_ifstreamIcSt11char_traitsIcEED1Ev(%"class.std::basic_ifstream"*) unnamed_addr #2

declare !taffo.initweight !56 !taffo.funinfo !57 dso_local dereferenceable(280) %"class.std::basic_istream"* @_ZNSirsERf(%"class.std::basic_istream"*, float* dereferenceable(4)) #1

; Function Attrs: argmemonly nounwind
declare !taffo.initweight !97 !taffo.funinfo !98 void @llvm.memset.p0i8.i64(i8* nocapture writeonly, i8, i64, i1) #7

; Function Attrs: noinline uwtable
define linkonce_odr dso_local void @_ZN12AxBenchTimerC2Ev(%class.AxBenchTimer*) unnamed_addr #0 comdat align 2 !taffo.initweight !17 !taffo.funinfo !18 {
  call void @_ZN12AxBenchTimer5resetEv(%class.AxBenchTimer* %0), !taffo.constinfo !15
  ret void
}

; Function Attrs: noinline nounwind uwtable
define linkonce_odr dso_local i64 @_ZN12AxBenchTimer20nanosecondsSinceInitEv(%class.AxBenchTimer*) #4 comdat align 2 !taffo.initweight !17 !taffo.funinfo !18 {
  %2 = alloca %struct.timespec, align 8
  %3 = call i32 @clock_gettime(i32 4, %struct.timespec* %2) #3, !taffo.constinfo !70
  %4 = getelementptr inbounds %class.AxBenchTimer, %class.AxBenchTimer* %0, i32 0, i32 0
  %5 = getelementptr inbounds %struct.timespec, %struct.timespec* %4, i32 0, i32 1
  %6 = load i64, i64* %5, align 8
  %7 = getelementptr inbounds %class.AxBenchTimer, %class.AxBenchTimer* %0, i32 0, i32 0
  %8 = getelementptr inbounds %struct.timespec, %struct.timespec* %7, i32 0, i32 0
  %9 = load i64, i64* %8, align 8
  %10 = mul nsw i64 %9, 1000000000, !taffo.constinfo !15
  %11 = add nsw i64 %6, %10
  %12 = getelementptr inbounds %struct.timespec, %struct.timespec* %2, i32 0, i32 1
  %13 = load i64, i64* %12, align 8
  %14 = getelementptr inbounds %struct.timespec, %struct.timespec* %2, i32 0, i32 0
  %15 = load i64, i64* %14, align 8
  %16 = mul nsw i64 %15, 1000000000, !taffo.constinfo !15
  %17 = add nsw i64 %13, %16
  %18 = sub i64 %17, %11
  ret i64 %18
}

declare !taffo.initweight !56 !taffo.funinfo !57 dso_local dereferenceable(272) %"class.std::basic_ostream"* @_ZNSolsEi(%"class.std::basic_ostream"*, i32) #1

; Function Attrs: noinline nounwind uwtable
define linkonce_odr dso_local void @_ZN12AxBenchTimer5resetEv(%class.AxBenchTimer*) #4 comdat align 2 !taffo.initweight !17 !taffo.funinfo !18 {
  %2 = getelementptr inbounds %class.AxBenchTimer, %class.AxBenchTimer* %0, i32 0, i32 0
  %3 = call i32 @clock_gettime(i32 4, %struct.timespec* %2) #3, !taffo.constinfo !70
  ret void
}

declare !taffo.initweight !56 !taffo.funinfo !57 dso_local dereferenceable(272) %"class.std::basic_ostream"* @_ZNSolsEd(%"class.std::basic_ostream"*, double) #1

declare !taffo.initweight !17 !taffo.funinfo !18 dso_local void @_ZNSt14basic_ofstreamIcSt11char_traitsIcEE5closeEv(%"class.std::basic_ofstream"*) #1

declare !taffo.initweight !17 !taffo.funinfo !18 dso_local void @_ZNSt14basic_ifstreamIcSt11char_traitsIcEE5closeEv(%"class.std::basic_ifstream"*) #1

; Function Attrs: nounwind
declare !taffo.initweight !17 !taffo.funinfo !18 dso_local void @free(i8*) #2

; Function Attrs: nounwind
declare !taffo.initweight !17 !taffo.funinfo !18 dso_local void @_ZNSt14basic_ofstreamIcSt11char_traitsIcEED1Ev(%"class.std::basic_ofstream"*) unnamed_addr #2

; Function Attrs: nounwind
declare !taffo.initweight !17 !taffo.funinfo !18 dso_local void @_ZNSt7__cxx1112basic_stringIcSt11char_traitsIcESaIcEED1Ev(%"class.std::__cxx11::basic_string"*) unnamed_addr #2

; Function Attrs: nounwind
declare !taffo.initweight !56 !taffo.funinfo !57 dso_local i32 @clock_gettime(i32, %struct.timespec*) #2

; Function Attrs: noinline nounwind uwtable
define internal i32 @_Z16coplanar_tri_triPfS_S_S_S_S_S_.1(float*, float*, float*, float*, float*, float*, float*) #4 !taffo.initweight !99 !taffo.funinfo !100 !taffo.equivalentChild !101 !taffo.sourceFunction !55 {
  %8 = alloca [3 x float], align 4, !taffo.info !24, !taffo.initweight !25
  %9 = getelementptr inbounds float, float* %0, i64 0, !taffo.info !24, !taffo.initweight !38
  %10 = load float, float* %9, align 4, !taffo.info !24, !taffo.initweight !102
  %11 = fpext float %10 to double, !taffo.info !24, !taffo.initweight !103
  %12 = call double @llvm.fabs.f64(double %11), !taffo.info !24, !taffo.initweight !104, !taffo.constinfo !15
  %13 = fptrunc double %12 to float, !taffo.info !24, !taffo.initweight !105
  %14 = getelementptr inbounds [3 x float], [3 x float]* %8, i64 0, i64 0, !taffo.info !24, !taffo.initweight !26
  store float %13, float* %14, align 4, !taffo.info !24, !taffo.initweight !27
  %15 = getelementptr inbounds float, float* %0, i64 1, !taffo.info !24, !taffo.initweight !38
  %16 = load float, float* %15, align 4, !taffo.info !24, !taffo.initweight !102
  %17 = fpext float %16 to double, !taffo.info !24, !taffo.initweight !103
  %18 = call double @llvm.fabs.f64(double %17), !taffo.info !24, !taffo.initweight !104, !taffo.constinfo !15
  %19 = fptrunc double %18 to float, !taffo.info !24, !taffo.initweight !105
  %20 = getelementptr inbounds [3 x float], [3 x float]* %8, i64 0, i64 1, !taffo.info !24, !taffo.initweight !26
  store float %19, float* %20, align 4, !taffo.info !24, !taffo.initweight !27
  %21 = getelementptr inbounds float, float* %0, i64 2, !taffo.info !24, !taffo.initweight !38
  %22 = load float, float* %21, align 4, !taffo.info !24, !taffo.initweight !102
  %23 = fpext float %22 to double, !taffo.info !24, !taffo.initweight !103
  %24 = call double @llvm.fabs.f64(double %23), !taffo.info !24, !taffo.initweight !104, !taffo.constinfo !15
  %25 = fptrunc double %24 to float, !taffo.info !24, !taffo.initweight !105
  %26 = getelementptr inbounds [3 x float], [3 x float]* %8, i64 0, i64 2, !taffo.info !24, !taffo.initweight !26
  store float %25, float* %26, align 4, !taffo.info !24, !taffo.initweight !27
  %27 = getelementptr inbounds [3 x float], [3 x float]* %8, i64 0, i64 0, !taffo.info !24, !taffo.initweight !26
  %28 = load float, float* %27, align 4, !taffo.info !24, !taffo.initweight !27
  %29 = getelementptr inbounds [3 x float], [3 x float]* %8, i64 0, i64 1, !taffo.info !24, !taffo.initweight !26
  %30 = load float, float* %29, align 4, !taffo.info !24, !taffo.initweight !27
  %31 = fcmp ogt float %28, %30, !taffo.info !24, !taffo.initweight !28
  br i1 %31, label %32, label %41, !taffo.info !24, !taffo.initweight !29

; <label>:32:                                     ; preds = %7
  %33 = getelementptr inbounds [3 x float], [3 x float]* %8, i64 0, i64 0, !taffo.info !24, !taffo.initweight !26
  %34 = load float, float* %33, align 4, !taffo.info !24, !taffo.initweight !27
  %35 = getelementptr inbounds [3 x float], [3 x float]* %8, i64 0, i64 2, !taffo.info !24, !taffo.initweight !26
  %36 = load float, float* %35, align 4, !taffo.info !24, !taffo.initweight !27
  %37 = fcmp ogt float %34, %36, !taffo.info !24, !taffo.initweight !28
  br i1 %37, label %38, label %39, !taffo.info !24, !taffo.initweight !29

; <label>:38:                                     ; preds = %32
  br label %40

; <label>:39:                                     ; preds = %32
  br label %40

; <label>:40:                                     ; preds = %39, %38
  %.02 = phi i16 [ 2, %38 ], [ 1, %39 ]
  %.01 = phi i16 [ 1, %38 ], [ 0, %39 ]
  br label %50

; <label>:41:                                     ; preds = %7
  %42 = getelementptr inbounds [3 x float], [3 x float]* %8, i64 0, i64 2, !taffo.info !24, !taffo.initweight !26
  %43 = load float, float* %42, align 4, !taffo.info !24, !taffo.initweight !27
  %44 = getelementptr inbounds [3 x float], [3 x float]* %8, i64 0, i64 1, !taffo.info !24, !taffo.initweight !26
  %45 = load float, float* %44, align 4, !taffo.info !24, !taffo.initweight !27
  %46 = fcmp ogt float %43, %45, !taffo.info !24, !taffo.initweight !28
  br i1 %46, label %47, label %48, !taffo.info !24, !taffo.initweight !29

; <label>:47:                                     ; preds = %41
  br label %49

; <label>:48:                                     ; preds = %41
  br label %49

; <label>:49:                                     ; preds = %48, %47
  %.13 = phi i16 [ 1, %47 ], [ 2, %48 ]
  br label %50

; <label>:50:                                     ; preds = %49, %40
  %.24 = phi i16 [ %.02, %40 ], [ %.13, %49 ]
  %.2 = phi i16 [ %.01, %40 ], [ 0, %49 ]
  %51 = sext i16 %.2 to i64
  %52 = getelementptr inbounds float, float* %2, i64 %51, !taffo.info !24, !taffo.initweight !38
  %53 = load float, float* %52, align 4, !taffo.info !24, !taffo.initweight !102
  %54 = sext i16 %.2 to i64
  %55 = getelementptr inbounds float, float* %1, i64 %54, !taffo.info !24, !taffo.initweight !38
  %56 = load float, float* %55, align 4, !taffo.info !24, !taffo.initweight !102
  %57 = fsub float %53, %56, !taffo.info !24, !taffo.initweight !103
  %58 = sext i16 %.24 to i64
  %59 = getelementptr inbounds float, float* %2, i64 %58, !taffo.info !24, !taffo.initweight !38
  %60 = load float, float* %59, align 4, !taffo.info !24, !taffo.initweight !102
  %61 = sext i16 %.24 to i64
  %62 = getelementptr inbounds float, float* %1, i64 %61, !taffo.info !24, !taffo.initweight !38
  %63 = load float, float* %62, align 4, !taffo.info !24, !taffo.initweight !102
  %64 = fsub float %60, %63, !taffo.info !24, !taffo.initweight !103
  %65 = sext i16 %.2 to i64
  %66 = getelementptr inbounds float, float* %4, i64 %65, !taffo.info !24, !taffo.initweight !38
  %67 = load float, float* %66, align 4, !taffo.info !24, !taffo.initweight !102
  %68 = sext i16 %.2 to i64
  %69 = getelementptr inbounds float, float* %5, i64 %68, !taffo.info !24, !taffo.initweight !38
  %70 = load float, float* %69, align 4, !taffo.info !24, !taffo.initweight !102
  %71 = fsub float %67, %70, !taffo.info !24, !taffo.initweight !103
  %72 = sext i16 %.24 to i64
  %73 = getelementptr inbounds float, float* %4, i64 %72, !taffo.info !24, !taffo.initweight !38
  %74 = load float, float* %73, align 4, !taffo.info !24, !taffo.initweight !102
  %75 = sext i16 %.24 to i64
  %76 = getelementptr inbounds float, float* %5, i64 %75, !taffo.info !24, !taffo.initweight !38
  %77 = load float, float* %76, align 4, !taffo.info !24, !taffo.initweight !102
  %78 = fsub float %74, %77, !taffo.info !24, !taffo.initweight !103
  %79 = sext i16 %.2 to i64
  %80 = getelementptr inbounds float, float* %1, i64 %79, !taffo.info !24, !taffo.initweight !38
  %81 = load float, float* %80, align 4, !taffo.info !24, !taffo.initweight !102
  %82 = sext i16 %.2 to i64
  %83 = getelementptr inbounds float, float* %4, i64 %82, !taffo.info !24, !taffo.initweight !38
  %84 = load float, float* %83, align 4, !taffo.info !24, !taffo.initweight !102
  %85 = fsub float %81, %84, !taffo.info !24, !taffo.initweight !103
  %86 = sext i16 %.24 to i64
  %87 = getelementptr inbounds float, float* %1, i64 %86, !taffo.info !24, !taffo.initweight !38
  %88 = load float, float* %87, align 4, !taffo.info !24, !taffo.initweight !102
  %89 = sext i16 %.24 to i64
  %90 = getelementptr inbounds float, float* %4, i64 %89, !taffo.info !24, !taffo.initweight !38
  %91 = load float, float* %90, align 4, !taffo.info !24, !taffo.initweight !102
  %92 = fsub float %88, %91, !taffo.info !24, !taffo.initweight !103
  %93 = fmul float %64, %71, !taffo.info !24, !taffo.initweight !27
  %94 = fmul float %57, %78, !taffo.info !24, !taffo.initweight !27
  %95 = fsub float %93, %94, !taffo.info !24, !taffo.initweight !28
  %96 = fmul float %78, %85, !taffo.info !24, !taffo.initweight !27
  %97 = fmul float %71, %92, !taffo.info !24, !taffo.initweight !27
  %98 = fsub float %96, %97, !taffo.info !24, !taffo.initweight !28
  br label %99

; <label>:99:                                     ; preds = %50
  br label %100

; <label>:100:                                    ; preds = %99
  %101 = fcmp ogt float %95, 0.000000e+00, !taffo.info !24, !taffo.initweight !27, !taffo.target !30
  br i1 %101, label %102, label %106, !taffo.info !24, !taffo.initweight !28, !taffo.target !30

; <label>:102:                                    ; preds = %100
  %103 = fcmp oge float %98, 0.000000e+00, !taffo.info !24, !taffo.initweight !27, !taffo.target !30
  br i1 %103, label %104, label %106, !taffo.info !24, !taffo.initweight !28, !taffo.target !30

; <label>:104:                                    ; preds = %102
  %105 = fcmp ole float %98, %95, !taffo.info !24, !taffo.initweight !27, !taffo.target !30
  br i1 %105, label %112, label %106, !taffo.info !24, !taffo.initweight !28, !taffo.target !30

; <label>:106:                                    ; preds = %104, %102, %100
  %107 = fcmp olt float %95, 0.000000e+00, !taffo.info !24, !taffo.initweight !27, !taffo.target !30
  br i1 %107, label %108, label %132, !taffo.info !24, !taffo.initweight !28, !taffo.target !30

; <label>:108:                                    ; preds = %106
  %109 = fcmp ole float %98, 0.000000e+00, !taffo.info !24, !taffo.initweight !27, !taffo.target !30
  br i1 %109, label %110, label %132, !taffo.info !24, !taffo.initweight !28, !taffo.target !30

; <label>:110:                                    ; preds = %108
  %111 = fcmp oge float %98, %95, !taffo.info !24, !taffo.initweight !27, !taffo.target !30
  br i1 %111, label %112, label %132, !taffo.info !24, !taffo.initweight !28, !taffo.target !30

; <label>:112:                                    ; preds = %110, %104
  %113 = fmul float %57, %92, !taffo.info !24, !taffo.initweight !27
  %114 = fmul float %64, %85, !taffo.info !24, !taffo.initweight !27
  %115 = fsub float %113, %114, !taffo.info !24, !taffo.initweight !28
  br label %116

; <label>:116:                                    ; preds = %112
  br label %117

; <label>:117:                                    ; preds = %116
  %118 = fcmp ogt float %95, 0.000000e+00, !taffo.info !24, !taffo.initweight !27, !taffo.target !30
  br i1 %118, label %119, label %125, !taffo.info !24, !taffo.initweight !28, !taffo.target !30

; <label>:119:                                    ; preds = %117
  %120 = fcmp oge float %115, 0.000000e+00, !taffo.info !24, !taffo.initweight !27, !taffo.target !30
  br i1 %120, label %121, label %124, !taffo.info !24, !taffo.initweight !28, !taffo.target !30

; <label>:121:                                    ; preds = %119
  %122 = fcmp ole float %115, %95, !taffo.info !24, !taffo.initweight !27, !taffo.target !30
  br i1 %122, label %123, label %124, !taffo.info !24, !taffo.initweight !28, !taffo.target !30

; <label>:123:                                    ; preds = %121
  br label %939

; <label>:124:                                    ; preds = %121, %119
  br label %131

; <label>:125:                                    ; preds = %117
  %126 = fcmp ole float %115, 0.000000e+00, !taffo.info !24, !taffo.initweight !27, !taffo.target !30
  br i1 %126, label %127, label %130, !taffo.info !24, !taffo.initweight !28, !taffo.target !30

; <label>:127:                                    ; preds = %125
  %128 = fcmp oge float %115, %95, !taffo.info !24, !taffo.initweight !27, !taffo.target !30
  br i1 %128, label %129, label %130, !taffo.info !24, !taffo.initweight !28, !taffo.target !30

; <label>:129:                                    ; preds = %127
  br label %939

; <label>:130:                                    ; preds = %127, %125
  br label %131

; <label>:131:                                    ; preds = %130, %124
  br label %132

; <label>:132:                                    ; preds = %131, %110, %108, %106
  %133 = sext i16 %.2 to i64
  %134 = getelementptr inbounds float, float* %5, i64 %133, !taffo.info !24, !taffo.initweight !38
  %135 = load float, float* %134, align 4, !taffo.info !24, !taffo.initweight !102
  %136 = sext i16 %.2 to i64
  %137 = getelementptr inbounds float, float* %6, i64 %136, !taffo.info !24, !taffo.initweight !38
  %138 = load float, float* %137, align 4, !taffo.info !24, !taffo.initweight !102
  %139 = fsub float %135, %138, !taffo.info !24, !taffo.initweight !103
  %140 = sext i16 %.24 to i64
  %141 = getelementptr inbounds float, float* %5, i64 %140, !taffo.info !24, !taffo.initweight !38
  %142 = load float, float* %141, align 4, !taffo.info !24, !taffo.initweight !102
  %143 = sext i16 %.24 to i64
  %144 = getelementptr inbounds float, float* %6, i64 %143, !taffo.info !24, !taffo.initweight !38
  %145 = load float, float* %144, align 4, !taffo.info !24, !taffo.initweight !102
  %146 = fsub float %142, %145, !taffo.info !24, !taffo.initweight !103
  %147 = sext i16 %.2 to i64
  %148 = getelementptr inbounds float, float* %1, i64 %147, !taffo.info !24, !taffo.initweight !38
  %149 = load float, float* %148, align 4, !taffo.info !24, !taffo.initweight !102
  %150 = sext i16 %.2 to i64
  %151 = getelementptr inbounds float, float* %5, i64 %150, !taffo.info !24, !taffo.initweight !38
  %152 = load float, float* %151, align 4, !taffo.info !24, !taffo.initweight !102
  %153 = fsub float %149, %152, !taffo.info !24, !taffo.initweight !103
  %154 = sext i16 %.24 to i64
  %155 = getelementptr inbounds float, float* %1, i64 %154, !taffo.info !24, !taffo.initweight !38
  %156 = load float, float* %155, align 4, !taffo.info !24, !taffo.initweight !102
  %157 = sext i16 %.24 to i64
  %158 = getelementptr inbounds float, float* %5, i64 %157, !taffo.info !24, !taffo.initweight !38
  %159 = load float, float* %158, align 4, !taffo.info !24, !taffo.initweight !102
  %160 = fsub float %156, %159, !taffo.info !24, !taffo.initweight !103
  %161 = fmul float %64, %139, !taffo.info !24, !taffo.initweight !27
  %162 = fmul float %57, %146, !taffo.info !24, !taffo.initweight !27
  %163 = fsub float %161, %162, !taffo.info !24, !taffo.initweight !28
  %164 = fmul float %146, %153, !taffo.info !24, !taffo.initweight !27
  %165 = fmul float %139, %160, !taffo.info !24, !taffo.initweight !27
  %166 = fsub float %164, %165, !taffo.info !24, !taffo.initweight !28
  br label %167

; <label>:167:                                    ; preds = %132
  br label %168

; <label>:168:                                    ; preds = %167
  %169 = fcmp ogt float %163, 0.000000e+00, !taffo.info !24, !taffo.initweight !27, !taffo.target !30
  br i1 %169, label %170, label %174, !taffo.info !24, !taffo.initweight !28, !taffo.target !30

; <label>:170:                                    ; preds = %168
  %171 = fcmp oge float %166, 0.000000e+00, !taffo.info !24, !taffo.initweight !27, !taffo.target !30
  br i1 %171, label %172, label %174, !taffo.info !24, !taffo.initweight !28, !taffo.target !30

; <label>:172:                                    ; preds = %170
  %173 = fcmp ole float %166, %163, !taffo.info !24, !taffo.initweight !27, !taffo.target !30
  br i1 %173, label %180, label %174, !taffo.info !24, !taffo.initweight !28, !taffo.target !30

; <label>:174:                                    ; preds = %172, %170, %168
  %175 = fcmp olt float %163, 0.000000e+00, !taffo.info !24, !taffo.initweight !27, !taffo.target !30
  br i1 %175, label %176, label %200, !taffo.info !24, !taffo.initweight !28, !taffo.target !30

; <label>:176:                                    ; preds = %174
  %177 = fcmp ole float %166, 0.000000e+00, !taffo.info !24, !taffo.initweight !27, !taffo.target !30
  br i1 %177, label %178, label %200, !taffo.info !24, !taffo.initweight !28, !taffo.target !30

; <label>:178:                                    ; preds = %176
  %179 = fcmp oge float %166, %163, !taffo.info !24, !taffo.initweight !27, !taffo.target !30
  br i1 %179, label %180, label %200, !taffo.info !24, !taffo.initweight !28, !taffo.target !30

; <label>:180:                                    ; preds = %178, %172
  %181 = fmul float %57, %160, !taffo.info !24, !taffo.initweight !27
  %182 = fmul float %64, %153, !taffo.info !24, !taffo.initweight !27
  %183 = fsub float %181, %182, !taffo.info !24, !taffo.initweight !28
  br label %184

; <label>:184:                                    ; preds = %180
  br label %185

; <label>:185:                                    ; preds = %184
  %186 = fcmp ogt float %163, 0.000000e+00, !taffo.info !24, !taffo.initweight !27, !taffo.target !30
  br i1 %186, label %187, label %193, !taffo.info !24, !taffo.initweight !28, !taffo.target !30

; <label>:187:                                    ; preds = %185
  %188 = fcmp oge float %183, 0.000000e+00, !taffo.info !24, !taffo.initweight !27, !taffo.target !30
  br i1 %188, label %189, label %192, !taffo.info !24, !taffo.initweight !28, !taffo.target !30

; <label>:189:                                    ; preds = %187
  %190 = fcmp ole float %183, %163, !taffo.info !24, !taffo.initweight !27, !taffo.target !30
  br i1 %190, label %191, label %192, !taffo.info !24, !taffo.initweight !28, !taffo.target !30

; <label>:191:                                    ; preds = %189
  br label %939

; <label>:192:                                    ; preds = %189, %187
  br label %199

; <label>:193:                                    ; preds = %185
  %194 = fcmp ole float %183, 0.000000e+00, !taffo.info !24, !taffo.initweight !27, !taffo.target !30
  br i1 %194, label %195, label %198, !taffo.info !24, !taffo.initweight !28, !taffo.target !30

; <label>:195:                                    ; preds = %193
  %196 = fcmp oge float %183, %163, !taffo.info !24, !taffo.initweight !27, !taffo.target !30
  br i1 %196, label %197, label %198, !taffo.info !24, !taffo.initweight !28, !taffo.target !30

; <label>:197:                                    ; preds = %195
  br label %939

; <label>:198:                                    ; preds = %195, %193
  br label %199

; <label>:199:                                    ; preds = %198, %192
  br label %200

; <label>:200:                                    ; preds = %199, %178, %176, %174
  %201 = sext i16 %.2 to i64
  %202 = getelementptr inbounds float, float* %6, i64 %201, !taffo.info !24, !taffo.initweight !38
  %203 = load float, float* %202, align 4, !taffo.info !24, !taffo.initweight !102
  %204 = sext i16 %.2 to i64
  %205 = getelementptr inbounds float, float* %4, i64 %204, !taffo.info !24, !taffo.initweight !38
  %206 = load float, float* %205, align 4, !taffo.info !24, !taffo.initweight !102
  %207 = fsub float %203, %206, !taffo.info !24, !taffo.initweight !103
  %208 = sext i16 %.24 to i64
  %209 = getelementptr inbounds float, float* %6, i64 %208, !taffo.info !24, !taffo.initweight !38
  %210 = load float, float* %209, align 4, !taffo.info !24, !taffo.initweight !102
  %211 = sext i16 %.24 to i64
  %212 = getelementptr inbounds float, float* %4, i64 %211, !taffo.info !24, !taffo.initweight !38
  %213 = load float, float* %212, align 4, !taffo.info !24, !taffo.initweight !102
  %214 = fsub float %210, %213, !taffo.info !24, !taffo.initweight !103
  %215 = sext i16 %.2 to i64
  %216 = getelementptr inbounds float, float* %1, i64 %215, !taffo.info !24, !taffo.initweight !38
  %217 = load float, float* %216, align 4, !taffo.info !24, !taffo.initweight !102
  %218 = sext i16 %.2 to i64
  %219 = getelementptr inbounds float, float* %6, i64 %218, !taffo.info !24, !taffo.initweight !38
  %220 = load float, float* %219, align 4, !taffo.info !24, !taffo.initweight !102
  %221 = fsub float %217, %220, !taffo.info !24, !taffo.initweight !103
  %222 = sext i16 %.24 to i64
  %223 = getelementptr inbounds float, float* %1, i64 %222, !taffo.info !24, !taffo.initweight !38
  %224 = load float, float* %223, align 4, !taffo.info !24, !taffo.initweight !102
  %225 = sext i16 %.24 to i64
  %226 = getelementptr inbounds float, float* %6, i64 %225, !taffo.info !24, !taffo.initweight !38
  %227 = load float, float* %226, align 4, !taffo.info !24, !taffo.initweight !102
  %228 = fsub float %224, %227, !taffo.info !24, !taffo.initweight !103
  %229 = fmul float %64, %207, !taffo.info !24, !taffo.initweight !27
  %230 = fmul float %57, %214, !taffo.info !24, !taffo.initweight !27
  %231 = fsub float %229, %230, !taffo.info !24, !taffo.initweight !28
  %232 = fmul float %214, %221, !taffo.info !24, !taffo.initweight !27
  %233 = fmul float %207, %228, !taffo.info !24, !taffo.initweight !27
  %234 = fsub float %232, %233, !taffo.info !24, !taffo.initweight !28
  br label %235

; <label>:235:                                    ; preds = %200
  br label %236

; <label>:236:                                    ; preds = %235
  %237 = fcmp ogt float %231, 0.000000e+00, !taffo.info !24, !taffo.initweight !27, !taffo.target !30
  br i1 %237, label %238, label %242, !taffo.info !24, !taffo.initweight !28, !taffo.target !30

; <label>:238:                                    ; preds = %236
  %239 = fcmp oge float %234, 0.000000e+00, !taffo.info !24, !taffo.initweight !27, !taffo.target !30
  br i1 %239, label %240, label %242, !taffo.info !24, !taffo.initweight !28, !taffo.target !30

; <label>:240:                                    ; preds = %238
  %241 = fcmp ole float %234, %231, !taffo.info !24, !taffo.initweight !27, !taffo.target !30
  br i1 %241, label %248, label %242, !taffo.info !24, !taffo.initweight !28, !taffo.target !30

; <label>:242:                                    ; preds = %240, %238, %236
  %243 = fcmp olt float %231, 0.000000e+00, !taffo.info !24, !taffo.initweight !27, !taffo.target !30
  br i1 %243, label %244, label %268, !taffo.info !24, !taffo.initweight !28, !taffo.target !30

; <label>:244:                                    ; preds = %242
  %245 = fcmp ole float %234, 0.000000e+00, !taffo.info !24, !taffo.initweight !27, !taffo.target !30
  br i1 %245, label %246, label %268, !taffo.info !24, !taffo.initweight !28, !taffo.target !30

; <label>:246:                                    ; preds = %244
  %247 = fcmp oge float %234, %231, !taffo.info !24, !taffo.initweight !27, !taffo.target !30
  br i1 %247, label %248, label %268, !taffo.info !24, !taffo.initweight !28, !taffo.target !30

; <label>:248:                                    ; preds = %246, %240
  %249 = fmul float %57, %228, !taffo.info !24, !taffo.initweight !27
  %250 = fmul float %64, %221, !taffo.info !24, !taffo.initweight !27
  %251 = fsub float %249, %250, !taffo.info !24, !taffo.initweight !28
  br label %252

; <label>:252:                                    ; preds = %248
  br label %253

; <label>:253:                                    ; preds = %252
  %254 = fcmp ogt float %231, 0.000000e+00, !taffo.info !24, !taffo.initweight !27, !taffo.target !30
  br i1 %254, label %255, label %261, !taffo.info !24, !taffo.initweight !28, !taffo.target !30

; <label>:255:                                    ; preds = %253
  %256 = fcmp oge float %251, 0.000000e+00, !taffo.info !24, !taffo.initweight !27, !taffo.target !30
  br i1 %256, label %257, label %260, !taffo.info !24, !taffo.initweight !28, !taffo.target !30

; <label>:257:                                    ; preds = %255
  %258 = fcmp ole float %251, %231, !taffo.info !24, !taffo.initweight !27, !taffo.target !30
  br i1 %258, label %259, label %260, !taffo.info !24, !taffo.initweight !28, !taffo.target !30

; <label>:259:                                    ; preds = %257
  br label %939

; <label>:260:                                    ; preds = %257, %255
  br label %267

; <label>:261:                                    ; preds = %253
  %262 = fcmp ole float %251, 0.000000e+00, !taffo.info !24, !taffo.initweight !27, !taffo.target !30
  br i1 %262, label %263, label %266, !taffo.info !24, !taffo.initweight !28, !taffo.target !30

; <label>:263:                                    ; preds = %261
  %264 = fcmp oge float %251, %231, !taffo.info !24, !taffo.initweight !27, !taffo.target !30
  br i1 %264, label %265, label %266, !taffo.info !24, !taffo.initweight !28, !taffo.target !30

; <label>:265:                                    ; preds = %263
  br label %939

; <label>:266:                                    ; preds = %263, %261
  br label %267

; <label>:267:                                    ; preds = %266, %260
  br label %268

; <label>:268:                                    ; preds = %267, %246, %244, %242
  %269 = sext i16 %.2 to i64
  %270 = getelementptr inbounds float, float* %3, i64 %269, !taffo.info !24, !taffo.initweight !38
  %271 = load float, float* %270, align 4, !taffo.info !24, !taffo.initweight !102
  %272 = sext i16 %.2 to i64
  %273 = getelementptr inbounds float, float* %2, i64 %272, !taffo.info !24, !taffo.initweight !38
  %274 = load float, float* %273, align 4, !taffo.info !24, !taffo.initweight !102
  %275 = fsub float %271, %274, !taffo.info !24, !taffo.initweight !103
  %276 = sext i16 %.24 to i64
  %277 = getelementptr inbounds float, float* %3, i64 %276, !taffo.info !24, !taffo.initweight !38
  %278 = load float, float* %277, align 4, !taffo.info !24, !taffo.initweight !102
  %279 = sext i16 %.24 to i64
  %280 = getelementptr inbounds float, float* %2, i64 %279, !taffo.info !24, !taffo.initweight !38
  %281 = load float, float* %280, align 4, !taffo.info !24, !taffo.initweight !102
  %282 = fsub float %278, %281, !taffo.info !24, !taffo.initweight !103
  %283 = sext i16 %.2 to i64
  %284 = getelementptr inbounds float, float* %4, i64 %283, !taffo.info !24, !taffo.initweight !38
  %285 = load float, float* %284, align 4, !taffo.info !24, !taffo.initweight !102
  %286 = sext i16 %.2 to i64
  %287 = getelementptr inbounds float, float* %5, i64 %286, !taffo.info !24, !taffo.initweight !38
  %288 = load float, float* %287, align 4, !taffo.info !24, !taffo.initweight !102
  %289 = fsub float %285, %288, !taffo.info !24, !taffo.initweight !103
  %290 = sext i16 %.24 to i64
  %291 = getelementptr inbounds float, float* %4, i64 %290, !taffo.info !24, !taffo.initweight !38
  %292 = load float, float* %291, align 4, !taffo.info !24, !taffo.initweight !102
  %293 = sext i16 %.24 to i64
  %294 = getelementptr inbounds float, float* %5, i64 %293, !taffo.info !24, !taffo.initweight !38
  %295 = load float, float* %294, align 4, !taffo.info !24, !taffo.initweight !102
  %296 = fsub float %292, %295, !taffo.info !24, !taffo.initweight !103
  %297 = sext i16 %.2 to i64
  %298 = getelementptr inbounds float, float* %2, i64 %297, !taffo.info !24, !taffo.initweight !38
  %299 = load float, float* %298, align 4, !taffo.info !24, !taffo.initweight !102
  %300 = sext i16 %.2 to i64
  %301 = getelementptr inbounds float, float* %4, i64 %300, !taffo.info !24, !taffo.initweight !38
  %302 = load float, float* %301, align 4, !taffo.info !24, !taffo.initweight !102
  %303 = fsub float %299, %302, !taffo.info !24, !taffo.initweight !103
  %304 = sext i16 %.24 to i64
  %305 = getelementptr inbounds float, float* %2, i64 %304, !taffo.info !24, !taffo.initweight !38
  %306 = load float, float* %305, align 4, !taffo.info !24, !taffo.initweight !102
  %307 = sext i16 %.24 to i64
  %308 = getelementptr inbounds float, float* %4, i64 %307, !taffo.info !24, !taffo.initweight !38
  %309 = load float, float* %308, align 4, !taffo.info !24, !taffo.initweight !102
  %310 = fsub float %306, %309, !taffo.info !24, !taffo.initweight !103
  %311 = fmul float %282, %289, !taffo.info !24, !taffo.initweight !27
  %312 = fmul float %275, %296, !taffo.info !24, !taffo.initweight !27
  %313 = fsub float %311, %312, !taffo.info !24, !taffo.initweight !28
  %314 = fmul float %296, %303, !taffo.info !24, !taffo.initweight !27
  %315 = fmul float %289, %310, !taffo.info !24, !taffo.initweight !27
  %316 = fsub float %314, %315, !taffo.info !24, !taffo.initweight !28
  br label %317

; <label>:317:                                    ; preds = %268
  br label %318

; <label>:318:                                    ; preds = %317
  %319 = fcmp ogt float %313, 0.000000e+00, !taffo.info !24, !taffo.initweight !27, !taffo.target !30
  br i1 %319, label %320, label %324, !taffo.info !24, !taffo.initweight !28, !taffo.target !30

; <label>:320:                                    ; preds = %318
