; ModuleID = 'obj/main.fixp.ll'
source_filename = "llvm-link"
target datalayout = "e-m:e-i64:64-f80:128-n8:16:32:64-S128"
target triple = "x86_64-pc-linux-gnu"

%"class.std::ios_base::Init" = type { i8 }
%"class.std::basic_ostream" = type { i32 (...)**, %"class.std::basic_ios" }
%"class.std::basic_ios" = type { %"class.std::ios_base", %"class.std::basic_ostream"*, i8, i8, %"class.std::basic_streambuf"*, %"class.std::ctype"*, %"class.std::num_put"*, %"class.std::num_put"* }
%"class.std::ios_base" = type { i32 (...)**, i64, i64, i32, i32, i32, %"struct.std::ios_base::_Callback_list"*, %"struct.std::ios_base::_Words", [8 x %"struct.std::ios_base::_Words"], i32, %"struct.std::ios_base::_Words"*, %"class.std::locale" }
%"struct.std::ios_base::_Callback_list" = type { %"struct.std::ios_base::_Callback_list"*, void (i32, %"class.std::ios_base"*, i32)*, i32, i32 }
%"struct.std::ios_base::_Words" = type { i8*, i64 }
%"class.std::locale" = type { %"class.std::locale::_Impl"* }
%"class.std::locale::_Impl" = type { i32, %"class.std::locale::facet"**, i64, %"class.std::locale::facet"**, i8** }
%"class.std::locale::facet" = type <{ i32 (...)**, i32, [4 x i8] }>
%"class.std::basic_streambuf" = type { i32 (...)**, i8*, i8*, i8*, i8*, i8*, i8*, %"class.std::locale" }
%"class.std::ctype" = type <{ %"class.std::locale::facet.base", [4 x i8], %struct.__locale_struct*, i8, [7 x i8], i32*, i32*, i16*, i8, [256 x i8], [256 x i8], i8, [6 x i8] }>
%"class.std::locale::facet.base" = type <{ i32 (...)**, i32 }>
%struct.__locale_struct = type { [13 x %struct.__locale_data*], i16*, i32*, i32*, [13 x i8*] }
%struct.__locale_data = type opaque
%"class.std::num_put" = type { %"class.std::locale::facet.base", [4 x i8] }
%"class.std::__cxx11::basic_string" = type { %"struct.std::__cxx11::basic_string<char, std::char_traits<char>, std::allocator<char> >::_Alloc_hider", i64, %union.anon }
%"struct.std::__cxx11::basic_string<char, std::char_traits<char>, std::allocator<char> >::_Alloc_hider" = type { i8* }
%union.anon = type { i64, [8 x i8] }
%"class.std::basic_ofstream" = type { %"class.std::basic_ostream.base", %"class.std::basic_filebuf", %"class.std::basic_ios" }
%"class.std::basic_ostream.base" = type { i32 (...)** }
%"class.std::basic_filebuf" = type { %"class.std::basic_streambuf", %union.pthread_mutex_t, %"class.std::__basic_file", i32, %struct.__mbstate_t, %struct.__mbstate_t, %struct.__mbstate_t, i8*, i64, i8, i8, i8, i8, i8*, i8*, i8, %"class.std::codecvt"*, i8*, i64, i8*, i8* }
%union.pthread_mutex_t = type { %struct.__pthread_mutex_s }
%struct.__pthread_mutex_s = type { i32, i32, i32, i32, i32, i16, i16, %struct.__pthread_internal_list }
%struct.__pthread_internal_list = type { %struct.__pthread_internal_list*, %struct.__pthread_internal_list* }
%"class.std::__basic_file" = type <{ %struct._IO_FILE*, i8, [7 x i8] }>
%struct._IO_FILE = type { i32, i8*, i8*, i8*, i8*, i8*, i8*, i8*, i8*, i8*, i8*, i8*, %struct._IO_marker*, %struct._IO_FILE*, i32, i32, i64, i16, i8, [1 x i8], i8*, i64, %struct._IO_codecvt*, %struct._IO_wide_data*, %struct._IO_FILE*, i8*, i64, i32, [20 x i8] }
%struct._IO_marker = type opaque
%struct._IO_codecvt = type opaque
%struct._IO_wide_data = type opaque
%struct.__mbstate_t = type { i32, %union.anon.0 }
%union.anon.0 = type { i32 }
%"class.std::codecvt" = type { %"class.std::__codecvt_abstract_base.base", %struct.__locale_struct* }
%"class.std::__codecvt_abstract_base.base" = type { %"class.std::locale::facet.base" }
%"class.std::basic_ifstream" = type { %"class.std::basic_istream.base", %"class.std::basic_filebuf", %"class.std::basic_ios" }
%"class.std::basic_istream.base" = type { i32 (...)**, i64 }
%class.AxBenchTimer = type { %struct.timespec }
%struct.timespec = type { i64, i64 }
%"class.std::basic_istream" = type { i32 (...)**, i64, %"class.std::basic_ios" }

$_ZNSt8ios_base9precisionEl = comdat any

$_ZN12AxBenchTimerC2Ev = comdat any

$_ZN12AxBenchTimer20nanosecondsSinceInitEv = comdat any

$_ZN12AxBenchTimer5resetEv = comdat any

@llvm.global_ctors = appending global [2 x { i32, void ()*, i8* }] [{ i32, void ()*, i8* } { i32 65535, void ()* @_GLOBAL__sub_I_tritri.cpp, i8* null }, { i32, void ()*, i8* } { i32 65535, void ()* @_GLOBAL__sub_I_jmeint.cpp, i8* null }]
@_ZStL8__ioinit = internal global %"class.std::ios_base::Init" zeroinitializer, align 1, !taffo.structinfo !0
@__dso_handle = external hidden global i8
@_ZStL8__ioinit.3 = internal global %"class.std::ios_base::Init" zeroinitializer, align 1, !taffo.structinfo !0
@_ZSt4cout = external dso_local global %"class.std::basic_ostream", align 8
@.str.2.17 = private unnamed_addr constant [53 x i8] c"cannot allocate memory for the triangle coordinates!\00", align 1, !taffo.info !3
@.str.5.20 = private unnamed_addr constant [6 x i8] c" 0 0 \00", align 1, !taffo.info !5
@.str.6.21 = private unnamed_addr constant [15 x i8] c"kernel time = \00", align 1, !taffo.info !7
@.str.7.22 = private unnamed_addr constant [3 x i8] c" s\00", align 1, !taffo.info !9

; Function Attrs: noinline uwtable
define internal void @_GLOBAL__sub_I_tritri.cpp() #0 section ".text.startup" !taffo.initweight !13 !taffo.funinfo !13 {
  call void @__cxx_global_var_init(), !taffo.constinfo !14
  ret void
}

; Function Attrs: noinline uwtable
define internal void @__cxx_global_var_init() #0 section ".text.startup" !taffo.initweight !13 !taffo.funinfo !13 {
  call void @_ZNSt8ios_base4InitC1Ev(%"class.std::ios_base::Init"* @_ZStL8__ioinit), !taffo.constinfo !15
  %1 = call i32 @__cxa_atexit(void (i8*)* bitcast (void (%"class.std::ios_base::Init"*)* @_ZNSt8ios_base4InitD1Ev to void (i8*)*), i8* getelementptr inbounds (%"class.std::ios_base::Init", %"class.std::ios_base::Init"* @_ZStL8__ioinit, i32 0, i32 0), i8* @__dso_handle) #3, !taffo.constinfo !16
  ret void
}

declare !taffo.initweight !17 !taffo.funinfo !18 dso_local void @_ZNSt8ios_base4InitC1Ev(%"class.std::ios_base::Init"*) unnamed_addr #1

; Function Attrs: nounwind
declare !taffo.initweight !17 !taffo.funinfo !18 dso_local void @_ZNSt8ios_base4InitD1Ev(%"class.std::ios_base::Init"*) unnamed_addr #2

; Function Attrs: nounwind
declare !taffo.initweight !19 !taffo.funinfo !20 dso_local i32 @__cxa_atexit(void (i8*)*, i8*, i8*) #3

; Function Attrs: noinline nounwind uwtable
define dso_local i32 @_Z16coplanar_tri_triPfS_S_S_S_S_S_(float*, float*, float*, float*, float*, float*, float*) #4 !taffo.initweight !21 !taffo.funinfo !22 !taffo.equivalentChild !23 {
  %8 = alloca [3 x float], align 4, !taffo.info !24, !taffo.initweight !25
  %9 = getelementptr inbounds float, float* %0, i64 0
  %10 = load float, float* %9, align 4
  %11 = fpext float %10 to double
  %12 = call double @llvm.fabs.f64(double %11), !taffo.constinfo !15
  %13 = fptrunc double %12 to float
  %14 = getelementptr inbounds [3 x float], [3 x float]* %8, i64 0, i64 0, !taffo.info !24, !taffo.initweight !26
  store float %13, float* %14, align 4, !taffo.info !24
  %15 = getelementptr inbounds float, float* %0, i64 1
  %16 = load float, float* %15, align 4
  %17 = fpext float %16 to double
  %18 = call double @llvm.fabs.f64(double %17), !taffo.constinfo !15
  %19 = fptrunc double %18 to float
  %20 = getelementptr inbounds [3 x float], [3 x float]* %8, i64 0, i64 1, !taffo.info !24, !taffo.initweight !26
  store float %19, float* %20, align 4, !taffo.info !24
  %21 = getelementptr inbounds float, float* %0, i64 2
  %22 = load float, float* %21, align 4
  %23 = fpext float %22 to double
  %24 = call double @llvm.fabs.f64(double %23), !taffo.constinfo !15
  %25 = fptrunc double %24 to float
  %26 = getelementptr inbounds [3 x float], [3 x float]* %8, i64 0, i64 2, !taffo.info !24, !taffo.initweight !26
  store float %25, float* %26, align 4, !taffo.info !24
  %27 = getelementptr inbounds [3 x float], [3 x float]* %8, i64 0, i64 0, !taffo.info !24, !taffo.initweight !26
  %28 = load float, float* %27, align 4, !taffo.info !24, !taffo.initweight !27
  %29 = getelementptr inbounds [3 x float], [3 x float]* %8, i64 0, i64 1, !taffo.info !24, !taffo.initweight !26
  %30 = load float, float* %29, align 4, !taffo.info !24, !taffo.initweight !27
  %31 = fcmp ogt float %28, %30, !taffo.info !24, !taffo.initweight !28
  %32 = xor i1 %31, true
  br i1 %32, label %46, label %Flow153

; <label>:33:                                     ; preds = %Flow153
  %34 = getelementptr inbounds [3 x float], [3 x float]* %8, i64 0, i64 0, !taffo.info !24, !taffo.initweight !26
  %35 = load float, float* %34, align 4, !taffo.info !24, !taffo.initweight !27
  %36 = getelementptr inbounds [3 x float], [3 x float]* %8, i64 0, i64 2, !taffo.info !24, !taffo.initweight !26
  %37 = load float, float* %36, align 4, !taffo.info !24, !taffo.initweight !27
  %38 = fcmp ogt float %35, %37, !taffo.info !24, !taffo.initweight !28
  %39 = xor i1 %38, true
  br i1 %39, label %42, label %Flow152

Flow152:                                          ; preds = %42, %33
  %40 = phi i1 [ false, %42 ], [ true, %33 ]
  br i1 %40, label %41, label %45

; <label>:41:                                     ; preds = %Flow152
  br label %45

; <label>:42:                                     ; preds = %33
  br label %Flow152

Flow154:                                          ; preds = %45, %Flow153
  %43 = phi i16 [ %.01, %45 ], [ 0, %Flow153 ]
  %44 = phi i16 [ %.02, %45 ], [ %56, %Flow153 ]
  br label %59

; <label>:45:                                     ; preds = %41, %Flow152
  %.02 = phi i16 [ 2, %41 ], [ 1, %Flow152 ]
  %.01 = phi i16 [ 1, %41 ], [ 0, %Flow152 ]
  br label %Flow154

; <label>:46:                                     ; preds = %7
  %47 = getelementptr inbounds [3 x float], [3 x float]* %8, i64 0, i64 2, !taffo.info !24, !taffo.initweight !26
  %48 = load float, float* %47, align 4, !taffo.info !24, !taffo.initweight !27
  %49 = getelementptr inbounds [3 x float], [3 x float]* %8, i64 0, i64 1, !taffo.info !24, !taffo.initweight !26
  %50 = load float, float* %49, align 4, !taffo.info !24, !taffo.initweight !27
  %51 = fcmp ogt float %48, %50, !taffo.info !24, !taffo.initweight !28
  %52 = xor i1 %51, true
  br i1 %52, label %55, label %Flow151

Flow151:                                          ; preds = %55, %46
  %53 = phi i1 [ false, %55 ], [ true, %46 ]
  br i1 %53, label %54, label %58

; <label>:54:                                     ; preds = %Flow151
  br label %58

; <label>:55:                                     ; preds = %46
  br label %Flow151

Flow153:                                          ; preds = %58, %7
  %56 = phi i16 [ %.13, %58 ], [ undef, %7 ]
  %57 = phi i1 [ false, %58 ], [ true, %7 ]
  br i1 %57, label %33, label %Flow154

; <label>:58:                                     ; preds = %54, %Flow151
  %.13 = phi i16 [ 1, %54 ], [ 2, %Flow151 ]
  br label %Flow153

; <label>:59:                                     ; preds = %Flow154
  %.24 = phi i16 [ %44, %Flow154 ]
  %.2 = phi i16 [ %43, %Flow154 ]
  %60 = sext i16 %.2 to i64
  %61 = getelementptr inbounds float, float* %2, i64 %60
  %62 = load float, float* %61, align 4
  %63 = sext i16 %.2 to i64
  %64 = getelementptr inbounds float, float* %1, i64 %63
  %65 = load float, float* %64, align 4
  %66 = fsub float %62, %65
  %67 = sext i16 %.24 to i64
  %68 = getelementptr inbounds float, float* %2, i64 %67
  %69 = load float, float* %68, align 4
  %70 = sext i16 %.24 to i64
  %71 = getelementptr inbounds float, float* %1, i64 %70
  %72 = load float, float* %71, align 4
  %73 = fsub float %69, %72
  %74 = sext i16 %.2 to i64
  %75 = getelementptr inbounds float, float* %4, i64 %74
  %76 = load float, float* %75, align 4
  %77 = sext i16 %.2 to i64
  %78 = getelementptr inbounds float, float* %5, i64 %77
  %79 = load float, float* %78, align 4
  %80 = fsub float %76, %79
  %81 = sext i16 %.24 to i64
  %82 = getelementptr inbounds float, float* %4, i64 %81
  %83 = load float, float* %82, align 4
  %84 = sext i16 %.24 to i64
  %85 = getelementptr inbounds float, float* %5, i64 %84
  %86 = load float, float* %85, align 4
  %87 = fsub float %83, %86
  %88 = sext i16 %.2 to i64
  %89 = getelementptr inbounds float, float* %1, i64 %88
  %90 = load float, float* %89, align 4
  %91 = sext i16 %.2 to i64
  %92 = getelementptr inbounds float, float* %4, i64 %91
  %93 = load float, float* %92, align 4
  %94 = fsub float %90, %93
  %95 = sext i16 %.24 to i64
  %96 = getelementptr inbounds float, float* %1, i64 %95
  %97 = load float, float* %96, align 4
  %98 = sext i16 %.24 to i64
  %99 = getelementptr inbounds float, float* %4, i64 %98
  %100 = load float, float* %99, align 4
  %101 = fsub float %97, %100
  %102 = fmul float %73, %80, !taffo.info !24, !taffo.initweight !27
  %103 = fmul float %66, %87, !taffo.info !24, !taffo.initweight !27
  %104 = fsub float %102, %103, !taffo.info !24, !taffo.initweight !28
  %105 = fmul float %87, %94, !taffo.info !24, !taffo.initweight !27
  %106 = fmul float %80, %101, !taffo.info !24, !taffo.initweight !27
  %107 = fsub float %105, %106, !taffo.info !24, !taffo.initweight !28
  br label %108

; <label>:108:                                    ; preds = %59
  br label %109

; <label>:109:                                    ; preds = %108
  %110 = fcmp ogt float %104, 0.000000e+00, !taffo.info !24, !taffo.initweight !27, !taffo.target !29
  %111 = xor i1 %110, true
  br i1 %110, label %112, label %Flow136

; <label>:112:                                    ; preds = %109
  %113 = fcmp oge float %107, 0.000000e+00, !taffo.info !24, !taffo.initweight !27, !taffo.target !29
  %114 = xor i1 %113, true
  br i1 %113, label %117, label %Flow137

Flow136:                                          ; preds = %Flow137, %109
  %115 = phi i1 [ %120, %Flow137 ], [ false, %109 ]
  %116 = phi i1 [ %121, %Flow137 ], [ %111, %109 ]
  br i1 %116, label %122, label %Flow138

; <label>:117:                                    ; preds = %112
  %118 = fcmp ole float %107, %104, !taffo.info !24, !taffo.initweight !27, !taffo.target !29
  %119 = xor i1 %118, true
  br label %Flow137

Flow137:                                          ; preds = %117, %112
  %120 = phi i1 [ true, %117 ], [ false, %112 ]
  %121 = phi i1 [ %119, %117 ], [ %114, %112 ]
  br label %Flow136

; <label>:122:                                    ; preds = %Flow136
  %123 = fcmp olt float %104, 0.000000e+00, !taffo.info !24, !taffo.initweight !27, !taffo.target !29
  %124 = xor i1 %123, true
  br i1 %123, label %127, label %Flow139

Flow138:                                          ; preds = %Flow139, %Flow136
  %125 = phi i1 [ %130, %Flow139 ], [ false, %Flow136 ]
  %126 = phi i1 [ %131, %Flow139 ], [ %115, %Flow136 ]
  br i1 %126, label %136, label %Flow141

; <label>:127:                                    ; preds = %122
  %128 = fcmp ole float %107, 0.000000e+00, !taffo.info !24, !taffo.initweight !27, !taffo.target !29
  %129 = xor i1 %128, true
  br i1 %128, label %132, label %Flow140

Flow139:                                          ; preds = %Flow140, %122
  %130 = phi i1 [ %134, %Flow140 ], [ %124, %122 ]
  %131 = phi i1 [ %135, %Flow140 ], [ false, %122 ]
  br label %Flow138

; <label>:132:                                    ; preds = %127
  %133 = fcmp oge float %107, %104, !taffo.info !24, !taffo.initweight !27, !taffo.target !29
  br label %Flow140

Flow140:                                          ; preds = %132, %127
  %134 = phi i1 [ true, %132 ], [ %129, %127 ]
  %135 = phi i1 [ %133, %132 ], [ false, %127 ]
  br label %Flow139

; <label>:136:                                    ; preds = %Flow138
  %137 = fmul float %66, %101, !taffo.info !24, !taffo.initweight !27
  %138 = fmul float %73, %94, !taffo.info !24, !taffo.initweight !27
  %139 = fsub float %137, %138, !taffo.info !24, !taffo.initweight !28
  br label %142

Flow141:                                          ; preds = %Flow149, %Flow138
  %140 = phi i1 [ %149, %Flow149 ], [ false, %Flow138 ]
  %141 = phi i1 [ %175, %Flow149 ], [ %125, %Flow138 ]
  br i1 %141, label %176, label %Flow150

; <label>:142:                                    ; preds = %136
  br label %143

; <label>:143:                                    ; preds = %142
  %144 = fcmp ogt float %104, 0.000000e+00, !taffo.info !24, !taffo.initweight !27, !taffo.target !29
  %145 = xor i1 %144, true
  br i1 %145, label %158, label %Flow142

Flow145:                                          ; preds = %168, %Flow144
  br label %Flow142

; <label>:146:                                    ; preds = %Flow142
  %147 = fcmp oge float %139, 0.000000e+00, !taffo.info !24, !taffo.initweight !27, !taffo.target !29
  %148 = xor i1 %147, true
  br i1 %147, label %151, label %Flow147

Flow146:                                          ; preds = %Flow148, %Flow142
  %149 = phi i1 [ %172, %Flow148 ], [ false, %Flow142 ]
  %150 = phi i1 [ %173, %Flow148 ], [ %161, %Flow142 ]
  br i1 %150, label %174, label %Flow149

; <label>:151:                                    ; preds = %146
  %152 = fcmp ole float %139, %104, !taffo.info !24, !taffo.initweight !27, !taffo.target !29
  %153 = xor i1 %152, true
  br label %Flow147

; <label>:154:                                    ; preds = %Flow150
  br label %1293

Flow147:                                          ; preds = %151, %146
  %155 = phi i1 [ true, %151 ], [ false, %146 ]
  %156 = phi i1 [ %153, %151 ], [ %148, %146 ]
  br i1 %156, label %157, label %Flow148

; <label>:157:                                    ; preds = %Flow147
  br label %Flow148

; <label>:158:                                    ; preds = %143
  %159 = fcmp ole float %139, 0.000000e+00, !taffo.info !24, !taffo.initweight !27, !taffo.target !29
  %160 = xor i1 %159, true
  br i1 %159, label %163, label %Flow143

Flow142:                                          ; preds = %Flow145, %143
  %161 = phi i1 [ %166, %Flow145 ], [ false, %143 ]
  %162 = phi i1 [ false, %Flow145 ], [ true, %143 ]
  br i1 %162, label %146, label %Flow146

; <label>:163:                                    ; preds = %158
  %164 = fcmp oge float %139, %104, !taffo.info !24, !taffo.initweight !27, !taffo.target !29
  %165 = xor i1 %164, true
  br label %Flow143

Flow144:                                          ; preds = %171, %Flow143
  %166 = phi i1 [ true, %171 ], [ false, %Flow143 ]
  %167 = phi i1 [ false, %171 ], [ %169, %Flow143 ]
  br i1 %167, label %168, label %Flow145

; <label>:168:                                    ; preds = %Flow144
  br label %Flow145

Flow143:                                          ; preds = %163, %158
  %169 = phi i1 [ true, %163 ], [ false, %158 ]
  %170 = phi i1 [ %165, %163 ], [ %160, %158 ]
  br i1 %170, label %171, label %Flow144

; <label>:171:                                    ; preds = %Flow143
  br label %Flow144

Flow148:                                          ; preds = %157, %Flow147
  %172 = phi i1 [ false, %157 ], [ %155, %Flow147 ]
  %173 = phi i1 [ true, %157 ], [ %161, %Flow147 ]
  br label %Flow146

; <label>:174:                                    ; preds = %Flow146
  br label %Flow149

Flow149:                                          ; preds = %174, %Flow146
  %175 = phi i1 [ true, %174 ], [ false, %Flow146 ]
  br label %Flow141

; <label>:176:                                    ; preds = %Flow141
  %177 = sext i16 %.2 to i64
  %178 = getelementptr inbounds float, float* %5, i64 %177
  %179 = load float, float* %178, align 4
  %180 = sext i16 %.2 to i64
  %181 = getelementptr inbounds float, float* %6, i64 %180
  %182 = load float, float* %181, align 4
  %183 = fsub float %179, %182
  %184 = sext i16 %.24 to i64
  %185 = getelementptr inbounds float, float* %5, i64 %184
  %186 = load float, float* %185, align 4
  %187 = sext i16 %.24 to i64
  %188 = getelementptr inbounds float, float* %6, i64 %187
  %189 = load float, float* %188, align 4
  %190 = fsub float %186, %189
  %191 = sext i16 %.2 to i64
  %192 = getelementptr inbounds float, float* %1, i64 %191
  %193 = load float, float* %192, align 4
  %194 = sext i16 %.2 to i64
  %195 = getelementptr inbounds float, float* %5, i64 %194
  %196 = load float, float* %195, align 4
  %197 = fsub float %193, %196
  %198 = sext i16 %.24 to i64
  %199 = getelementptr inbounds float, float* %1, i64 %198
  %200 = load float, float* %199, align 4
  %201 = sext i16 %.24 to i64
  %202 = getelementptr inbounds float, float* %5, i64 %201
  %203 = load float, float* %202, align 4
  %204 = fsub float %200, %203
  %205 = fmul float %73, %183, !taffo.info !24, !taffo.initweight !27
  %206 = fmul float %66, %190, !taffo.info !24, !taffo.initweight !27
  %207 = fsub float %205, %206, !taffo.info !24, !taffo.initweight !28
  %208 = fmul float %190, %197, !taffo.info !24, !taffo.initweight !27
  %209 = fmul float %183, %204, !taffo.info !24, !taffo.initweight !27
  %210 = fsub float %208, %209, !taffo.info !24, !taffo.initweight !28
  br label %212

Flow150:                                          ; preds = %Flow135, %Flow141
  %211 = phi i32 [ %1292, %Flow135 ], [ 1, %Flow141 ]
  br i1 %140, label %154, label %1293

; <label>:212:                                    ; preds = %176
  br label %213

; <label>:213:                                    ; preds = %212
  %214 = fcmp ogt float %207, 0.000000e+00, !taffo.info !24, !taffo.initweight !27, !taffo.target !29
  %215 = xor i1 %214, true
  br i1 %214, label %216, label %Flow120

; <label>:216:                                    ; preds = %213
  %217 = fcmp oge float %210, 0.000000e+00, !taffo.info !24, !taffo.initweight !27, !taffo.target !29
  %218 = xor i1 %217, true
  br i1 %217, label %221, label %Flow121

Flow120:                                          ; preds = %Flow121, %213
  %219 = phi i1 [ %224, %Flow121 ], [ false, %213 ]
  %220 = phi i1 [ %225, %Flow121 ], [ %215, %213 ]
  br i1 %220, label %226, label %Flow122

; <label>:221:                                    ; preds = %216
  %222 = fcmp ole float %210, %207, !taffo.info !24, !taffo.initweight !27, !taffo.target !29
  %223 = xor i1 %222, true
  br label %Flow121

Flow121:                                          ; preds = %221, %216
  %224 = phi i1 [ true, %221 ], [ false, %216 ]
  %225 = phi i1 [ %223, %221 ], [ %218, %216 ]
  br label %Flow120

; <label>:226:                                    ; preds = %Flow120
  %227 = fcmp olt float %207, 0.000000e+00, !taffo.info !24, !taffo.initweight !27, !taffo.target !29
  %228 = xor i1 %227, true
  br i1 %227, label %231, label %Flow123

Flow122:                                          ; preds = %Flow123, %Flow120
  %229 = phi i1 [ %234, %Flow123 ], [ false, %Flow120 ]
  %230 = phi i1 [ %235, %Flow123 ], [ %219, %Flow120 ]
  br i1 %230, label %240, label %Flow125

; <label>:231:                                    ; preds = %226
  %232 = fcmp ole float %210, 0.000000e+00, !taffo.info !24, !taffo.initweight !27, !taffo.target !29
  %233 = xor i1 %232, true
  br i1 %232, label %236, label %Flow124

Flow123:                                          ; preds = %Flow124, %226
  %234 = phi i1 [ %238, %Flow124 ], [ %228, %226 ]
  %235 = phi i1 [ %239, %Flow124 ], [ false, %226 ]
  br label %Flow122

; <label>:236:                                    ; preds = %231
  %237 = fcmp oge float %210, %207, !taffo.info !24, !taffo.initweight !27, !taffo.target !29
  br label %Flow124

Flow124:                                          ; preds = %236, %231
  %238 = phi i1 [ true, %236 ], [ %233, %231 ]
  %239 = phi i1 [ %237, %236 ], [ false, %231 ]
  br label %Flow123

; <label>:240:                                    ; preds = %Flow122
  %241 = fmul float %66, %204, !taffo.info !24, !taffo.initweight !27
  %242 = fmul float %73, %197, !taffo.info !24, !taffo.initweight !27
  %243 = fsub float %241, %242, !taffo.info !24, !taffo.initweight !28
  br label %246

Flow125:                                          ; preds = %Flow133, %Flow122
  %244 = phi i1 [ %253, %Flow133 ], [ false, %Flow122 ]
  %245 = phi i1 [ %279, %Flow133 ], [ %229, %Flow122 ]
  br i1 %245, label %280, label %Flow134

; <label>:246:                                    ; preds = %240
  br label %247

; <label>:247:                                    ; preds = %246
  %248 = fcmp ogt float %207, 0.000000e+00, !taffo.info !24, !taffo.initweight !27, !taffo.target !29
  %249 = xor i1 %248, true
  br i1 %249, label %262, label %Flow126

Flow129:                                          ; preds = %272, %Flow128
  br label %Flow126

; <label>:250:                                    ; preds = %Flow126
  %251 = fcmp oge float %243, 0.000000e+00, !taffo.info !24, !taffo.initweight !27, !taffo.target !29
  %252 = xor i1 %251, true
  br i1 %251, label %255, label %Flow131

Flow130:                                          ; preds = %Flow132, %Flow126
  %253 = phi i1 [ %276, %Flow132 ], [ false, %Flow126 ]
  %254 = phi i1 [ %277, %Flow132 ], [ %265, %Flow126 ]
  br i1 %254, label %278, label %Flow133

; <label>:255:                                    ; preds = %250
  %256 = fcmp ole float %243, %207, !taffo.info !24, !taffo.initweight !27, !taffo.target !29
  %257 = xor i1 %256, true
  br label %Flow131

; <label>:258:                                    ; preds = %Flow134
  br label %Flow135

Flow131:                                          ; preds = %255, %250
  %259 = phi i1 [ true, %255 ], [ false, %250 ]
  %260 = phi i1 [ %257, %255 ], [ %252, %250 ]
  br i1 %260, label %261, label %Flow132

; <label>:261:                                    ; preds = %Flow131
  br label %Flow132

; <label>:262:                                    ; preds = %247
  %263 = fcmp ole float %243, 0.000000e+00, !taffo.info !24, !taffo.initweight !27, !taffo.target !29
  %264 = xor i1 %263, true
  br i1 %263, label %267, label %Flow127

Flow126:                                          ; preds = %Flow129, %247
  %265 = phi i1 [ %270, %Flow129 ], [ false, %247 ]
  %266 = phi i1 [ false, %Flow129 ], [ true, %247 ]
  br i1 %266, label %250, label %Flow130

; <label>:267:                                    ; preds = %262
  %268 = fcmp oge float %243, %207, !taffo.info !24, !taffo.initweight !27, !taffo.target !29
  %269 = xor i1 %268, true
  br label %Flow127

Flow128:                                          ; preds = %275, %Flow127
  %270 = phi i1 [ true, %275 ], [ false, %Flow127 ]
  %271 = phi i1 [ false, %275 ], [ %273, %Flow127 ]
  br i1 %271, label %272, label %Flow129

; <label>:272:                                    ; preds = %Flow128
  br label %Flow129

Flow127:                                          ; preds = %267, %262
  %273 = phi i1 [ true, %267 ], [ false, %262 ]
  %274 = phi i1 [ %269, %267 ], [ %264, %262 ]
  br i1 %274, label %275, label %Flow128

; <label>:275:                                    ; preds = %Flow127
  br label %Flow128

Flow132:                                          ; preds = %261, %Flow131
  %276 = phi i1 [ false, %261 ], [ %259, %Flow131 ]
  %277 = phi i1 [ true, %261 ], [ %265, %Flow131 ]
  br label %Flow130

; <label>:278:                                    ; preds = %Flow130
  br label %Flow133

Flow133:                                          ; preds = %278, %Flow130
  %279 = phi i1 [ true, %278 ], [ false, %Flow130 ]
  br label %Flow125

; <label>:280:                                    ; preds = %Flow125
  %281 = sext i16 %.2 to i64
  %282 = getelementptr inbounds float, float* %6, i64 %281
  %283 = load float, float* %282, align 4
  %284 = sext i16 %.2 to i64
  %285 = getelementptr inbounds float, float* %4, i64 %284
  %286 = load float, float* %285, align 4
  %287 = fsub float %283, %286
  %288 = sext i16 %.24 to i64
  %289 = getelementptr inbounds float, float* %6, i64 %288
  %290 = load float, float* %289, align 4
  %291 = sext i16 %.24 to i64
  %292 = getelementptr inbounds float, float* %4, i64 %291
  %293 = load float, float* %292, align 4
  %294 = fsub float %290, %293
  %295 = sext i16 %.2 to i64
  %296 = getelementptr inbounds float, float* %1, i64 %295
  %297 = load float, float* %296, align 4
  %298 = sext i16 %.2 to i64
  %299 = getelementptr inbounds float, float* %6, i64 %298
  %300 = load float, float* %299, align 4
  %301 = fsub float %297, %300
  %302 = sext i16 %.24 to i64
  %303 = getelementptr inbounds float, float* %1, i64 %302
  %304 = load float, float* %303, align 4
  %305 = sext i16 %.24 to i64
  %306 = getelementptr inbounds float, float* %6, i64 %305
  %307 = load float, float* %306, align 4
  %308 = fsub float %304, %307
  %309 = fmul float %73, %287, !taffo.info !24, !taffo.initweight !27
  %310 = fmul float %66, %294, !taffo.info !24, !taffo.initweight !27
  %311 = fsub float %309, %310, !taffo.info !24, !taffo.initweight !28
  %312 = fmul float %294, %301, !taffo.info !24, !taffo.initweight !27
  %313 = fmul float %287, %308, !taffo.info !24, !taffo.initweight !27
  %314 = fsub float %312, %313, !taffo.info !24, !taffo.initweight !28
  br label %316

Flow134:                                          ; preds = %Flow119, %Flow125
  %315 = phi i32 [ %1291, %Flow119 ], [ 1, %Flow125 ]
  br i1 %244, label %258, label %Flow135

; <label>:316:                                    ; preds = %280
  br label %317

; <label>:317:                                    ; preds = %316
  %318 = fcmp ogt float %311, 0.000000e+00, !taffo.info !24, !taffo.initweight !27, !taffo.target !29
  %319 = xor i1 %318, true
  br i1 %318, label %320, label %Flow104

; <label>:320:                                    ; preds = %317
  %321 = fcmp oge float %314, 0.000000e+00, !taffo.info !24, !taffo.initweight !27, !taffo.target !29
  %322 = xor i1 %321, true
  br i1 %321, label %325, label %Flow105

Flow104:                                          ; preds = %Flow105, %317
  %323 = phi i1 [ %328, %Flow105 ], [ false, %317 ]
  %324 = phi i1 [ %329, %Flow105 ], [ %319, %317 ]
  br i1 %324, label %330, label %Flow106

; <label>:325:                                    ; preds = %320
  %326 = fcmp ole float %314, %311, !taffo.info !24, !taffo.initweight !27, !taffo.target !29
  %327 = xor i1 %326, true
  br label %Flow105

Flow105:                                          ; preds = %325, %320
  %328 = phi i1 [ true, %325 ], [ false, %320 ]
  %329 = phi i1 [ %327, %325 ], [ %322, %320 ]
  br label %Flow104

; <label>:330:                                    ; preds = %Flow104
  %331 = fcmp olt float %311, 0.000000e+00, !taffo.info !24, !taffo.initweight !27, !taffo.target !29
  %332 = xor i1 %331, true
  br i1 %331, label %335, label %Flow107

Flow106:                                          ; preds = %Flow107, %Flow104
  %333 = phi i1 [ %338, %Flow107 ], [ false, %Flow104 ]
  %334 = phi i1 [ %339, %Flow107 ], [ %323, %Flow104 ]
  br i1 %334, label %344, label %Flow109

; <label>:335:                                    ; preds = %330
  %336 = fcmp ole float %314, 0.000000e+00, !taffo.info !24, !taffo.initweight !27, !taffo.target !29
  %337 = xor i1 %336, true
  br i1 %336, label %340, label %Flow108

Flow107:                                          ; preds = %Flow108, %330
  %338 = phi i1 [ %342, %Flow108 ], [ %332, %330 ]
  %339 = phi i1 [ %343, %Flow108 ], [ false, %330 ]
  br label %Flow106

; <label>:340:                                    ; preds = %335
  %341 = fcmp oge float %314, %311, !taffo.info !24, !taffo.initweight !27, !taffo.target !29
  br label %Flow108

Flow108:                                          ; preds = %340, %335
  %342 = phi i1 [ true, %340 ], [ %337, %335 ]
  %343 = phi i1 [ %341, %340 ], [ false, %335 ]
  br label %Flow107

; <label>:344:                                    ; preds = %Flow106
  %345 = fmul float %66, %308, !taffo.info !24, !taffo.initweight !27
  %346 = fmul float %73, %301, !taffo.info !24, !taffo.initweight !27
  %347 = fsub float %345, %346, !taffo.info !24, !taffo.initweight !28
  br label %350

Flow109:                                          ; preds = %Flow117, %Flow106
  %348 = phi i1 [ %357, %Flow117 ], [ false, %Flow106 ]
  %349 = phi i1 [ %383, %Flow117 ], [ %333, %Flow106 ]
  br i1 %349, label %384, label %Flow118

; <label>:350:                                    ; preds = %344
  br label %351

; <label>:351:                                    ; preds = %350
  %352 = fcmp ogt float %311, 0.000000e+00, !taffo.info !24, !taffo.initweight !27, !taffo.target !29
  %353 = xor i1 %352, true
  br i1 %353, label %366, label %Flow110

Flow113:                                          ; preds = %376, %Flow112
  br label %Flow110

; <label>:354:                                    ; preds = %Flow110
  %355 = fcmp oge float %347, 0.000000e+00, !taffo.info !24, !taffo.initweight !27, !taffo.target !29
  %356 = xor i1 %355, true
  br i1 %355, label %359, label %Flow115

Flow114:                                          ; preds = %Flow116, %Flow110
  %357 = phi i1 [ %380, %Flow116 ], [ false, %Flow110 ]
  %358 = phi i1 [ %381, %Flow116 ], [ %369, %Flow110 ]
  br i1 %358, label %382, label %Flow117

; <label>:359:                                    ; preds = %354
  %360 = fcmp ole float %347, %311, !taffo.info !24, !taffo.initweight !27, !taffo.target !29
  %361 = xor i1 %360, true
  br label %Flow115

; <label>:362:                                    ; preds = %Flow118
  br label %Flow119

Flow115:                                          ; preds = %359, %354
  %363 = phi i1 [ true, %359 ], [ false, %354 ]
  %364 = phi i1 [ %361, %359 ], [ %356, %354 ]
  br i1 %364, label %365, label %Flow116

; <label>:365:                                    ; preds = %Flow115
  br label %Flow116

; <label>:366:                                    ; preds = %351
  %367 = fcmp ole float %347, 0.000000e+00, !taffo.info !24, !taffo.initweight !27, !taffo.target !29
  %368 = xor i1 %367, true
  br i1 %367, label %371, label %Flow111

Flow110:                                          ; preds = %Flow113, %351
  %369 = phi i1 [ %374, %Flow113 ], [ false, %351 ]
  %370 = phi i1 [ false, %Flow113 ], [ true, %351 ]
  br i1 %370, label %354, label %Flow114

; <label>:371:                                    ; preds = %366
  %372 = fcmp oge float %347, %311, !taffo.info !24, !taffo.initweight !27, !taffo.target !29
  %373 = xor i1 %372, true
  br label %Flow111

Flow112:                                          ; preds = %379, %Flow111
  %374 = phi i1 [ true, %379 ], [ false, %Flow111 ]
  %375 = phi i1 [ false, %379 ], [ %377, %Flow111 ]
  br i1 %375, label %376, label %Flow113

; <label>:376:                                    ; preds = %Flow112
  br label %Flow113

Flow111:                                          ; preds = %371, %366
  %377 = phi i1 [ true, %371 ], [ false, %366 ]
  %378 = phi i1 [ %373, %371 ], [ %368, %366 ]
  br i1 %378, label %379, label %Flow112

; <label>:379:                                    ; preds = %Flow111
  br label %Flow112

Flow116:                                          ; preds = %365, %Flow115
  %380 = phi i1 [ false, %365 ], [ %363, %Flow115 ]
  %381 = phi i1 [ true, %365 ], [ %369, %Flow115 ]
  br label %Flow114

; <label>:382:                                    ; preds = %Flow114
  br label %Flow117

Flow117:                                          ; preds = %382, %Flow114
  %383 = phi i1 [ true, %382 ], [ false, %Flow114 ]
  br label %Flow109

; <label>:384:                                    ; preds = %Flow109
  %385 = sext i16 %.2 to i64
  %386 = getelementptr inbounds float, float* %3, i64 %385
  %387 = load float, float* %386, align 4
  %388 = sext i16 %.2 to i64
  %389 = getelementptr inbounds float, float* %2, i64 %388
  %390 = load float, float* %389, align 4
  %391 = fsub float %387, %390
  %392 = sext i16 %.24 to i64
  %393 = getelementptr inbounds float, float* %3, i64 %392
  %394 = load float, float* %393, align 4
  %395 = sext i16 %.24 to i64
  %396 = getelementptr inbounds float, float* %2, i64 %395
  %397 = load float, float* %396, align 4
  %398 = fsub float %394, %397
  %399 = sext i16 %.2 to i64
  %400 = getelementptr inbounds float, float* %4, i64 %399
  %401 = load float, float* %400, align 4
  %402 = sext i16 %.2 to i64
  %403 = getelementptr inbounds float, float* %5, i64 %402
  %404 = load float, float* %403, align 4
  %405 = fsub float %401, %404
  %406 = sext i16 %.24 to i64
  %407 = getelementptr inbounds float, float* %4, i64 %406
  %408 = load float, float* %407, align 4
  %409 = sext i16 %.24 to i64
  %410 = getelementptr inbounds float, float* %5, i64 %409
  %411 = load float, float* %410, align 4
  %412 = fsub float %408, %411
  %413 = sext i16 %.2 to i64
  %414 = getelementptr inbounds float, float* %2, i64 %413
  %415 = load float, float* %414, align 4
  %416 = sext i16 %.2 to i64
  %417 = getelementptr inbounds float, float* %4, i64 %416
  %418 = load float, float* %417, align 4
  %419 = fsub float %415, %418
  %420 = sext i16 %.24 to i64
  %421 = getelementptr inbounds float, float* %2, i64 %420
  %422 = load float, float* %421, align 4
  %423 = sext i16 %.24 to i64
  %424 = getelementptr inbounds float, float* %4, i64 %423
  %425 = load float, float* %424, align 4
  %426 = fsub float %422, %425
  %427 = fmul float %398, %405, !taffo.info !24, !taffo.initweight !27
  %428 = fmul float %391, %412, !taffo.info !24, !taffo.initweight !27
  %429 = fsub float %427, %428, !taffo.info !24, !taffo.initweight !28
  %430 = fmul float %412, %419, !taffo.info !24, !taffo.initweight !27
  %431 = fmul float %405, %426, !taffo.info !24, !taffo.initweight !27
  %432 = fsub float %430, %431, !taffo.info !24, !taffo.initweight !28
  br label %434

Flow118:                                          ; preds = %Flow103, %Flow109
  %433 = phi i32 [ %1290, %Flow103 ], [ 1, %Flow109 ]
  br i1 %348, label %362, label %Flow119

; <label>:434:                                    ; preds = %384
  br label %435

; <label>:435:                                    ; preds = %434
  %436 = fcmp ogt float %429, 0.000000e+00, !taffo.info !24, !taffo.initweight !27, !taffo.target !29
  %437 = xor i1 %436, true
  br i1 %436, label %438, label %Flow88

; <label>:438:                                    ; preds = %435
  %439 = fcmp oge float %432, 0.000000e+00, !taffo.info !24, !taffo.initweight !27, !taffo.target !29
  %440 = xor i1 %439, true
  br i1 %439, label %443, label %Flow89

Flow88:                                           ; preds = %Flow89, %435
  %441 = phi i1 [ %446, %Flow89 ], [ false, %435 ]
  %442 = phi i1 [ %447, %Flow89 ], [ %437, %435 ]
  br i1 %442, label %448, label %Flow90

; <label>:443:                                    ; preds = %438
  %444 = fcmp ole float %432, %429, !taffo.info !24, !taffo.initweight !27, !taffo.target !29
  %445 = xor i1 %444, true
  br label %Flow89

Flow89:                                           ; preds = %443, %438
  %446 = phi i1 [ true, %443 ], [ false, %438 ]
  %447 = phi i1 [ %445, %443 ], [ %440, %438 ]
  br label %Flow88

; <label>:448:                                    ; preds = %Flow88
  %449 = fcmp olt float %429, 0.000000e+00, !taffo.info !24, !taffo.initweight !27, !taffo.target !29
  %450 = xor i1 %449, true
  br i1 %449, label %453, label %Flow91

Flow90:                                           ; preds = %Flow91, %Flow88
  %451 = phi i1 [ %456, %Flow91 ], [ false, %Flow88 ]
  %452 = phi i1 [ %457, %Flow91 ], [ %441, %Flow88 ]
  br i1 %452, label %462, label %Flow93

; <label>:453:                                    ; preds = %448
  %454 = fcmp ole float %432, 0.000000e+00, !taffo.info !24, !taffo.initweight !27, !taffo.target !29
  %455 = xor i1 %454, true
  br i1 %454, label %458, label %Flow92

Flow91:                                           ; preds = %Flow92, %448
  %456 = phi i1 [ %460, %Flow92 ], [ %450, %448 ]
  %457 = phi i1 [ %461, %Flow92 ], [ false, %448 ]
  br label %Flow90

; <label>:458:                                    ; preds = %453
  %459 = fcmp oge float %432, %429, !taffo.info !24, !taffo.initweight !27, !taffo.target !29
  br label %Flow92

Flow92:                                           ; preds = %458, %453
  %460 = phi i1 [ true, %458 ], [ %455, %453 ]
  %461 = phi i1 [ %459, %458 ], [ false, %453 ]
  br label %Flow91

; <label>:462:                                    ; preds = %Flow90
  %463 = fmul float %391, %426, !taffo.info !24, !taffo.initweight !27
  %464 = fmul float %398, %419, !taffo.info !24, !taffo.initweight !27
  %465 = fsub float %463, %464, !taffo.info !24, !taffo.initweight !28
  br label %468

Flow93:                                           ; preds = %Flow101, %Flow90
  %466 = phi i1 [ %475, %Flow101 ], [ false, %Flow90 ]
  %467 = phi i1 [ %501, %Flow101 ], [ %451, %Flow90 ]
  br i1 %467, label %502, label %Flow102

; <label>:468:                                    ; preds = %462
  br label %469

; <label>:469:                                    ; preds = %468
  %470 = fcmp ogt float %429, 0.000000e+00, !taffo.info !24, !taffo.initweight !27, !taffo.target !29
  %471 = xor i1 %470, true
  br i1 %471, label %484, label %Flow94

Flow97:                                           ; preds = %494, %Flow96
  br label %Flow94

; <label>:472:                                    ; preds = %Flow94
  %473 = fcmp oge float %465, 0.000000e+00, !taffo.info !24, !taffo.initweight !27, !taffo.target !29
  %474 = xor i1 %473, true
  br i1 %473, label %477, label %Flow99

Flow98:                                           ; preds = %Flow100, %Flow94
  %475 = phi i1 [ %498, %Flow100 ], [ false, %Flow94 ]
  %476 = phi i1 [ %499, %Flow100 ], [ %487, %Flow94 ]
  br i1 %476, label %500, label %Flow101

; <label>:477:                                    ; preds = %472
  %478 = fcmp ole float %465, %429, !taffo.info !24, !taffo.initweight !27, !taffo.target !29
  %479 = xor i1 %478, true
  br label %Flow99

; <label>:480:                                    ; preds = %Flow102
  br label %Flow103

Flow99:                                           ; preds = %477, %472
  %481 = phi i1 [ true, %477 ], [ false, %472 ]
  %482 = phi i1 [ %479, %477 ], [ %474, %472 ]
  br i1 %482, label %483, label %Flow100

; <label>:483:                                    ; preds = %Flow99
  br label %Flow100

; <label>:484:                                    ; preds = %469
  %485 = fcmp ole float %465, 0.000000e+00, !taffo.info !24, !taffo.initweight !27, !taffo.target !29
  %486 = xor i1 %485, true
  br i1 %485, label %489, label %Flow95

Flow94:                                           ; preds = %Flow97, %469
  %487 = phi i1 [ %492, %Flow97 ], [ false, %469 ]
  %488 = phi i1 [ false, %Flow97 ], [ true, %469 ]
  br i1 %488, label %472, label %Flow98

; <label>:489:                                    ; preds = %484
  %490 = fcmp oge float %465, %429, !taffo.info !24, !taffo.initweight !27, !taffo.target !29
  %491 = xor i1 %490, true
  br label %Flow95

Flow96:                                           ; preds = %497, %Flow95
  %492 = phi i1 [ true, %497 ], [ false, %Flow95 ]
  %493 = phi i1 [ false, %497 ], [ %495, %Flow95 ]
  br i1 %493, label %494, label %Flow97

; <label>:494:                                    ; preds = %Flow96
  br label %Flow97

Flow95:                                           ; preds = %489, %484
  %495 = phi i1 [ true, %489 ], [ false, %484 ]
  %496 = phi i1 [ %491, %489 ], [ %486, %484 ]
  br i1 %496, label %497, label %Flow96

; <label>:497:                                    ; preds = %Flow95
  br label %Flow96

Flow100:                                          ; preds = %483, %Flow99
  %498 = phi i1 [ false, %483 ], [ %481, %Flow99 ]
  %499 = phi i1 [ true, %483 ], [ %487, %Flow99 ]
  br label %Flow98

; <label>:500:                                    ; preds = %Flow98
  br label %Flow101

Flow101:                                          ; preds = %500, %Flow98
  %501 = phi i1 [ true, %500 ], [ false, %Flow98 ]
  br label %Flow93

; <label>:502:                                    ; preds = %Flow93
  %503 = sext i16 %.2 to i64
  %504 = getelementptr inbounds float, float* %5, i64 %503
  %505 = load float, float* %504, align 4
  %506 = sext i16 %.2 to i64
  %507 = getelementptr inbounds float, float* %6, i64 %506
  %508 = load float, float* %507, align 4
  %509 = fsub float %505, %508
  %510 = sext i16 %.24 to i64
  %511 = getelementptr inbounds float, float* %5, i64 %510
  %512 = load float, float* %511, align 4
  %513 = sext i16 %.24 to i64
  %514 = getelementptr inbounds float, float* %6, i64 %513
  %515 = load float, float* %514, align 4
  %516 = fsub float %512, %515
  %517 = sext i16 %.2 to i64
  %518 = getelementptr inbounds float, float* %2, i64 %517
  %519 = load float, float* %518, align 4
  %520 = sext i16 %.2 to i64
  %521 = getelementptr inbounds float, float* %5, i64 %520
  %522 = load float, float* %521, align 4
  %523 = fsub float %519, %522
  %524 = sext i16 %.24 to i64
  %525 = getelementptr inbounds float, float* %2, i64 %524
  %526 = load float, float* %525, align 4
  %527 = sext i16 %.24 to i64
  %528 = getelementptr inbounds float, float* %5, i64 %527
  %529 = load float, float* %528, align 4
  %530 = fsub float %526, %529
  %531 = fmul float %398, %509, !taffo.info !24, !taffo.initweight !27
  %532 = fmul float %391, %516, !taffo.info !24, !taffo.initweight !27
  %533 = fsub float %531, %532, !taffo.info !24, !taffo.initweight !28
  %534 = fmul float %516, %523, !taffo.info !24, !taffo.initweight !27
  %535 = fmul float %509, %530, !taffo.info !24, !taffo.initweight !27
  %536 = fsub float %534, %535, !taffo.info !24, !taffo.initweight !28
  br label %538

Flow102:                                          ; preds = %Flow87, %Flow93
  %537 = phi i32 [ %1289, %Flow87 ], [ 1, %Flow93 ]
  br i1 %466, label %480, label %Flow103

; <label>:538:                                    ; preds = %502
  br label %539

; <label>:539:                                    ; preds = %538
  %540 = fcmp ogt float %533, 0.000000e+00, !taffo.info !24, !taffo.initweight !27, !taffo.target !29
  %541 = xor i1 %540, true
  br i1 %540, label %542, label %Flow72

; <label>:542:                                    ; preds = %539
  %543 = fcmp oge float %536, 0.000000e+00, !taffo.info !24, !taffo.initweight !27, !taffo.target !29
  %544 = xor i1 %543, true
  br i1 %543, label %547, label %Flow73

Flow72:                                           ; preds = %Flow73, %539
  %545 = phi i1 [ %550, %Flow73 ], [ false, %539 ]
  %546 = phi i1 [ %551, %Flow73 ], [ %541, %539 ]
  br i1 %546, label %552, label %Flow74

; <label>:547:                                    ; preds = %542
  %548 = fcmp ole float %536, %533, !taffo.info !24, !taffo.initweight !27, !taffo.target !29
  %549 = xor i1 %548, true
  br label %Flow73

Flow73:                                           ; preds = %547, %542
  %550 = phi i1 [ true, %547 ], [ false, %542 ]
  %551 = phi i1 [ %549, %547 ], [ %544, %542 ]
  br label %Flow72

; <label>:552:                                    ; preds = %Flow72
  %553 = fcmp olt float %533, 0.000000e+00, !taffo.info !24, !taffo.initweight !27, !taffo.target !29
  %554 = xor i1 %553, true
  br i1 %553, label %557, label %Flow75

Flow74:                                           ; preds = %Flow75, %Flow72
  %555 = phi i1 [ %560, %Flow75 ], [ false, %Flow72 ]
  %556 = phi i1 [ %561, %Flow75 ], [ %545, %Flow72 ]
  br i1 %556, label %566, label %Flow77

; <label>:557:                                    ; preds = %552
  %558 = fcmp ole float %536, 0.000000e+00, !taffo.info !24, !taffo.initweight !27, !taffo.target !29
  %559 = xor i1 %558, true
  br i1 %558, label %562, label %Flow76

Flow75:                                           ; preds = %Flow76, %552
  %560 = phi i1 [ %564, %Flow76 ], [ %554, %552 ]
  %561 = phi i1 [ %565, %Flow76 ], [ false, %552 ]
  br label %Flow74

; <label>:562:                                    ; preds = %557
  %563 = fcmp oge float %536, %533, !taffo.info !24, !taffo.initweight !27, !taffo.target !29
  br label %Flow76

Flow76:                                           ; preds = %562, %557
  %564 = phi i1 [ true, %562 ], [ %559, %557 ]
  %565 = phi i1 [ %563, %562 ], [ false, %557 ]
  br label %Flow75

; <label>:566:                                    ; preds = %Flow74
  %567 = fmul float %391, %530, !taffo.info !24, !taffo.initweight !27
  %568 = fmul float %398, %523, !taffo.info !24, !taffo.initweight !27
  %569 = fsub float %567, %568, !taffo.info !24, !taffo.initweight !28
  br label %572

Flow77:                                           ; preds = %Flow85, %Flow74
  %570 = phi i1 [ %579, %Flow85 ], [ false, %Flow74 ]
  %571 = phi i1 [ %605, %Flow85 ], [ %555, %Flow74 ]
  br i1 %571, label %606, label %Flow86

; <label>:572:                                    ; preds = %566
  br label %573

; <label>:573:                                    ; preds = %572
  %574 = fcmp ogt float %533, 0.000000e+00, !taffo.info !24, !taffo.initweight !27, !taffo.target !29
  %575 = xor i1 %574, true
  br i1 %575, label %588, label %Flow78

Flow81:                                           ; preds = %598, %Flow80
  br label %Flow78

; <label>:576:                                    ; preds = %Flow78
  %577 = fcmp oge float %569, 0.000000e+00, !taffo.info !24, !taffo.initweight !27, !taffo.target !29
  %578 = xor i1 %577, true
  br i1 %577, label %581, label %Flow83

Flow82:                                           ; preds = %Flow84, %Flow78
  %579 = phi i1 [ %602, %Flow84 ], [ false, %Flow78 ]
  %580 = phi i1 [ %603, %Flow84 ], [ %591, %Flow78 ]
  br i1 %580, label %604, label %Flow85

; <label>:581:                                    ; preds = %576
  %582 = fcmp ole float %569, %533, !taffo.info !24, !taffo.initweight !27, !taffo.target !29
  %583 = xor i1 %582, true
  br label %Flow83

; <label>:584:                                    ; preds = %Flow86
  br label %Flow87

Flow83:                                           ; preds = %581, %576
  %585 = phi i1 [ true, %581 ], [ false, %576 ]
  %586 = phi i1 [ %583, %581 ], [ %578, %576 ]
  br i1 %586, label %587, label %Flow84

; <label>:587:                                    ; preds = %Flow83
  br label %Flow84

; <label>:588:                                    ; preds = %573
  %589 = fcmp ole float %569, 0.000000e+00, !taffo.info !24, !taffo.initweight !27, !taffo.target !29
  %590 = xor i1 %589, true
  br i1 %589, label %593, label %Flow79

Flow78:                                           ; preds = %Flow81, %573
  %591 = phi i1 [ %596, %Flow81 ], [ false, %573 ]
  %592 = phi i1 [ false, %Flow81 ], [ true, %573 ]
  br i1 %592, label %576, label %Flow82

; <label>:593:                                    ; preds = %588
  %594 = fcmp oge float %569, %533, !taffo.info !24, !taffo.initweight !27, !taffo.target !29
  %595 = xor i1 %594, true
  br label %Flow79

Flow80:                                           ; preds = %601, %Flow79
  %596 = phi i1 [ true, %601 ], [ false, %Flow79 ]
  %597 = phi i1 [ false, %601 ], [ %599, %Flow79 ]
  br i1 %597, label %598, label %Flow81

; <label>:598:                                    ; preds = %Flow80
  br label %Flow81

Flow79:                                           ; preds = %593, %588
  %599 = phi i1 [ true, %593 ], [ false, %588 ]
  %600 = phi i1 [ %595, %593 ], [ %590, %588 ]
  br i1 %600, label %601, label %Flow80

; <label>:601:                                    ; preds = %Flow79
  br label %Flow80

Flow84:                                           ; preds = %587, %Flow83
  %602 = phi i1 [ false, %587 ], [ %585, %Flow83 ]
  %603 = phi i1 [ true, %587 ], [ %591, %Flow83 ]
  br label %Flow82

; <label>:604:                                    ; preds = %Flow82
  br label %Flow85

Flow85:                                           ; preds = %604, %Flow82
  %605 = phi i1 [ true, %604 ], [ false, %Flow82 ]
  br label %Flow77

; <label>:606:                                    ; preds = %Flow77
  %607 = sext i16 %.2 to i64
  %608 = getelementptr inbounds float, float* %6, i64 %607
  %609 = load float, float* %608, align 4
  %610 = sext i16 %.2 to i64
  %611 = getelementptr inbounds float, float* %4, i64 %610
  %612 = load float, float* %611, align 4
  %613 = fsub float %609, %612
  %614 = sext i16 %.24 to i64
  %615 = getelementptr inbounds float, float* %6, i64 %614
  %616 = load float, float* %615, align 4
  %617 = sext i16 %.24 to i64
  %618 = getelementptr inbounds float, float* %4, i64 %617
  %619 = load float, float* %618, align 4
  %620 = fsub float %616, %619
  %621 = sext i16 %.2 to i64
  %622 = getelementptr inbounds float, float* %2, i64 %621
  %623 = load float, float* %622, align 4
  %624 = sext i16 %.2 to i64
  %625 = getelementptr inbounds float, float* %6, i64 %624
  %626 = load float, float* %625, align 4
  %627 = fsub float %623, %626
  %628 = sext i16 %.24 to i64
  %629 = getelementptr inbounds float, float* %2, i64 %628
  %630 = load float, float* %629, align 4
  %631 = sext i16 %.24 to i64
  %632 = getelementptr inbounds float, float* %6, i64 %631
  %633 = load float, float* %632, align 4
  %634 = fsub float %630, %633
  %635 = fmul float %398, %613, !taffo.info !24, !taffo.initweight !27
  %636 = fmul float %391, %620, !taffo.info !24, !taffo.initweight !27
  %637 = fsub float %635, %636, !taffo.info !24, !taffo.initweight !28
  %638 = fmul float %620, %627, !taffo.info !24, !taffo.initweight !27
  %639 = fmul float %613, %634, !taffo.info !24, !taffo.initweight !27
  %640 = fsub float %638, %639, !taffo.info !24, !taffo.initweight !28
  br label %642

Flow86:                                           ; preds = %Flow71, %Flow77
  %641 = phi i32 [ %1288, %Flow71 ], [ 1, %Flow77 ]
  br i1 %570, label %584, label %Flow87

; <label>:642:                                    ; preds = %606
  br label %643

; <label>:643:                                    ; preds = %642
  %644 = fcmp ogt float %637, 0.000000e+00, !taffo.info !24, !taffo.initweight !27, !taffo.target !29
  %645 = xor i1 %644, true
  br i1 %644, label %646, label %Flow56

; <label>:646:                                    ; preds = %643
  %647 = fcmp oge float %640, 0.000000e+00, !taffo.info !24, !taffo.initweight !27, !taffo.target !29
  %648 = xor i1 %647, true
  br i1 %647, label %651, label %Flow57

Flow56:                                           ; preds = %Flow57, %643
  %649 = phi i1 [ %654, %Flow57 ], [ false, %643 ]
  %650 = phi i1 [ %655, %Flow57 ], [ %645, %643 ]
  br i1 %650, label %656, label %Flow58

; <label>:651:                                    ; preds = %646
  %652 = fcmp ole float %640, %637, !taffo.info !24, !taffo.initweight !27, !taffo.target !29
  %653 = xor i1 %652, true
  br label %Flow57

Flow57:                                           ; preds = %651, %646
  %654 = phi i1 [ true, %651 ], [ false, %646 ]
  %655 = phi i1 [ %653, %651 ], [ %648, %646 ]
  br label %Flow56

; <label>:656:                                    ; preds = %Flow56
  %657 = fcmp olt float %637, 0.000000e+00, !taffo.info !24, !taffo.initweight !27, !taffo.target !29
  %658 = xor i1 %657, true
  br i1 %657, label %661, label %Flow59

Flow58:                                           ; preds = %Flow59, %Flow56
  %659 = phi i1 [ %664, %Flow59 ], [ false, %Flow56 ]
  %660 = phi i1 [ %665, %Flow59 ], [ %649, %Flow56 ]
  br i1 %660, label %670, label %Flow61

; <label>:661:                                    ; preds = %656
  %662 = fcmp ole float %640, 0.000000e+00, !taffo.info !24, !taffo.initweight !27, !taffo.target !29
  %663 = xor i1 %662, true
  br i1 %662, label %666, label %Flow60

Flow59:                                           ; preds = %Flow60, %656
  %664 = phi i1 [ %668, %Flow60 ], [ %658, %656 ]
  %665 = phi i1 [ %669, %Flow60 ], [ false, %656 ]
  br label %Flow58

; <label>:666:                                    ; preds = %661
  %667 = fcmp oge float %640, %637, !taffo.info !24, !taffo.initweight !27, !taffo.target !29
  br label %Flow60

Flow60:                                           ; preds = %666, %661
  %668 = phi i1 [ true, %666 ], [ %663, %661 ]
  %669 = phi i1 [ %667, %666 ], [ false, %661 ]
  br label %Flow59

; <label>:670:                                    ; preds = %Flow58
  %671 = fmul float %391, %634, !taffo.info !24, !taffo.initweight !27
  %672 = fmul float %398, %627, !taffo.info !24, !taffo.initweight !27
  %673 = fsub float %671, %672, !taffo.info !24, !taffo.initweight !28
  br label %676

Flow61:                                           ; preds = %Flow69, %Flow58
  %674 = phi i1 [ %683, %Flow69 ], [ false, %Flow58 ]
  %675 = phi i1 [ %709, %Flow69 ], [ %659, %Flow58 ]
  br i1 %675, label %710, label %Flow70

; <label>:676:                                    ; preds = %670
  br label %677

; <label>:677:                                    ; preds = %676
  %678 = fcmp ogt float %637, 0.000000e+00, !taffo.info !24, !taffo.initweight !27, !taffo.target !29
  %679 = xor i1 %678, true
  br i1 %679, label %692, label %Flow62

Flow65:                                           ; preds = %702, %Flow64
  br label %Flow62

; <label>:680:                                    ; preds = %Flow62
  %681 = fcmp oge float %673, 0.000000e+00, !taffo.info !24, !taffo.initweight !27, !taffo.target !29
  %682 = xor i1 %681, true
  br i1 %681, label %685, label %Flow67

Flow66:                                           ; preds = %Flow68, %Flow62
  %683 = phi i1 [ %706, %Flow68 ], [ false, %Flow62 ]
  %684 = phi i1 [ %707, %Flow68 ], [ %695, %Flow62 ]
  br i1 %684, label %708, label %Flow69

; <label>:685:                                    ; preds = %680
  %686 = fcmp ole float %673, %637, !taffo.info !24, !taffo.initweight !27, !taffo.target !29
  %687 = xor i1 %686, true
  br label %Flow67

; <label>:688:                                    ; preds = %Flow70
  br label %Flow71

Flow67:                                           ; preds = %685, %680
  %689 = phi i1 [ true, %685 ], [ false, %680 ]
  %690 = phi i1 [ %687, %685 ], [ %682, %680 ]
  br i1 %690, label %691, label %Flow68

; <label>:691:                                    ; preds = %Flow67
  br label %Flow68

; <label>:692:                                    ; preds = %677
  %693 = fcmp ole float %673, 0.000000e+00, !taffo.info !24, !taffo.initweight !27, !taffo.target !29
  %694 = xor i1 %693, true
  br i1 %693, label %697, label %Flow63

Flow62:                                           ; preds = %Flow65, %677
  %695 = phi i1 [ %700, %Flow65 ], [ false, %677 ]
  %696 = phi i1 [ false, %Flow65 ], [ true, %677 ]
  br i1 %696, label %680, label %Flow66

; <label>:697:                                    ; preds = %692
  %698 = fcmp oge float %673, %637, !taffo.info !24, !taffo.initweight !27, !taffo.target !29
  %699 = xor i1 %698, true
  br label %Flow63

Flow64:                                           ; preds = %705, %Flow63
  %700 = phi i1 [ true, %705 ], [ false, %Flow63 ]
  %701 = phi i1 [ false, %705 ], [ %703, %Flow63 ]
  br i1 %701, label %702, label %Flow65

; <label>:702:                                    ; preds = %Flow64
  br label %Flow65

Flow63:                                           ; preds = %697, %692
  %703 = phi i1 [ true, %697 ], [ false, %692 ]
  %704 = phi i1 [ %699, %697 ], [ %694, %692 ]
  br i1 %704, label %705, label %Flow64

; <label>:705:                                    ; preds = %Flow63
  br label %Flow64

Flow68:                                           ; preds = %691, %Flow67
  %706 = phi i1 [ false, %691 ], [ %689, %Flow67 ]
  %707 = phi i1 [ true, %691 ], [ %695, %Flow67 ]
  br label %Flow66

; <label>:708:                                    ; preds = %Flow66
  br label %Flow69

Flow69:                                           ; preds = %708, %Flow66
  %709 = phi i1 [ true, %708 ], [ false, %Flow66 ]
  br label %Flow61

; <label>:710:                                    ; preds = %Flow61
  %711 = sext i16 %.2 to i64
  %712 = getelementptr inbounds float, float* %1, i64 %711
  %713 = load float, float* %712, align 4
  %714 = sext i16 %.2 to i64
  %715 = getelementptr inbounds float, float* %3, i64 %714
  %716 = load float, float* %715, align 4
  %717 = fsub float %713, %716
  %718 = sext i16 %.24 to i64
  %719 = getelementptr inbounds float, float* %1, i64 %718
  %720 = load float, float* %719, align 4
  %721 = sext i16 %.24 to i64
  %722 = getelementptr inbounds float, float* %3, i64 %721
  %723 = load float, float* %722, align 4
  %724 = fsub float %720, %723
  %725 = sext i16 %.2 to i64
  %726 = getelementptr inbounds float, float* %4, i64 %725
  %727 = load float, float* %726, align 4
  %728 = sext i16 %.2 to i64
  %729 = getelementptr inbounds float, float* %5, i64 %728
  %730 = load float, float* %729, align 4
  %731 = fsub float %727, %730
  %732 = sext i16 %.24 to i64
  %733 = getelementptr inbounds float, float* %4, i64 %732
  %734 = load float, float* %733, align 4
  %735 = sext i16 %.24 to i64
  %736 = getelementptr inbounds float, float* %5, i64 %735
  %737 = load float, float* %736, align 4
  %738 = fsub float %734, %737
  %739 = sext i16 %.2 to i64
  %740 = getelementptr inbounds float, float* %3, i64 %739
  %741 = load float, float* %740, align 4
  %742 = sext i16 %.2 to i64
  %743 = getelementptr inbounds float, float* %4, i64 %742
  %744 = load float, float* %743, align 4
  %745 = fsub float %741, %744
  %746 = sext i16 %.24 to i64
  %747 = getelementptr inbounds float, float* %3, i64 %746
  %748 = load float, float* %747, align 4
  %749 = sext i16 %.24 to i64
  %750 = getelementptr inbounds float, float* %4, i64 %749
  %751 = load float, float* %750, align 4
  %752 = fsub float %748, %751
  %753 = fmul float %724, %731, !taffo.info !24, !taffo.initweight !27
  %754 = fmul float %717, %738, !taffo.info !24, !taffo.initweight !27
  %755 = fsub float %753, %754, !taffo.info !24, !taffo.initweight !28
  %756 = fmul float %738, %745, !taffo.info !24, !taffo.initweight !27
  %757 = fmul float %731, %752, !taffo.info !24, !taffo.initweight !27
  %758 = fsub float %756, %757, !taffo.info !24, !taffo.initweight !28
  br label %760

Flow70:                                           ; preds = %Flow55, %Flow61
  %759 = phi i32 [ %1287, %Flow55 ], [ 1, %Flow61 ]
  br i1 %674, label %688, label %Flow71

; <label>:760:                                    ; preds = %710
  br label %761

; <label>:761:                                    ; preds = %760
  %762 = fcmp ogt float %755, 0.000000e+00, !taffo.info !24, !taffo.initweight !27, !taffo.target !29
  %763 = xor i1 %762, true
  br i1 %762, label %764, label %Flow40

; <label>:764:                                    ; preds = %761
  %765 = fcmp oge float %758, 0.000000e+00, !taffo.info !24, !taffo.initweight !27, !taffo.target !29
  %766 = xor i1 %765, true
  br i1 %765, label %769, label %Flow41

Flow40:                                           ; preds = %Flow41, %761
  %767 = phi i1 [ %772, %Flow41 ], [ false, %761 ]
  %768 = phi i1 [ %773, %Flow41 ], [ %763, %761 ]
  br i1 %768, label %774, label %Flow42

; <label>:769:                                    ; preds = %764
  %770 = fcmp ole float %758, %755, !taffo.info !24, !taffo.initweight !27, !taffo.target !29
  %771 = xor i1 %770, true
  br label %Flow41

Flow41:                                           ; preds = %769, %764
  %772 = phi i1 [ true, %769 ], [ false, %764 ]
  %773 = phi i1 [ %771, %769 ], [ %766, %764 ]
  br label %Flow40

; <label>:774:                                    ; preds = %Flow40
  %775 = fcmp olt float %755, 0.000000e+00, !taffo.info !24, !taffo.initweight !27, !taffo.target !29
  %776 = xor i1 %775, true
  br i1 %775, label %779, label %Flow43

Flow42:                                           ; preds = %Flow43, %Flow40
  %777 = phi i1 [ %782, %Flow43 ], [ false, %Flow40 ]
  %778 = phi i1 [ %783, %Flow43 ], [ %767, %Flow40 ]
  br i1 %778, label %788, label %Flow45

; <label>:779:                                    ; preds = %774
  %780 = fcmp ole float %758, 0.000000e+00, !taffo.info !24, !taffo.initweight !27, !taffo.target !29
  %781 = xor i1 %780, true
  br i1 %780, label %784, label %Flow44

Flow43:                                           ; preds = %Flow44, %774
  %782 = phi i1 [ %786, %Flow44 ], [ %776, %774 ]
  %783 = phi i1 [ %787, %Flow44 ], [ false, %774 ]
  br label %Flow42

; <label>:784:                                    ; preds = %779
  %785 = fcmp oge float %758, %755, !taffo.info !24, !taffo.initweight !27, !taffo.target !29
  br label %Flow44

Flow44:                                           ; preds = %784, %779
  %786 = phi i1 [ true, %784 ], [ %781, %779 ]
  %787 = phi i1 [ %785, %784 ], [ false, %779 ]
  br label %Flow43

; <label>:788:                                    ; preds = %Flow42
  %789 = fmul float %717, %752, !taffo.info !24, !taffo.initweight !27
  %790 = fmul float %724, %745, !taffo.info !24, !taffo.initweight !27
  %791 = fsub float %789, %790, !taffo.info !24, !taffo.initweight !28
  br label %794

Flow45:                                           ; preds = %Flow53, %Flow42
  %792 = phi i1 [ %801, %Flow53 ], [ false, %Flow42 ]
  %793 = phi i1 [ %827, %Flow53 ], [ %777, %Flow42 ]
  br i1 %793, label %828, label %Flow54

; <label>:794:                                    ; preds = %788
  br label %795

; <label>:795:                                    ; preds = %794
  %796 = fcmp ogt float %755, 0.000000e+00, !taffo.info !24, !taffo.initweight !27, !taffo.target !29
  %797 = xor i1 %796, true
  br i1 %797, label %810, label %Flow46

Flow49:                                           ; preds = %820, %Flow48
  br label %Flow46

; <label>:798:                                    ; preds = %Flow46
  %799 = fcmp oge float %791, 0.000000e+00, !taffo.info !24, !taffo.initweight !27, !taffo.target !29
  %800 = xor i1 %799, true
  br i1 %799, label %803, label %Flow51

Flow50:                                           ; preds = %Flow52, %Flow46
  %801 = phi i1 [ %824, %Flow52 ], [ false, %Flow46 ]
  %802 = phi i1 [ %825, %Flow52 ], [ %813, %Flow46 ]
  br i1 %802, label %826, label %Flow53

; <label>:803:                                    ; preds = %798
  %804 = fcmp ole float %791, %755, !taffo.info !24, !taffo.initweight !27, !taffo.target !29
  %805 = xor i1 %804, true
  br label %Flow51

; <label>:806:                                    ; preds = %Flow54
  br label %Flow55

Flow51:                                           ; preds = %803, %798
  %807 = phi i1 [ true, %803 ], [ false, %798 ]
  %808 = phi i1 [ %805, %803 ], [ %800, %798 ]
  br i1 %808, label %809, label %Flow52

; <label>:809:                                    ; preds = %Flow51
  br label %Flow52

; <label>:810:                                    ; preds = %795
  %811 = fcmp ole float %791, 0.000000e+00, !taffo.info !24, !taffo.initweight !27, !taffo.target !29
  %812 = xor i1 %811, true
  br i1 %811, label %815, label %Flow47

Flow46:                                           ; preds = %Flow49, %795
  %813 = phi i1 [ %818, %Flow49 ], [ false, %795 ]
  %814 = phi i1 [ false, %Flow49 ], [ true, %795 ]
  br i1 %814, label %798, label %Flow50

; <label>:815:                                    ; preds = %810
  %816 = fcmp oge float %791, %755, !taffo.info !24, !taffo.initweight !27, !taffo.target !29
  %817 = xor i1 %816, true
  br label %Flow47

Flow48:                                           ; preds = %823, %Flow47
  %818 = phi i1 [ true, %823 ], [ false, %Flow47 ]
  %819 = phi i1 [ false, %823 ], [ %821, %Flow47 ]
  br i1 %819, label %820, label %Flow49

; <label>:820:                                    ; preds = %Flow48
  br label %Flow49

Flow47:                                           ; preds = %815, %810
  %821 = phi i1 [ true, %815 ], [ false, %810 ]
  %822 = phi i1 [ %817, %815 ], [ %812, %810 ]
  br i1 %822, label %823, label %Flow48

; <label>:823:                                    ; preds = %Flow47
  br label %Flow48

Flow52:                                           ; preds = %809, %Flow51
  %824 = phi i1 [ false, %809 ], [ %807, %Flow51 ]
  %825 = phi i1 [ true, %809 ], [ %813, %Flow51 ]
  br label %Flow50

; <label>:826:                                    ; preds = %Flow50
  br label %Flow53

Flow53:                                           ; preds = %826, %Flow50
  %827 = phi i1 [ true, %826 ], [ false, %Flow50 ]
  br label %Flow45

; <label>:828:                                    ; preds = %Flow45
  %829 = sext i16 %.2 to i64
  %830 = getelementptr inbounds float, float* %5, i64 %829
  %831 = load float, float* %830, align 4
  %832 = sext i16 %.2 to i64
  %833 = getelementptr inbounds float, float* %6, i64 %832
  %834 = load float, float* %833, align 4
  %835 = fsub float %831, %834
  %836 = sext i16 %.24 to i64
  %837 = getelementptr inbounds float, float* %5, i64 %836
  %838 = load float, float* %837, align 4
  %839 = sext i16 %.24 to i64
  %840 = getelementptr inbounds float, float* %6, i64 %839
  %841 = load float, float* %840, align 4
  %842 = fsub float %838, %841
  %843 = sext i16 %.2 to i64
  %844 = getelementptr inbounds float, float* %3, i64 %843
  %845 = load float, float* %844, align 4
  %846 = sext i16 %.2 to i64
  %847 = getelementptr inbounds float, float* %5, i64 %846
  %848 = load float, float* %847, align 4
  %849 = fsub float %845, %848
  %850 = sext i16 %.24 to i64
  %851 = getelementptr inbounds float, float* %3, i64 %850
  %852 = load float, float* %851, align 4
  %853 = sext i16 %.24 to i64
  %854 = getelementptr inbounds float, float* %5, i64 %853
  %855 = load float, float* %854, align 4
  %856 = fsub float %852, %855
  %857 = fmul float %724, %835, !taffo.info !24, !taffo.initweight !27
  %858 = fmul float %717, %842, !taffo.info !24, !taffo.initweight !27
  %859 = fsub float %857, %858, !taffo.info !24, !taffo.initweight !28
  %860 = fmul float %842, %849, !taffo.info !24, !taffo.initweight !27
  %861 = fmul float %835, %856, !taffo.info !24, !taffo.initweight !27
  %862 = fsub float %860, %861, !taffo.info !24, !taffo.initweight !28
  br label %864

Flow54:                                           ; preds = %Flow39, %Flow45
  %863 = phi i32 [ %1286, %Flow39 ], [ 1, %Flow45 ]
  br i1 %792, label %806, label %Flow55

; <label>:864:                                    ; preds = %828
  br label %865

; <label>:865:                                    ; preds = %864
  %866 = fcmp ogt float %859, 0.000000e+00, !taffo.info !24, !taffo.initweight !27, !taffo.target !29
  %867 = xor i1 %866, true
  br i1 %866, label %868, label %Flow24

; <label>:868:                                    ; preds = %865
  %869 = fcmp oge float %862, 0.000000e+00, !taffo.info !24, !taffo.initweight !27, !taffo.target !29
  %870 = xor i1 %869, true
  br i1 %869, label %873, label %Flow25

Flow24:                                           ; preds = %Flow25, %865
  %871 = phi i1 [ %876, %Flow25 ], [ false, %865 ]
  %872 = phi i1 [ %877, %Flow25 ], [ %867, %865 ]
  br i1 %872, label %878, label %Flow26

; <label>:873:                                    ; preds = %868
  %874 = fcmp ole float %862, %859, !taffo.info !24, !taffo.initweight !27, !taffo.target !29
  %875 = xor i1 %874, true
  br label %Flow25

Flow25:                                           ; preds = %873, %868
  %876 = phi i1 [ true, %873 ], [ false, %868 ]
  %877 = phi i1 [ %875, %873 ], [ %870, %868 ]
  br label %Flow24

; <label>:878:                                    ; preds = %Flow24
  %879 = fcmp olt float %859, 0.000000e+00, !taffo.info !24, !taffo.initweight !27, !taffo.target !29
  %880 = xor i1 %879, true
  br i1 %879, label %883, label %Flow27

Flow26:                                           ; preds = %Flow27, %Flow24
  %881 = phi i1 [ %886, %Flow27 ], [ false, %Flow24 ]
  %882 = phi i1 [ %887, %Flow27 ], [ %871, %Flow24 ]
  br i1 %882, label %892, label %Flow29

; <label>:883:                                    ; preds = %878
  %884 = fcmp ole float %862, 0.000000e+00, !taffo.info !24, !taffo.initweight !27, !taffo.target !29
  %885 = xor i1 %884, true
  br i1 %884, label %888, label %Flow28

Flow27:                                           ; preds = %Flow28, %878
  %886 = phi i1 [ %890, %Flow28 ], [ %880, %878 ]
  %887 = phi i1 [ %891, %Flow28 ], [ false, %878 ]
  br label %Flow26

; <label>:888:                                    ; preds = %883
  %889 = fcmp oge float %862, %859, !taffo.info !24, !taffo.initweight !27, !taffo.target !29
  br label %Flow28

Flow28:                                           ; preds = %888, %883
  %890 = phi i1 [ true, %888 ], [ %885, %883 ]
  %891 = phi i1 [ %889, %888 ], [ false, %883 ]
  br label %Flow27

; <label>:892:                                    ; preds = %Flow26
  %893 = fmul float %717, %856, !taffo.info !24, !taffo.initweight !27
  %894 = fmul float %724, %849, !taffo.info !24, !taffo.initweight !27
  %895 = fsub float %893, %894, !taffo.info !24, !taffo.initweight !28
  br label %898

Flow29:                                           ; preds = %Flow37, %Flow26
  %896 = phi i1 [ %905, %Flow37 ], [ false, %Flow26 ]
  %897 = phi i1 [ %931, %Flow37 ], [ %881, %Flow26 ]
  br i1 %897, label %932, label %Flow38

; <label>:898:                                    ; preds = %892
  br label %899

; <label>:899:                                    ; preds = %898
  %900 = fcmp ogt float %859, 0.000000e+00, !taffo.info !24, !taffo.initweight !27, !taffo.target !29
  %901 = xor i1 %900, true
  br i1 %901, label %914, label %Flow30

Flow33:                                           ; preds = %924, %Flow32
  br label %Flow30

; <label>:902:                                    ; preds = %Flow30
  %903 = fcmp oge float %895, 0.000000e+00, !taffo.info !24, !taffo.initweight !27, !taffo.target !29
  %904 = xor i1 %903, true
  br i1 %903, label %907, label %Flow35

Flow34:                                           ; preds = %Flow36, %Flow30
  %905 = phi i1 [ %928, %Flow36 ], [ false, %Flow30 ]
  %906 = phi i1 [ %929, %Flow36 ], [ %917, %Flow30 ]
  br i1 %906, label %930, label %Flow37

; <label>:907:                                    ; preds = %902
  %908 = fcmp ole float %895, %859, !taffo.info !24, !taffo.initweight !27, !taffo.target !29
  %909 = xor i1 %908, true
  br label %Flow35

; <label>:910:                                    ; preds = %Flow38
  br label %Flow39

Flow35:                                           ; preds = %907, %902
  %911 = phi i1 [ true, %907 ], [ false, %902 ]
  %912 = phi i1 [ %909, %907 ], [ %904, %902 ]
  br i1 %912, label %913, label %Flow36

; <label>:913:                                    ; preds = %Flow35
  br label %Flow36

; <label>:914:                                    ; preds = %899
  %915 = fcmp ole float %895, 0.000000e+00, !taffo.info !24, !taffo.initweight !27, !taffo.target !29
  %916 = xor i1 %915, true
  br i1 %915, label %919, label %Flow31

Flow30:                                           ; preds = %Flow33, %899
  %917 = phi i1 [ %922, %Flow33 ], [ false, %899 ]
  %918 = phi i1 [ false, %Flow33 ], [ true, %899 ]
  br i1 %918, label %902, label %Flow34

; <label>:919:                                    ; preds = %914
  %920 = fcmp oge float %895, %859, !taffo.info !24, !taffo.initweight !27, !taffo.target !29
  %921 = xor i1 %920, true
  br label %Flow31

Flow32:                                           ; preds = %927, %Flow31
  %922 = phi i1 [ true, %927 ], [ false, %Flow31 ]
  %923 = phi i1 [ false, %927 ], [ %925, %Flow31 ]
  br i1 %923, label %924, label %Flow33

; <label>:924:                                    ; preds = %Flow32
  br label %Flow33

Flow31:                                           ; preds = %919, %914
  %925 = phi i1 [ true, %919 ], [ false, %914 ]
  %926 = phi i1 [ %921, %919 ], [ %916, %914 ]
  br i1 %926, label %927, label %Flow32

; <label>:927:                                    ; preds = %Flow31
  br label %Flow32

Flow36:                                           ; preds = %913, %Flow35
  %928 = phi i1 [ false, %913 ], [ %911, %Flow35 ]
  %929 = phi i1 [ true, %913 ], [ %917, %Flow35 ]
  br label %Flow34

; <label>:930:                                    ; preds = %Flow34
  br label %Flow37

Flow37:                                           ; preds = %930, %Flow34
  %931 = phi i1 [ true, %930 ], [ false, %Flow34 ]
  br label %Flow29

; <label>:932:                                    ; preds = %Flow29
  %933 = sext i16 %.2 to i64
  %934 = getelementptr inbounds float, float* %6, i64 %933
  %935 = load float, float* %934, align 4
  %936 = sext i16 %.2 to i64
  %937 = getelementptr inbounds float, float* %4, i64 %936
  %938 = load float, float* %937, align 4
  %939 = fsub float %935, %938
  %940 = sext i16 %.24 to i64
  %941 = getelementptr inbounds float, float* %6, i64 %940
  %942 = load float, float* %941, align 4
  %943 = sext i16 %.24 to i64
  %944 = getelementptr inbounds float, float* %4, i64 %943
  %945 = load float, float* %944, align 4
  %946 = fsub float %942, %945
  %947 = sext i16 %.2 to i64
  %948 = getelementptr inbounds float, float* %3, i64 %947
  %949 = load float, float* %948, align 4
  %950 = sext i16 %.2 to i64
  %951 = getelementptr inbounds float, float* %6, i64 %950
  %952 = load float, float* %951, align 4
  %953 = fsub float %949, %952
  %954 = sext i16 %.24 to i64
  %955 = getelementptr inbounds float, float* %3, i64 %954
  %956 = load float, float* %955, align 4
  %957 = sext i16 %.24 to i64
  %958 = getelementptr inbounds float, float* %6, i64 %957
  %959 = load float, float* %958, align 4
  %960 = fsub float %956, %959
  %961 = fmul float %724, %939, !taffo.info !24, !taffo.initweight !27
  %962 = fmul float %717, %946, !taffo.info !24, !taffo.initweight !27
  %963 = fsub float %961, %962, !taffo.info !24, !taffo.initweight !28
  %964 = fmul float %946, %953, !taffo.info !24, !taffo.initweight !27
  %965 = fmul float %939, %960, !taffo.info !24, !taffo.initweight !27
  %966 = fsub float %964, %965, !taffo.info !24, !taffo.initweight !28
  br label %968

Flow38:                                           ; preds = %Flow23, %Flow29
  %967 = phi i32 [ %1285, %Flow23 ], [ 1, %Flow29 ]
  br i1 %896, label %910, label %Flow39

; <label>:968:                                    ; preds = %932
  br label %969

; <label>:969:                                    ; preds = %968
  %970 = fcmp ogt float %963, 0.000000e+00, !taffo.info !24, !taffo.initweight !27, !taffo.target !29
  %971 = xor i1 %970, true
  br i1 %970, label %972, label %Flow8

; <label>:972:                                    ; preds = %969
  %973 = fcmp oge float %966, 0.000000e+00, !taffo.info !24, !taffo.initweight !27, !taffo.target !29
  %974 = xor i1 %973, true
  br i1 %973, label %977, label %Flow9

Flow8:                                            ; preds = %Flow9, %969
  %975 = phi i1 [ %980, %Flow9 ], [ false, %969 ]
  %976 = phi i1 [ %981, %Flow9 ], [ %971, %969 ]
  br i1 %976, label %982, label %Flow10

; <label>:977:                                    ; preds = %972
  %978 = fcmp ole float %966, %963, !taffo.info !24, !taffo.initweight !27, !taffo.target !29
  %979 = xor i1 %978, true
  br label %Flow9

Flow9:                                            ; preds = %977, %972
  %980 = phi i1 [ true, %977 ], [ false, %972 ]
  %981 = phi i1 [ %979, %977 ], [ %974, %972 ]
  br label %Flow8

; <label>:982:                                    ; preds = %Flow8
  %983 = fcmp olt float %963, 0.000000e+00, !taffo.info !24, !taffo.initweight !27, !taffo.target !29
  %984 = xor i1 %983, true
  br i1 %983, label %987, label %Flow11

Flow10:                                           ; preds = %Flow11, %Flow8
  %985 = phi i1 [ %990, %Flow11 ], [ false, %Flow8 ]
  %986 = phi i1 [ %991, %Flow11 ], [ %975, %Flow8 ]
  br i1 %986, label %996, label %Flow13

; <label>:987:                                    ; preds = %982
  %988 = fcmp ole float %966, 0.000000e+00, !taffo.info !24, !taffo.initweight !27, !taffo.target !29
  %989 = xor i1 %988, true
  br i1 %988, label %992, label %Flow12

Flow11:                                           ; preds = %Flow12, %982
  %990 = phi i1 [ %994, %Flow12 ], [ %984, %982 ]
  %991 = phi i1 [ %995, %Flow12 ], [ false, %982 ]
  br label %Flow10

; <label>:992:                                    ; preds = %987
  %993 = fcmp oge float %966, %963, !taffo.info !24, !taffo.initweight !27, !taffo.target !29
  br label %Flow12

Flow12:                                           ; preds = %992, %987
  %994 = phi i1 [ true, %992 ], [ %989, %987 ]
  %995 = phi i1 [ %993, %992 ], [ false, %987 ]
  br label %Flow11

; <label>:996:                                    ; preds = %Flow10
  %997 = fmul float %717, %960, !taffo.info !24, !taffo.initweight !27
  %998 = fmul float %724, %953, !taffo.info !24, !taffo.initweight !27
  %999 = fsub float %997, %998, !taffo.info !24, !taffo.initweight !28
  br label %1002

Flow13:                                           ; preds = %Flow21, %Flow10
  %1000 = phi i1 [ %1009, %Flow21 ], [ false, %Flow10 ]
  %1001 = phi i1 [ %1035, %Flow21 ], [ %985, %Flow10 ]
  br i1 %1001, label %1036, label %Flow22

; <label>:1002:                                   ; preds = %996
  br label %1003

; <label>:1003:                                   ; preds = %1002
  %1004 = fcmp ogt float %963, 0.000000e+00, !taffo.info !24, !taffo.initweight !27, !taffo.target !29
  %1005 = xor i1 %1004, true
  br i1 %1005, label %1018, label %Flow14

Flow17:                                           ; preds = %1028, %Flow16
  br label %Flow14

; <label>:1006:                                   ; preds = %Flow14
  %1007 = fcmp oge float %999, 0.000000e+00, !taffo.info !24, !taffo.initweight !27, !taffo.target !29
  %1008 = xor i1 %1007, true
  br i1 %1007, label %1011, label %Flow19

Flow18:                                           ; preds = %Flow20, %Flow14
  %1009 = phi i1 [ %1032, %Flow20 ], [ false, %Flow14 ]
  %1010 = phi i1 [ %1033, %Flow20 ], [ %1021, %Flow14 ]
  br i1 %1010, label %1034, label %Flow21

; <label>:1011:                                   ; preds = %1006
  %1012 = fcmp ole float %999, %963, !taffo.info !24, !taffo.initweight !27, !taffo.target !29
  %1013 = xor i1 %1012, true
  br label %Flow19

; <label>:1014:                                   ; preds = %Flow22
  br label %Flow23

Flow19:                                           ; preds = %1011, %1006
  %1015 = phi i1 [ true, %1011 ], [ false, %1006 ]
  %1016 = phi i1 [ %1013, %1011 ], [ %1008, %1006 ]
  br i1 %1016, label %1017, label %Flow20

; <label>:1017:                                   ; preds = %Flow19
  br label %Flow20

; <label>:1018:                                   ; preds = %1003
  %1019 = fcmp ole float %999, 0.000000e+00, !taffo.info !24, !taffo.initweight !27, !taffo.target !29
  %1020 = xor i1 %1019, true
  br i1 %1019, label %1023, label %Flow15

Flow14:                                           ; preds = %Flow17, %1003
  %1021 = phi i1 [ %1026, %Flow17 ], [ false, %1003 ]
  %1022 = phi i1 [ false, %Flow17 ], [ true, %1003 ]
  br i1 %1022, label %1006, label %Flow18

; <label>:1023:                                   ; preds = %1018
  %1024 = fcmp oge float %999, %963, !taffo.info !24, !taffo.initweight !27, !taffo.target !29
  %1025 = xor i1 %1024, true
  br label %Flow15

Flow16:                                           ; preds = %1031, %Flow15
  %1026 = phi i1 [ true, %1031 ], [ false, %Flow15 ]
  %1027 = phi i1 [ false, %1031 ], [ %1029, %Flow15 ]
  br i1 %1027, label %1028, label %Flow17

; <label>:1028:                                   ; preds = %Flow16
  br label %Flow17

Flow15:                                           ; preds = %1023, %1018
  %1029 = phi i1 [ true, %1023 ], [ false, %1018 ]
  %1030 = phi i1 [ %1025, %1023 ], [ %1020, %1018 ]
  br i1 %1030, label %1031, label %Flow16

; <label>:1031:                                   ; preds = %Flow15
  br label %Flow16

Flow20:                                           ; preds = %1017, %Flow19
  %1032 = phi i1 [ false, %1017 ], [ %1015, %Flow19 ]
  %1033 = phi i1 [ true, %1017 ], [ %1021, %Flow19 ]
  br label %Flow18

; <label>:1034:                                   ; preds = %Flow18
  br label %Flow21

Flow21:                                           ; preds = %1034, %Flow18
  %1035 = phi i1 [ true, %1034 ], [ false, %Flow18 ]
  br label %Flow13

; <label>:1036:                                   ; preds = %Flow13
  %1037 = sext i16 %.24 to i64
  %1038 = getelementptr inbounds float, float* %5, i64 %1037
  %1039 = load float, float* %1038, align 4
  %1040 = sext i16 %.24 to i64
  %1041 = getelementptr inbounds float, float* %4, i64 %1040
  %1042 = load float, float* %1041, align 4
  %1043 = fsub float %1039, %1042
  %1044 = sext i16 %.2 to i64
  %1045 = getelementptr inbounds float, float* %5, i64 %1044
  %1046 = load float, float* %1045, align 4
  %1047 = sext i16 %.2 to i64
  %1048 = getelementptr inbounds float, float* %4, i64 %1047
  %1049 = load float, float* %1048, align 4
  %1050 = fsub float %1046, %1049
  %1051 = fsub float -0.000000e+00, %1050, !taffo.constinfo !30
  %1052 = fsub float -0.000000e+00, %1043, !taffo.info !24, !taffo.initweight !27, !taffo.constinfo !30
  %1053 = sext i16 %.2 to i64
  %1054 = getelementptr inbounds float, float* %4, i64 %1053
  %1055 = load float, float* %1054, align 4
  %1056 = fmul float %1052, %1055, !taffo.info !24, !taffo.initweight !28
  %1057 = sext i16 %.24 to i64
  %1058 = getelementptr inbounds float, float* %4, i64 %1057
  %1059 = load float, float* %1058, align 4
  %1060 = fmul float %1051, %1059, !taffo.info !24, !taffo.initweight !27
  %1061 = fsub float %1056, %1060, !taffo.info !24, !taffo.initweight !28
  %1062 = sext i16 %.2 to i64
  %1063 = getelementptr inbounds float, float* %1, i64 %1062
  %1064 = load float, float* %1063, align 4
  %1065 = fmul float %1043, %1064, !taffo.info !24, !taffo.initweight !27
  %1066 = sext i16 %.24 to i64
  %1067 = getelementptr inbounds float, float* %1, i64 %1066
  %1068 = load float, float* %1067, align 4
  %1069 = fmul float %1051, %1068, !taffo.info !24, !taffo.initweight !27
  %1070 = fadd float %1065, %1069, !taffo.info !24, !taffo.initweight !28
  %1071 = fadd float %1070, %1061, !taffo.info !24, !taffo.initweight !27
  %1072 = sext i16 %.24 to i64
  %1073 = getelementptr inbounds float, float* %6, i64 %1072
  %1074 = load float, float* %1073, align 4
  %1075 = sext i16 %.24 to i64
  %1076 = getelementptr inbounds float, float* %5, i64 %1075
  %1077 = load float, float* %1076, align 4
  %1078 = fsub float %1074, %1077
  %1079 = sext i16 %.2 to i64
  %1080 = getelementptr inbounds float, float* %6, i64 %1079
  %1081 = load float, float* %1080, align 4
  %1082 = sext i16 %.2 to i64
  %1083 = getelementptr inbounds float, float* %5, i64 %1082
  %1084 = load float, float* %1083, align 4
  %1085 = fsub float %1081, %1084
  %1086 = fsub float -0.000000e+00, %1085, !taffo.constinfo !30
  %1087 = fsub float -0.000000e+00, %1078, !taffo.info !24, !taffo.initweight !27, !taffo.constinfo !30
  %1088 = sext i16 %.2 to i64
  %1089 = getelementptr inbounds float, float* %5, i64 %1088
  %1090 = load float, float* %1089, align 4
  %1091 = fmul float %1087, %1090, !taffo.info !24, !taffo.initweight !28
  %1092 = sext i16 %.24 to i64
  %1093 = getelementptr inbounds float, float* %5, i64 %1092
  %1094 = load float, float* %1093, align 4
  %1095 = fmul float %1086, %1094, !taffo.info !24, !taffo.initweight !27
  %1096 = fsub float %1091, %1095, !taffo.info !24, !taffo.initweight !28
  %1097 = sext i16 %.2 to i64
  %1098 = getelementptr inbounds float, float* %1, i64 %1097
  %1099 = load float, float* %1098, align 4
  %1100 = fmul float %1078, %1099, !taffo.info !24, !taffo.initweight !27
  %1101 = sext i16 %.24 to i64
  %1102 = getelementptr inbounds float, float* %1, i64 %1101
  %1103 = load float, float* %1102, align 4
  %1104 = fmul float %1086, %1103, !taffo.info !24, !taffo.initweight !27
  %1105 = fadd float %1100, %1104, !taffo.info !24, !taffo.initweight !28
  %1106 = fadd float %1105, %1096, !taffo.info !24, !taffo.initweight !27
  %1107 = sext i16 %.24 to i64
  %1108 = getelementptr inbounds float, float* %4, i64 %1107
  %1109 = load float, float* %1108, align 4
  %1110 = sext i16 %.24 to i64
  %1111 = getelementptr inbounds float, float* %6, i64 %1110
  %1112 = load float, float* %1111, align 4
  %1113 = fsub float %1109, %1112
  %1114 = sext i16 %.2 to i64
  %1115 = getelementptr inbounds float, float* %4, i64 %1114
  %1116 = load float, float* %1115, align 4
  %1117 = sext i16 %.2 to i64
  %1118 = getelementptr inbounds float, float* %6, i64 %1117
  %1119 = load float, float* %1118, align 4
  %1120 = fsub float %1116, %1119
  %1121 = fsub float -0.000000e+00, %1120, !taffo.constinfo !30
  %1122 = fsub float -0.000000e+00, %1113, !taffo.info !24, !taffo.initweight !27, !taffo.constinfo !30
  %1123 = sext i16 %.2 to i64
  %1124 = getelementptr inbounds float, float* %6, i64 %1123
  %1125 = load float, float* %1124, align 4
  %1126 = fmul float %1122, %1125, !taffo.info !24, !taffo.initweight !28
  %1127 = sext i16 %.24 to i64
  %1128 = getelementptr inbounds float, float* %6, i64 %1127
  %1129 = load float, float* %1128, align 4
  %1130 = fmul float %1121, %1129, !taffo.info !24, !taffo.initweight !27
  %1131 = fsub float %1126, %1130, !taffo.info !24, !taffo.initweight !28
  %1132 = sext i16 %.2 to i64
  %1133 = getelementptr inbounds float, float* %1, i64 %1132
  %1134 = load float, float* %1133, align 4
  %1135 = fmul float %1113, %1134, !taffo.info !24, !taffo.initweight !27
  %1136 = sext i16 %.24 to i64
  %1137 = getelementptr inbounds float, float* %1, i64 %1136
  %1138 = load float, float* %1137, align 4
  %1139 = fmul float %1121, %1138, !taffo.info !24, !taffo.initweight !27
  %1140 = fadd float %1135, %1139, !taffo.info !24, !taffo.initweight !28
  %1141 = fadd float %1140, %1131, !taffo.info !24, !taffo.initweight !27
  %1142 = fmul float %1071, %1106, !taffo.info !24, !taffo.initweight !27
  %1143 = fmul float %1071, %1141, !taffo.info !24, !taffo.initweight !27
  br label %1145

Flow22:                                           ; preds = %Flow7, %Flow13
  %1144 = phi i32 [ %1284, %Flow7 ], [ 1, %Flow13 ]
  br i1 %1000, label %1014, label %Flow23

; <label>:1145:                                   ; preds = %1036
  br label %1146

; <label>:1146:                                   ; preds = %1145
  %1147 = fpext float %1142 to double, !taffo.info !24, !taffo.initweight !27, !taffo.target !33
  %1148 = fcmp ogt double %1147, 0.000000e+00, !taffo.info !24, !taffo.initweight !28, !taffo.target !33
  br i1 %1148, label %1149, label %Flow4

; <label>:1149:                                   ; preds = %1146
  %1150 = fpext float %1143 to double, !taffo.info !24, !taffo.initweight !27, !taffo.target !33
  %1151 = fcmp ogt double %1150, 0.000000e+00, !taffo.info !24, !taffo.initweight !28, !taffo.target !33
  %1152 = xor i1 %1151, true
  br i1 %1152, label %1156, label %Flow5

; <label>:1153:                                   ; preds = %Flow6
  br label %Flow7

Flow4:                                            ; preds = %Flow5, %1146
  %1154 = phi i1 [ %1157, %Flow5 ], [ false, %1146 ]
  %1155 = phi i1 [ %1158, %Flow5 ], [ true, %1146 ]
  br i1 %1155, label %1159, label %Flow6

; <label>:1156:                                   ; preds = %1149
  br label %Flow5

Flow5:                                            ; preds = %1156, %1149
  %1157 = phi i1 [ false, %1156 ], [ true, %1149 ]
  %1158 = phi i1 [ true, %1156 ], [ false, %1149 ]
  br label %Flow4

; <label>:1159:                                   ; preds = %Flow4
  %1160 = sext i16 %.24 to i64
  %1161 = getelementptr inbounds float, float* %2, i64 %1160
  %1162 = load float, float* %1161, align 4
  %1163 = sext i16 %.24 to i64
  %1164 = getelementptr inbounds float, float* %1, i64 %1163
  %1165 = load float, float* %1164, align 4
  %1166 = fsub float %1162, %1165
  %1167 = sext i16 %.2 to i64
  %1168 = getelementptr inbounds float, float* %2, i64 %1167
  %1169 = load float, float* %1168, align 4
  %1170 = sext i16 %.2 to i64
  %1171 = getelementptr inbounds float, float* %1, i64 %1170
  %1172 = load float, float* %1171, align 4
  %1173 = fsub float %1169, %1172
  %1174 = fsub float -0.000000e+00, %1173, !taffo.constinfo !30
  %1175 = fsub float -0.000000e+00, %1166, !taffo.info !24, !taffo.initweight !27, !taffo.constinfo !30
  %1176 = sext i16 %.2 to i64
  %1177 = getelementptr inbounds float, float* %1, i64 %1176
  %1178 = load float, float* %1177, align 4
  %1179 = fmul float %1175, %1178, !taffo.info !24, !taffo.initweight !28
  %1180 = sext i16 %.24 to i64
  %1181 = getelementptr inbounds float, float* %1, i64 %1180
  %1182 = load float, float* %1181, align 4
  %1183 = fmul float %1174, %1182, !taffo.info !24, !taffo.initweight !27
  %1184 = fsub float %1179, %1183, !taffo.info !24, !taffo.initweight !28
  %1185 = sext i16 %.2 to i64
  %1186 = getelementptr inbounds float, float* %4, i64 %1185
  %1187 = load float, float* %1186, align 4
  %1188 = fmul float %1166, %1187, !taffo.info !24, !taffo.initweight !27
  %1189 = sext i16 %.24 to i64
  %1190 = getelementptr inbounds float, float* %4, i64 %1189
  %1191 = load float, float* %1190, align 4
  %1192 = fmul float %1174, %1191, !taffo.info !24, !taffo.initweight !27
  %1193 = fadd float %1188, %1192, !taffo.info !24, !taffo.initweight !28
  %1194 = fadd float %1193, %1184, !taffo.info !24, !taffo.initweight !27
  %1195 = sext i16 %.24 to i64
  %1196 = getelementptr inbounds float, float* %3, i64 %1195
  %1197 = load float, float* %1196, align 4
  %1198 = sext i16 %.24 to i64
  %1199 = getelementptr inbounds float, float* %2, i64 %1198
  %1200 = load float, float* %1199, align 4
  %1201 = fsub float %1197, %1200
  %1202 = sext i16 %.2 to i64
  %1203 = getelementptr inbounds float, float* %3, i64 %1202
  %1204 = load float, float* %1203, align 4
  %1205 = sext i16 %.2 to i64
  %1206 = getelementptr inbounds float, float* %2, i64 %1205
  %1207 = load float, float* %1206, align 4
  %1208 = fsub float %1204, %1207
  %1209 = fsub float -0.000000e+00, %1208, !taffo.constinfo !30
  %1210 = fsub float -0.000000e+00, %1201, !taffo.info !24, !taffo.initweight !27, !taffo.constinfo !30
  %1211 = sext i16 %.2 to i64
  %1212 = getelementptr inbounds float, float* %2, i64 %1211
  %1213 = load float, float* %1212, align 4
  %1214 = fmul float %1210, %1213, !taffo.info !24, !taffo.initweight !28
  %1215 = sext i16 %.24 to i64
  %1216 = getelementptr inbounds float, float* %2, i64 %1215
  %1217 = load float, float* %1216, align 4
  %1218 = fmul float %1209, %1217, !taffo.info !24, !taffo.initweight !27
  %1219 = fsub float %1214, %1218, !taffo.info !24, !taffo.initweight !28
  %1220 = sext i16 %.2 to i64
  %1221 = getelementptr inbounds float, float* %4, i64 %1220
  %1222 = load float, float* %1221, align 4
  %1223 = fmul float %1201, %1222, !taffo.info !24, !taffo.initweight !27
  %1224 = sext i16 %.24 to i64
  %1225 = getelementptr inbounds float, float* %4, i64 %1224
  %1226 = load float, float* %1225, align 4
  %1227 = fmul float %1209, %1226, !taffo.info !24, !taffo.initweight !27
  %1228 = fadd float %1223, %1227, !taffo.info !24, !taffo.initweight !28
  %1229 = fadd float %1228, %1219, !taffo.info !24, !taffo.initweight !27
  %1230 = sext i16 %.24 to i64
  %1231 = getelementptr inbounds float, float* %1, i64 %1230
  %1232 = load float, float* %1231, align 4
  %1233 = sext i16 %.24 to i64
  %1234 = getelementptr inbounds float, float* %3, i64 %1233
  %1235 = load float, float* %1234, align 4
  %1236 = fsub float %1232, %1235
  %1237 = sext i16 %.2 to i64
  %1238 = getelementptr inbounds float, float* %1, i64 %1237
  %1239 = load float, float* %1238, align 4
  %1240 = sext i16 %.2 to i64
  %1241 = getelementptr inbounds float, float* %3, i64 %1240
  %1242 = load float, float* %1241, align 4
  %1243 = fsub float %1239, %1242
  %1244 = fsub float -0.000000e+00, %1243, !taffo.constinfo !30
  %1245 = fsub float -0.000000e+00, %1236, !taffo.info !24, !taffo.initweight !27, !taffo.constinfo !30
  %1246 = sext i16 %.2 to i64
  %1247 = getelementptr inbounds float, float* %3, i64 %1246
  %1248 = load float, float* %1247, align 4
  %1249 = fmul float %1245, %1248, !taffo.info !24, !taffo.initweight !28
  %1250 = sext i16 %.24 to i64
  %1251 = getelementptr inbounds float, float* %3, i64 %1250
  %1252 = load float, float* %1251, align 4
  %1253 = fmul float %1244, %1252, !taffo.info !24, !taffo.initweight !27
  %1254 = fsub float %1249, %1253, !taffo.info !24, !taffo.initweight !28
  %1255 = sext i16 %.2 to i64
  %1256 = getelementptr inbounds float, float* %4, i64 %1255
  %1257 = load float, float* %1256, align 4
  %1258 = fmul float %1236, %1257, !taffo.info !24, !taffo.initweight !27
  %1259 = sext i16 %.24 to i64
  %1260 = getelementptr inbounds float, float* %4, i64 %1259
  %1261 = load float, float* %1260, align 4
  %1262 = fmul float %1244, %1261, !taffo.info !24, !taffo.initweight !27
  %1263 = fadd float %1258, %1262, !taffo.info !24, !taffo.initweight !28
  %1264 = fadd float %1263, %1254, !taffo.info !24, !taffo.initweight !27
  %1265 = fmul float %1194, %1229, !taffo.info !24, !taffo.initweight !27
  %1266 = fmul float %1194, %1264, !taffo.info !24, !taffo.initweight !27
  br label %1268

Flow6:                                            ; preds = %Flow3, %Flow4
  %1267 = phi i32 [ %1283, %Flow3 ], [ undef, %Flow4 ]
  br i1 %1154, label %1153, label %Flow7

; <label>:1268:                                   ; preds = %1159
  br label %1269

; <label>:1269:                                   ; preds = %1268
  %1270 = fpext float %1265 to double, !taffo.info !24, !taffo.initweight !27, !taffo.target !33
  %1271 = fcmp ogt double %1270, 0.000000e+00, !taffo.info !24, !taffo.initweight !28, !taffo.target !33
  br i1 %1271, label %1272, label %Flow

; <label>:1272:                                   ; preds = %1269
  %1273 = fpext float %1266 to double, !taffo.info !24, !taffo.initweight !27, !taffo.target !33
  %1274 = fcmp ogt double %1273, 0.000000e+00, !taffo.info !24, !taffo.initweight !28, !taffo.target !33
  %1275 = xor i1 %1274, true
  br i1 %1275, label %1279, label %Flow1

Flow2:                                            ; preds = %1282, %Flow
  br i1 %1277, label %1276, label %Flow3

; <label>:1276:                                   ; preds = %Flow2
  br label %Flow3

Flow:                                             ; preds = %Flow1, %1269
  %1277 = phi i1 [ %1280, %Flow1 ], [ false, %1269 ]
  %1278 = phi i1 [ %1281, %Flow1 ], [ true, %1269 ]
  br i1 %1278, label %1282, label %Flow2

; <label>:1279:                                   ; preds = %1272
  br label %Flow1

Flow1:                                            ; preds = %1279, %1272
  %1280 = phi i1 [ false, %1279 ], [ true, %1272 ]
  %1281 = phi i1 [ true, %1279 ], [ false, %1272 ]
  br label %Flow

; <label>:1282:                                   ; preds = %Flow
  br label %Flow2

Flow3:                                            ; preds = %1276, %Flow2
  %1283 = phi i32 [ 1, %1276 ], [ 0, %Flow2 ]
  br label %Flow6

Flow7:                                            ; preds = %1153, %Flow6
  %1284 = phi i32 [ 1, %1153 ], [ %1267, %Flow6 ]
  br label %Flow22

Flow23:                                           ; preds = %1014, %Flow22
  %1285 = phi i32 [ 1, %1014 ], [ %1144, %Flow22 ]
  br label %Flow38

Flow39:                                           ; preds = %910, %Flow38
  %1286 = phi i32 [ 1, %910 ], [ %967, %Flow38 ]
  br label %Flow54

Flow55:                                           ; preds = %806, %Flow54
  %1287 = phi i32 [ 1, %806 ], [ %863, %Flow54 ]
  br label %Flow70

Flow71:                                           ; preds = %688, %Flow70
  %1288 = phi i32 [ 1, %688 ], [ %759, %Flow70 ]
  br label %Flow86

Flow87:                                           ; preds = %584, %Flow86
  %1289 = phi i32 [ 1, %584 ], [ %641, %Flow86 ]
  br label %Flow102

Flow103:                                          ; preds = %480, %Flow102
  %1290 = phi i32 [ 1, %480 ], [ %537, %Flow102 ]
  br label %Flow118

Flow119:                                          ; preds = %362, %Flow118
  %1291 = phi i32 [ 1, %362 ], [ %433, %Flow118 ]
  br label %Flow134

Flow135:                                          ; preds = %258, %Flow134
  %1292 = phi i32 [ 1, %258 ], [ %315, %Flow134 ]
  br label %Flow150

; <label>:1293:                                   ; preds = %154, %Flow150
  %.0 = phi i32 [ %211, %Flow150 ], [ 1, %154 ]
  ret i32 %.0
}

; Function Attrs: nounwind readnone speculatable
declare !taffo.initweight !17 !taffo.funinfo !18 double @llvm.fabs.f64(double) #5

; Function Attrs: noinline nounwind uwtable
define dso_local i32 @_Z17tri_tri_intersectPfS_S_S_S_S_S_Pi(float*, float*, float*, float*, float*, float*, float*, i32*) #4 !taffo.initweight !34 !taffo.funinfo !35 !taffo.equivalentChild !36 {
  %9 = alloca [3 x float], align 4, !taffo.info !24, !taffo.initweight !25
  %10 = alloca [3 x float], align 4, !taffo.info !24, !taffo.initweight !25
  %11 = alloca [3 x float], align 4, !taffo.info !24, !taffo.initweight !25
  %12 = alloca [3 x float], align 4, !taffo.info !24, !taffo.initweight !25
  %13 = alloca [3 x float], align 4, !taffo.info !24, !taffo.initweight !25
  %14 = alloca [2 x float], align 4, !taffo.info !24, !taffo.initweight !25
  %15 = alloca [2 x float], align 4, !taffo.info !24, !taffo.initweight !25
  %16 = getelementptr inbounds float, float* %1, i64 0, !taffo.info !24, !taffo.initweight !27
  %17 = load float, float* %16, align 4, !taffo.info !24, !taffo.initweight !28
  %18 = getelementptr inbounds float, float* %0, i64 0, !taffo.info !24, !taffo.initweight !27
  %19 = load float, float* %18, align 4, !taffo.info !24, !taffo.initweight !28
  %20 = fsub float %17, %19, !taffo.info !24, !taffo.initweight !37
  %21 = getelementptr inbounds [3 x float], [3 x float]* %9, i64 0, i64 0, !taffo.info !24, !taffo.initweight !26
  store float %20, float* %21, align 4, !taffo.info !24
  %22 = getelementptr inbounds float, float* %1, i64 1, !taffo.info !24, !taffo.initweight !27
  %23 = load float, float* %22, align 4, !taffo.info !24, !taffo.initweight !28
  %24 = getelementptr inbounds float, float* %0, i64 1, !taffo.info !24, !taffo.initweight !27
  %25 = load float, float* %24, align 4, !taffo.info !24, !taffo.initweight !28
  %26 = fsub float %23, %25, !taffo.info !24, !taffo.initweight !37
  %27 = getelementptr inbounds [3 x float], [3 x float]* %9, i64 0, i64 1, !taffo.info !24, !taffo.initweight !26
  store float %26, float* %27, align 4, !taffo.info !24
  %28 = getelementptr inbounds float, float* %1, i64 2, !taffo.info !24, !taffo.initweight !27
  %29 = load float, float* %28, align 4, !taffo.info !24, !taffo.initweight !28
  %30 = getelementptr inbounds float, float* %0, i64 2, !taffo.info !24, !taffo.initweight !27
  %31 = load float, float* %30, align 4, !taffo.info !24, !taffo.initweight !28
  %32 = fsub float %29, %31, !taffo.info !24, !taffo.initweight !37
  %33 = getelementptr inbounds [3 x float], [3 x float]* %9, i64 0, i64 2, !taffo.info !24, !taffo.initweight !26
  store float %32, float* %33, align 4, !taffo.info !24
  %34 = getelementptr inbounds float, float* %2, i64 0, !taffo.info !24, !taffo.initweight !27
  %35 = load float, float* %34, align 4, !taffo.info !24, !taffo.initweight !28
  %36 = getelementptr inbounds float, float* %0, i64 0, !taffo.info !24, !taffo.initweight !27
  %37 = load float, float* %36, align 4, !taffo.info !24, !taffo.initweight !28
  %38 = fsub float %35, %37, !taffo.info !24, !taffo.initweight !37
  %39 = getelementptr inbounds [3 x float], [3 x float]* %10, i64 0, i64 0, !taffo.info !24, !taffo.initweight !26
  store float %38, float* %39, align 4, !taffo.info !24
  %40 = getelementptr inbounds float, float* %2, i64 1, !taffo.info !24, !taffo.initweight !27
  %41 = load float, float* %40, align 4, !taffo.info !24, !taffo.initweight !28
  %42 = getelementptr inbounds float, float* %0, i64 1, !taffo.info !24, !taffo.initweight !27
  %43 = load float, float* %42, align 4, !taffo.info !24, !taffo.initweight !28
  %44 = fsub float %41, %43, !taffo.info !24, !taffo.initweight !37
  %45 = getelementptr inbounds [3 x float], [3 x float]* %10, i64 0, i64 1, !taffo.info !24, !taffo.initweight !26
  store float %44, float* %45, align 4, !taffo.info !24
  %46 = getelementptr inbounds float, float* %2, i64 2, !taffo.info !24, !taffo.initweight !27
  %47 = load float, float* %46, align 4, !taffo.info !24, !taffo.initweight !28
  %48 = getelementptr inbounds float, float* %0, i64 2, !taffo.info !24, !taffo.initweight !27
  %49 = load float, float* %48, align 4, !taffo.info !24, !taffo.initweight !28
  %50 = fsub float %47, %49, !taffo.info !24, !taffo.initweight !37
  %51 = getelementptr inbounds [3 x float], [3 x float]* %10, i64 0, i64 2, !taffo.info !24, !taffo.initweight !26
  store float %50, float* %51, align 4, !taffo.info !24
  %52 = getelementptr inbounds [3 x float], [3 x float]* %9, i64 0, i64 1, !taffo.info !24, !taffo.initweight !26
  %53 = load float, float* %52, align 4, !taffo.info !24, !taffo.initweight !27
  %54 = getelementptr inbounds [3 x float], [3 x float]* %10, i64 0, i64 2, !taffo.info !24, !taffo.initweight !26
  %55 = load float, float* %54, align 4, !taffo.info !24, !taffo.initweight !27
  %56 = fmul float %53, %55, !taffo.info !24, !taffo.initweight !28
  %57 = getelementptr inbounds [3 x float], [3 x float]* %9, i64 0, i64 2, !taffo.info !24, !taffo.initweight !26
  %58 = load float, float* %57, align 4, !taffo.info !24, !taffo.initweight !27
  %59 = getelementptr inbounds [3 x float], [3 x float]* %10, i64 0, i64 1, !taffo.info !24, !taffo.initweight !26
  %60 = load float, float* %59, align 4, !taffo.info !24, !taffo.initweight !27
  %61 = fmul float %58, %60, !taffo.info !24, !taffo.initweight !28
  %62 = fsub float %56, %61, !taffo.info !24, !taffo.initweight !37
  %63 = getelementptr inbounds [3 x float], [3 x float]* %11, i64 0, i64 0, !taffo.info !24, !taffo.initweight !26
  store float %62, float* %63, align 4, !taffo.info !24
  %64 = getelementptr inbounds [3 x float], [3 x float]* %9, i64 0, i64 2, !taffo.info !24, !taffo.initweight !26
  %65 = load float, float* %64, align 4, !taffo.info !24, !taffo.initweight !27
  %66 = getelementptr inbounds [3 x float], [3 x float]* %10, i64 0, i64 0, !taffo.info !24, !taffo.initweight !26
  %67 = load float, float* %66, align 4, !taffo.info !24, !taffo.initweight !27
  %68 = fmul float %65, %67, !taffo.info !24, !taffo.initweight !28
  %69 = getelementptr inbounds [3 x float], [3 x float]* %9, i64 0, i64 0, !taffo.info !24, !taffo.initweight !26
  %70 = load float, float* %69, align 4, !taffo.info !24, !taffo.initweight !27
  %71 = getelementptr inbounds [3 x float], [3 x float]* %10, i64 0, i64 2, !taffo.info !24, !taffo.initweight !26
  %72 = load float, float* %71, align 4, !taffo.info !24, !taffo.initweight !27
  %73 = fmul float %70, %72, !taffo.info !24, !taffo.initweight !28
  %74 = fsub float %68, %73, !taffo.info !24, !taffo.initweight !37
  %75 = getelementptr inbounds [3 x float], [3 x float]* %11, i64 0, i64 1, !taffo.info !24, !taffo.initweight !26
  store float %74, float* %75, align 4, !taffo.info !24
  %76 = getelementptr inbounds [3 x float], [3 x float]* %9, i64 0, i64 0, !taffo.info !24, !taffo.initweight !26
  %77 = load float, float* %76, align 4, !taffo.info !24, !taffo.initweight !27
  %78 = getelementptr inbounds [3 x float], [3 x float]* %10, i64 0, i64 1, !taffo.info !24, !taffo.initweight !26
  %79 = load float, float* %78, align 4, !taffo.info !24, !taffo.initweight !27
  %80 = fmul float %77, %79, !taffo.info !24, !taffo.initweight !28
  %81 = getelementptr inbounds [3 x float], [3 x float]* %9, i64 0, i64 1, !taffo.info !24, !taffo.initweight !26
  %82 = load float, float* %81, align 4, !taffo.info !24, !taffo.initweight !27
  %83 = getelementptr inbounds [3 x float], [3 x float]* %10, i64 0, i64 0, !taffo.info !24, !taffo.initweight !26
  %84 = load float, float* %83, align 4, !taffo.info !24, !taffo.initweight !27
  %85 = fmul float %82, %84, !taffo.info !24, !taffo.initweight !28
  %86 = fsub float %80, %85, !taffo.info !24, !taffo.initweight !37
  %87 = getelementptr inbounds [3 x float], [3 x float]* %11, i64 0, i64 2, !taffo.info !24, !taffo.initweight !26
  store float %86, float* %87, align 4, !taffo.info !24
  %88 = getelementptr inbounds [3 x float], [3 x float]* %11, i64 0, i64 0, !taffo.info !24, !taffo.initweight !26
  %89 = load float, float* %88, align 4, !taffo.info !24, !taffo.initweight !27
  %90 = getelementptr inbounds float, float* %0, i64 0, !taffo.info !24, !taffo.initweight !27
  %91 = load float, float* %90, align 4, !taffo.info !24, !taffo.initweight !28
  %92 = fmul float %89, %91, !taffo.info !24, !taffo.initweight !28
  %93 = getelementptr inbounds [3 x float], [3 x float]* %11, i64 0, i64 1, !taffo.info !24, !taffo.initweight !26
  %94 = load float, float* %93, align 4, !taffo.info !24, !taffo.initweight !27
  %95 = getelementptr inbounds float, float* %0, i64 1, !taffo.info !24, !taffo.initweight !27
  %96 = load float, float* %95, align 4, !taffo.info !24, !taffo.initweight !28
  %97 = fmul float %94, %96, !taffo.info !24, !taffo.initweight !28
  %98 = fadd float %92, %97, !taffo.info !24, !taffo.initweight !37
  %99 = getelementptr inbounds [3 x float], [3 x float]* %11, i64 0, i64 2, !taffo.info !24, !taffo.initweight !26
  %100 = load float, float* %99, align 4, !taffo.info !24, !taffo.initweight !27
  %101 = getelementptr inbounds float, float* %0, i64 2, !taffo.info !24, !taffo.initweight !27
  %102 = load float, float* %101, align 4, !taffo.info !24, !taffo.initweight !28
  %103 = fmul float %100, %102, !taffo.info !24, !taffo.initweight !28
  %104 = fadd float %98, %103, !taffo.info !24, !taffo.initweight !37
  %105 = fsub float -0.000000e+00, %104, !taffo.info !24, !taffo.initweight !38, !taffo.constinfo !30
  %106 = getelementptr inbounds [3 x float], [3 x float]* %11, i64 0, i64 0, !taffo.info !24, !taffo.initweight !26
  %107 = load float, float* %106, align 4, !taffo.info !24, !taffo.initweight !27
  %108 = getelementptr inbounds float, float* %3, i64 0, !taffo.info !24, !taffo.initweight !27
  %109 = load float, float* %108, align 4, !taffo.info !24, !taffo.initweight !28
  %110 = fmul float %107, %109, !taffo.info !24, !taffo.initweight !28
  %111 = getelementptr inbounds [3 x float], [3 x float]* %11, i64 0, i64 1, !taffo.info !24, !taffo.initweight !26
  %112 = load float, float* %111, align 4, !taffo.info !24, !taffo.initweight !27
  %113 = getelementptr inbounds float, float* %3, i64 1, !taffo.info !24, !taffo.initweight !27
  %114 = load float, float* %113, align 4, !taffo.info !24, !taffo.initweight !28
  %115 = fmul float %112, %114, !taffo.info !24, !taffo.initweight !28
  %116 = fadd float %110, %115, !taffo.info !24, !taffo.initweight !37
  %117 = getelementptr inbounds [3 x float], [3 x float]* %11, i64 0, i64 2, !taffo.info !24, !taffo.initweight !26
  %118 = load float, float* %117, align 4, !taffo.info !24, !taffo.initweight !27
  %119 = getelementptr inbounds float, float* %3, i64 2, !taffo.info !24, !taffo.initweight !27
  %120 = load float, float* %119, align 4, !taffo.info !24, !taffo.initweight !28
  %121 = fmul float %118, %120, !taffo.info !24, !taffo.initweight !28
  %122 = fadd float %116, %121, !taffo.info !24, !taffo.initweight !37
  %123 = fadd float %122, %105, !taffo.info !24, !taffo.initweight !27
  %124 = getelementptr inbounds [3 x float], [3 x float]* %11, i64 0, i64 0, !taffo.info !24, !taffo.initweight !26
  %125 = load float, float* %124, align 4, !taffo.info !24, !taffo.initweight !27
  %126 = getelementptr inbounds float, float* %4, i64 0, !taffo.info !24, !taffo.initweight !27
  %127 = load float, float* %126, align 4, !taffo.info !24, !taffo.initweight !28
  %128 = fmul float %125, %127, !taffo.info !24, !taffo.initweight !28
  %129 = getelementptr inbounds [3 x float], [3 x float]* %11, i64 0, i64 1, !taffo.info !24, !taffo.initweight !26
  %130 = load float, float* %129, align 4, !taffo.info !24, !taffo.initweight !27
  %131 = getelementptr inbounds float, float* %4, i64 1, !taffo.info !24, !taffo.initweight !27
  %132 = load float, float* %131, align 4, !taffo.info !24, !taffo.initweight !28
  %133 = fmul float %130, %132, !taffo.info !24, !taffo.initweight !28
  %134 = fadd float %128, %133, !taffo.info !24, !taffo.initweight !37
  %135 = getelementptr inbounds [3 x float], [3 x float]* %11, i64 0, i64 2, !taffo.info !24, !taffo.initweight !26
  %136 = load float, float* %135, align 4, !taffo.info !24, !taffo.initweight !27
  %137 = getelementptr inbounds float, float* %4, i64 2, !taffo.info !24, !taffo.initweight !27
  %138 = load float, float* %137, align 4, !taffo.info !24, !taffo.initweight !28
  %139 = fmul float %136, %138, !taffo.info !24, !taffo.initweight !28
  %140 = fadd float %134, %139, !taffo.info !24, !taffo.initweight !37
  %141 = fadd float %140, %105, !taffo.info !24, !taffo.initweight !27
  %142 = getelementptr inbounds [3 x float], [3 x float]* %11, i64 0, i64 0, !taffo.info !24, !taffo.initweight !26
  %143 = load float, float* %142, align 4, !taffo.info !24, !taffo.initweight !27
  %144 = getelementptr inbounds float, float* %5, i64 0, !taffo.info !24, !taffo.initweight !27
  %145 = load float, float* %144, align 4, !taffo.info !24, !taffo.initweight !28
  %146 = fmul float %143, %145, !taffo.info !24, !taffo.initweight !28
  %147 = getelementptr inbounds [3 x float], [3 x float]* %11, i64 0, i64 1, !taffo.info !24, !taffo.initweight !26
  %148 = load float, float* %147, align 4, !taffo.info !24, !taffo.initweight !27
  %149 = getelementptr inbounds float, float* %5, i64 1, !taffo.info !24, !taffo.initweight !27
  %150 = load float, float* %149, align 4, !taffo.info !24, !taffo.initweight !28
  %151 = fmul float %148, %150, !taffo.info !24, !taffo.initweight !28
  %152 = fadd float %146, %151, !taffo.info !24, !taffo.initweight !37
  %153 = getelementptr inbounds [3 x float], [3 x float]* %11, i64 0, i64 2, !taffo.info !24, !taffo.initweight !26
  %154 = load float, float* %153, align 4, !taffo.info !24, !taffo.initweight !27
  %155 = getelementptr inbounds float, float* %5, i64 2, !taffo.info !24, !taffo.initweight !27
  %156 = load float, float* %155, align 4, !taffo.info !24, !taffo.initweight !28
  %157 = fmul float %154, %156, !taffo.info !24, !taffo.initweight !28
  %158 = fadd float %152, %157, !taffo.info !24, !taffo.initweight !37
  %159 = fadd float %158, %105, !taffo.info !24, !taffo.initweight !27
  %160 = fpext float %123 to double, !taffo.info !24, !taffo.initweight !27
  %161 = call double @llvm.fabs.f64(double %160), !taffo.info !24, !taffo.initweight !28, !taffo.constinfo !15
  %162 = fcmp olt double %161, 0x3EB0C6F7A0B5ED8D, !taffo.info !24, !taffo.initweight !37
  br i1 %162, label %163, label %164

; <label>:163:                                    ; preds = %8
  br label %164

; <label>:164:                                    ; preds = %163, %8
  %.08 = phi float [ %123, %8 ], [ 0.000000e+00, %163 ]
  %165 = fpext float %141 to double, !taffo.info !24, !taffo.initweight !27
  %166 = call double @llvm.fabs.f64(double %165), !taffo.info !24, !taffo.initweight !28, !taffo.constinfo !15
  %167 = fcmp olt double %166, 0x3EB0C6F7A0B5ED8D, !taffo.info !24, !taffo.initweight !37
  br i1 %167, label %168, label %169

; <label>:168:                                    ; preds = %164
  br label %169

; <label>:169:                                    ; preds = %168, %164
  %.07 = phi float [ %141, %164 ], [ 0.000000e+00, %168 ]
  %170 = fpext float %159 to double, !taffo.info !24, !taffo.initweight !27
  %171 = call double @llvm.fabs.f64(double %170), !taffo.info !24, !taffo.initweight !28, !taffo.constinfo !15
  %172 = fcmp olt double %171, 0x3EB0C6F7A0B5ED8D, !taffo.info !24, !taffo.initweight !37
  br i1 %172, label %173, label %174

; <label>:173:                                    ; preds = %169
  br label %174

; <label>:174:                                    ; preds = %173, %169
  %.06 = phi float [ %159, %169 ], [ 0.000000e+00, %173 ]
  %175 = fmul float %.08, %.07, !taffo.info !24, !taffo.initweight !27
  %176 = fmul float %.08, %.06, !taffo.info !24, !taffo.initweight !27
  br label %177

; <label>:177:                                    ; preds = %174
  br label %178

; <label>:178:                                    ; preds = %177
  %179 = fcmp ogt float %175, 0.000000e+00, !taffo.info !24, !taffo.initweight !27, !taffo.target !39
  %180 = xor i1 %179, true
  br i1 %179, label %181, label %Flow56

; <label>:181:                                    ; preds = %178
  %182 = fcmp ogt float %176, 0.000000e+00, !taffo.info !24, !taffo.initweight !27, !taffo.target !40
  %183 = xor i1 %182, true
  br label %Flow56

; <label>:184:                                    ; preds = %Flow57
  store i32 0, i32* %7, align 4, !taffo.constinfo !15
  br label %1386

Flow56:                                           ; preds = %181, %178
  %185 = phi i1 [ true, %181 ], [ false, %178 ]
  %186 = phi i1 [ %183, %181 ], [ %180, %178 ]
  br i1 %186, label %187, label %Flow57

; <label>:187:                                    ; preds = %Flow56
  %188 = getelementptr inbounds float, float* %4, i64 0, !taffo.info !24, !taffo.initweight !27
  %189 = load float, float* %188, align 4, !taffo.info !24, !taffo.initweight !28
  %190 = getelementptr inbounds float, float* %3, i64 0, !taffo.info !24, !taffo.initweight !27
  %191 = load float, float* %190, align 4, !taffo.info !24, !taffo.initweight !28
  %192 = fsub float %189, %191, !taffo.info !24, !taffo.initweight !37
  %193 = getelementptr inbounds [3 x float], [3 x float]* %9, i64 0, i64 0, !taffo.info !24, !taffo.initweight !26
  store float %192, float* %193, align 4, !taffo.info !24
  %194 = getelementptr inbounds float, float* %4, i64 1, !taffo.info !24, !taffo.initweight !27
  %195 = load float, float* %194, align 4, !taffo.info !24, !taffo.initweight !28
  %196 = getelementptr inbounds float, float* %3, i64 1, !taffo.info !24, !taffo.initweight !27
  %197 = load float, float* %196, align 4, !taffo.info !24, !taffo.initweight !28
  %198 = fsub float %195, %197, !taffo.info !24, !taffo.initweight !37
  %199 = getelementptr inbounds [3 x float], [3 x float]* %9, i64 0, i64 1, !taffo.info !24, !taffo.initweight !26
  store float %198, float* %199, align 4, !taffo.info !24
  %200 = getelementptr inbounds float, float* %4, i64 2, !taffo.info !24, !taffo.initweight !27
  %201 = load float, float* %200, align 4, !taffo.info !24, !taffo.initweight !28
  %202 = getelementptr inbounds float, float* %3, i64 2, !taffo.info !24, !taffo.initweight !27
  %203 = load float, float* %202, align 4, !taffo.info !24, !taffo.initweight !28
  %204 = fsub float %201, %203, !taffo.info !24, !taffo.initweight !37
  %205 = getelementptr inbounds [3 x float], [3 x float]* %9, i64 0, i64 2, !taffo.info !24, !taffo.initweight !26
  store float %204, float* %205, align 4, !taffo.info !24
  %206 = getelementptr inbounds float, float* %5, i64 0, !taffo.info !24, !taffo.initweight !27
  %207 = load float, float* %206, align 4, !taffo.info !24, !taffo.initweight !28
  %208 = getelementptr inbounds float, float* %3, i64 0, !taffo.info !24, !taffo.initweight !27
  %209 = load float, float* %208, align 4, !taffo.info !24, !taffo.initweight !28
  %210 = fsub float %207, %209, !taffo.info !24, !taffo.initweight !37
  %211 = getelementptr inbounds [3 x float], [3 x float]* %10, i64 0, i64 0, !taffo.info !24, !taffo.initweight !26
  store float %210, float* %211, align 4, !taffo.info !24
  %212 = getelementptr inbounds float, float* %5, i64 1, !taffo.info !24, !taffo.initweight !27
  %213 = load float, float* %212, align 4, !taffo.info !24, !taffo.initweight !28
  %214 = getelementptr inbounds float, float* %3, i64 1, !taffo.info !24, !taffo.initweight !27
  %215 = load float, float* %214, align 4, !taffo.info !24, !taffo.initweight !28
  %216 = fsub float %213, %215, !taffo.info !24, !taffo.initweight !37
  %217 = getelementptr inbounds [3 x float], [3 x float]* %10, i64 0, i64 1, !taffo.info !24, !taffo.initweight !26
  store float %216, float* %217, align 4, !taffo.info !24
  %218 = getelementptr inbounds float, float* %5, i64 2, !taffo.info !24, !taffo.initweight !27
  %219 = load float, float* %218, align 4, !taffo.info !24, !taffo.initweight !28
  %220 = getelementptr inbounds float, float* %3, i64 2, !taffo.info !24, !taffo.initweight !27
  %221 = load float, float* %220, align 4, !taffo.info !24, !taffo.initweight !28
  %222 = fsub float %219, %221, !taffo.info !24, !taffo.initweight !37
  %223 = getelementptr inbounds [3 x float], [3 x float]* %10, i64 0, i64 2, !taffo.info !24, !taffo.initweight !26
  store float %222, float* %223, align 4, !taffo.info !24
  %224 = getelementptr inbounds [3 x float], [3 x float]* %9, i64 0, i64 1, !taffo.info !24, !taffo.initweight !26
  %225 = load float, float* %224, align 4, !taffo.info !24, !taffo.initweight !27
  %226 = getelementptr inbounds [3 x float], [3 x float]* %10, i64 0, i64 2, !taffo.info !24, !taffo.initweight !26
  %227 = load float, float* %226, align 4, !taffo.info !24, !taffo.initweight !27
  %228 = fmul float %225, %227, !taffo.info !24, !taffo.initweight !28
  %229 = getelementptr inbounds [3 x float], [3 x float]* %9, i64 0, i64 2, !taffo.info !24, !taffo.initweight !26
  %230 = load float, float* %229, align 4, !taffo.info !24, !taffo.initweight !27
  %231 = getelementptr inbounds [3 x float], [3 x float]* %10, i64 0, i64 1, !taffo.info !24, !taffo.initweight !26
  %232 = load float, float* %231, align 4, !taffo.info !24, !taffo.initweight !27
  %233 = fmul float %230, %232, !taffo.info !24, !taffo.initweight !28
  %234 = fsub float %228, %233, !taffo.info !24, !taffo.initweight !37
  %235 = getelementptr inbounds [3 x float], [3 x float]* %12, i64 0, i64 0, !taffo.info !24, !taffo.initweight !26
  store float %234, float* %235, align 4, !taffo.info !24
  %236 = getelementptr inbounds [3 x float], [3 x float]* %9, i64 0, i64 2, !taffo.info !24, !taffo.initweight !26
  %237 = load float, float* %236, align 4, !taffo.info !24, !taffo.initweight !27
  %238 = getelementptr inbounds [3 x float], [3 x float]* %10, i64 0, i64 0, !taffo.info !24, !taffo.initweight !26
  %239 = load float, float* %238, align 4, !taffo.info !24, !taffo.initweight !27
  %240 = fmul float %237, %239, !taffo.info !24, !taffo.initweight !28
  %241 = getelementptr inbounds [3 x float], [3 x float]* %9, i64 0, i64 0, !taffo.info !24, !taffo.initweight !26
  %242 = load float, float* %241, align 4, !taffo.info !24, !taffo.initweight !27
  %243 = getelementptr inbounds [3 x float], [3 x float]* %10, i64 0, i64 2, !taffo.info !24, !taffo.initweight !26
  %244 = load float, float* %243, align 4, !taffo.info !24, !taffo.initweight !27
  %245 = fmul float %242, %244, !taffo.info !24, !taffo.initweight !28
  %246 = fsub float %240, %245, !taffo.info !24, !taffo.initweight !37
  %247 = getelementptr inbounds [3 x float], [3 x float]* %12, i64 0, i64 1, !taffo.info !24, !taffo.initweight !26
  store float %246, float* %247, align 4, !taffo.info !24
  %248 = getelementptr inbounds [3 x float], [3 x float]* %9, i64 0, i64 0, !taffo.info !24, !taffo.initweight !26
  %249 = load float, float* %248, align 4, !taffo.info !24, !taffo.initweight !27
  %250 = getelementptr inbounds [3 x float], [3 x float]* %10, i64 0, i64 1, !taffo.info !24, !taffo.initweight !26
  %251 = load float, float* %250, align 4, !taffo.info !24, !taffo.initweight !27
  %252 = fmul float %249, %251, !taffo.info !24, !taffo.initweight !28
  %253 = getelementptr inbounds [3 x float], [3 x float]* %9, i64 0, i64 1, !taffo.info !24, !taffo.initweight !26
  %254 = load float, float* %253, align 4, !taffo.info !24, !taffo.initweight !27
  %255 = getelementptr inbounds [3 x float], [3 x float]* %10, i64 0, i64 0, !taffo.info !24, !taffo.initweight !26
  %256 = load float, float* %255, align 4, !taffo.info !24, !taffo.initweight !27
  %257 = fmul float %254, %256, !taffo.info !24, !taffo.initweight !28
  %258 = fsub float %252, %257, !taffo.info !24, !taffo.initweight !37
  %259 = getelementptr inbounds [3 x float], [3 x float]* %12, i64 0, i64 2, !taffo.info !24, !taffo.initweight !26
  store float %258, float* %259, align 4, !taffo.info !24
  %260 = getelementptr inbounds [3 x float], [3 x float]* %12, i64 0, i64 0, !taffo.info !24, !taffo.initweight !26
  %261 = load float, float* %260, align 4, !taffo.info !24, !taffo.initweight !27
  %262 = getelementptr inbounds float, float* %3, i64 0, !taffo.info !24, !taffo.initweight !27
  %263 = load float, float* %262, align 4, !taffo.info !24, !taffo.initweight !28
  %264 = fmul float %261, %263, !taffo.info !24, !taffo.initweight !28
  %265 = getelementptr inbounds [3 x float], [3 x float]* %12, i64 0, i64 1, !taffo.info !24, !taffo.initweight !26
  %266 = load float, float* %265, align 4, !taffo.info !24, !taffo.initweight !27
  %267 = getelementptr inbounds float, float* %3, i64 1, !taffo.info !24, !taffo.initweight !27
  %268 = load float, float* %267, align 4, !taffo.info !24, !taffo.initweight !28
  %269 = fmul float %266, %268, !taffo.info !24, !taffo.initweight !28
  %270 = fadd float %264, %269, !taffo.info !24, !taffo.initweight !37
  %271 = getelementptr inbounds [3 x float], [3 x float]* %12, i64 0, i64 2, !taffo.info !24, !taffo.initweight !26
  %272 = load float, float* %271, align 4, !taffo.info !24, !taffo.initweight !27
  %273 = getelementptr inbounds float, float* %3, i64 2, !taffo.info !24, !taffo.initweight !27
  %274 = load float, float* %273, align 4, !taffo.info !24, !taffo.initweight !28
  %275 = fmul float %272, %274, !taffo.info !24, !taffo.initweight !28
  %276 = fadd float %270, %275, !taffo.info !24, !taffo.initweight !37
  %277 = fsub float -0.000000e+00, %276, !taffo.info !24, !taffo.initweight !38, !taffo.constinfo !30
  %278 = getelementptr inbounds [3 x float], [3 x float]* %12, i64 0, i64 0, !taffo.info !24, !taffo.initweight !26
  %279 = load float, float* %278, align 4, !taffo.info !24, !taffo.initweight !27
  %280 = getelementptr inbounds float, float* %0, i64 0, !taffo.info !24, !taffo.initweight !27
  %281 = load float, float* %280, align 4, !taffo.info !24, !taffo.initweight !28
  %282 = fmul float %279, %281, !taffo.info !24, !taffo.initweight !28
  %283 = getelementptr inbounds [3 x float], [3 x float]* %12, i64 0, i64 1, !taffo.info !24, !taffo.initweight !26
  %284 = load float, float* %283, align 4, !taffo.info !24, !taffo.initweight !27
  %285 = getelementptr inbounds float, float* %0, i64 1, !taffo.info !24, !taffo.initweight !27
  %286 = load float, float* %285, align 4, !taffo.info !24, !taffo.initweight !28
  %287 = fmul float %284, %286, !taffo.info !24, !taffo.initweight !28
  %288 = fadd float %282, %287, !taffo.info !24, !taffo.initweight !37
  %289 = getelementptr inbounds [3 x float], [3 x float]* %12, i64 0, i64 2, !taffo.info !24, !taffo.initweight !26
  %290 = load float, float* %289, align 4, !taffo.info !24, !taffo.initweight !27
  %291 = getelementptr inbounds float, float* %0, i64 2, !taffo.info !24, !taffo.initweight !27
  %292 = load float, float* %291, align 4, !taffo.info !24, !taffo.initweight !28
  %293 = fmul float %290, %292, !taffo.info !24, !taffo.initweight !28
  %294 = fadd float %288, %293, !taffo.info !24, !taffo.initweight !37
  %295 = fadd float %294, %277, !taffo.info !24, !taffo.initweight !27
  %296 = getelementptr inbounds [3 x float], [3 x float]* %12, i64 0, i64 0, !taffo.info !24, !taffo.initweight !26
  %297 = load float, float* %296, align 4, !taffo.info !24, !taffo.initweight !27
  %298 = getelementptr inbounds float, float* %1, i64 0, !taffo.info !24, !taffo.initweight !27
  %299 = load float, float* %298, align 4, !taffo.info !24, !taffo.initweight !28
  %300 = fmul float %297, %299, !taffo.info !24, !taffo.initweight !28
  %301 = getelementptr inbounds [3 x float], [3 x float]* %12, i64 0, i64 1, !taffo.info !24, !taffo.initweight !26
  %302 = load float, float* %301, align 4, !taffo.info !24, !taffo.initweight !27
  %303 = getelementptr inbounds float, float* %1, i64 1, !taffo.info !24, !taffo.initweight !27
  %304 = load float, float* %303, align 4, !taffo.info !24, !taffo.initweight !28
  %305 = fmul float %302, %304, !taffo.info !24, !taffo.initweight !28
  %306 = fadd float %300, %305, !taffo.info !24, !taffo.initweight !37
  %307 = getelementptr inbounds [3 x float], [3 x float]* %12, i64 0, i64 2, !taffo.info !24, !taffo.initweight !26
  %308 = load float, float* %307, align 4, !taffo.info !24, !taffo.initweight !27
  %309 = getelementptr inbounds float, float* %1, i64 2, !taffo.info !24, !taffo.initweight !27
  %310 = load float, float* %309, align 4, !taffo.info !24, !taffo.initweight !28
  %311 = fmul float %308, %310, !taffo.info !24, !taffo.initweight !28
  %312 = fadd float %306, %311, !taffo.info !24, !taffo.initweight !37
  %313 = fadd float %312, %277, !taffo.info !24, !taffo.initweight !27
  %314 = getelementptr inbounds [3 x float], [3 x float]* %12, i64 0, i64 0, !taffo.info !24, !taffo.initweight !26
  %315 = load float, float* %314, align 4, !taffo.info !24, !taffo.initweight !27
  %316 = getelementptr inbounds float, float* %2, i64 0, !taffo.info !24, !taffo.initweight !27
  %317 = load float, float* %316, align 4, !taffo.info !24, !taffo.initweight !28
  %318 = fmul float %315, %317, !taffo.info !24, !taffo.initweight !28
  %319 = getelementptr inbounds [3 x float], [3 x float]* %12, i64 0, i64 1, !taffo.info !24, !taffo.initweight !26
  %320 = load float, float* %319, align 4, !taffo.info !24, !taffo.initweight !27
  %321 = getelementptr inbounds float, float* %2, i64 1, !taffo.info !24, !taffo.initweight !27
  %322 = load float, float* %321, align 4, !taffo.info !24, !taffo.initweight !28
  %323 = fmul float %320, %322, !taffo.info !24, !taffo.initweight !28
  %324 = fadd float %318, %323, !taffo.info !24, !taffo.initweight !37
  %325 = getelementptr inbounds [3 x float], [3 x float]* %12, i64 0, i64 2, !taffo.info !24, !taffo.initweight !26
  %326 = load float, float* %325, align 4, !taffo.info !24, !taffo.initweight !27
  %327 = getelementptr inbounds float, float* %2, i64 2, !taffo.info !24, !taffo.initweight !27
  %328 = load float, float* %327, align 4, !taffo.info !24, !taffo.initweight !28
  %329 = fmul float %326, %328, !taffo.info !24, !taffo.initweight !28
  %330 = fadd float %324, %329, !taffo.info !24, !taffo.initweight !37
  %331 = fadd float %330, %277, !taffo.info !24, !taffo.initweight !27
  %332 = fpext float %295 to double, !taffo.info !24, !taffo.initweight !27
  %333 = call double @llvm.fabs.f64(double %332), !taffo.info !24, !taffo.initweight !28, !taffo.constinfo !15
  %334 = fcmp olt double %333, 0x3EB0C6F7A0B5ED8D, !taffo.info !24, !taffo.initweight !37
  br i1 %334, label %335, label %338

; <label>:335:                                    ; preds = %187
  br label %338

Flow57:                                           ; preds = %Flow55, %Flow56
  %336 = phi i32 [ %1385, %Flow55 ], [ undef, %Flow56 ]
  %337 = phi i1 [ false, %Flow55 ], [ %185, %Flow56 ]
  br i1 %337, label %184, label %1386

; <label>:338:                                    ; preds = %335, %187
  %.05 = phi float [ 0.000000e+00, %335 ], [ %295, %187 ]
  %339 = fpext float %313 to double, !taffo.info !24, !taffo.initweight !27
  %340 = call double @llvm.fabs.f64(double %339), !taffo.info !24, !taffo.initweight !28, !taffo.constinfo !15
  %341 = fcmp olt double %340, 0x3EB0C6F7A0B5ED8D, !taffo.info !24, !taffo.initweight !37
  br i1 %341, label %342, label %343

; <label>:342:                                    ; preds = %338
  br label %343

; <label>:343:                                    ; preds = %342, %338
  %.04 = phi float [ 0.000000e+00, %342 ], [ %313, %338 ]
  %344 = fpext float %331 to double, !taffo.info !24, !taffo.initweight !27
  %345 = call double @llvm.fabs.f64(double %344), !taffo.info !24, !taffo.initweight !28, !taffo.constinfo !15
  %346 = fcmp olt double %345, 0x3EB0C6F7A0B5ED8D, !taffo.info !24, !taffo.initweight !37
  br i1 %346, label %347, label %348

; <label>:347:                                    ; preds = %343
  br label %348

; <label>:348:                                    ; preds = %347, %343
  %.03 = phi float [ 0.000000e+00, %347 ], [ %331, %343 ]
  %349 = fmul float %.05, %.04, !taffo.info !24, !taffo.initweight !27
  %350 = fmul float %.05, %.03, !taffo.info !24, !taffo.initweight !27
  br label %351

; <label>:351:                                    ; preds = %348
  br label %352

; <label>:352:                                    ; preds = %351
  %353 = fcmp ogt float %349, 0.000000e+00, !taffo.info !24, !taffo.initweight !27, !taffo.target !41
  %354 = xor i1 %353, true
  br i1 %353, label %355, label %Flow53

; <label>:355:                                    ; preds = %352
  %356 = fcmp ogt float %350, 0.000000e+00, !taffo.info !24, !taffo.initweight !27, !taffo.target !42
  %357 = xor i1 %356, true
  br label %Flow53

; <label>:358:                                    ; preds = %Flow54
  store i32 1, i32* %7, align 4, !taffo.constinfo !15
  br label %Flow55

Flow53:                                           ; preds = %355, %352
  %359 = phi i1 [ true, %355 ], [ false, %352 ]
  %360 = phi i1 [ %357, %355 ], [ %354, %352 ]
  br i1 %360, label %361, label %Flow54

; <label>:361:                                    ; preds = %Flow53
  %362 = getelementptr inbounds [3 x float], [3 x float]* %11, i64 0, i64 1, !taffo.info !24, !taffo.initweight !26
  %363 = load float, float* %362, align 4, !taffo.info !24, !taffo.initweight !27
  %364 = getelementptr inbounds [3 x float], [3 x float]* %12, i64 0, i64 2, !taffo.info !24, !taffo.initweight !26
  %365 = load float, float* %364, align 4, !taffo.info !24, !taffo.initweight !27
  %366 = fmul float %363, %365, !taffo.info !24, !taffo.initweight !28
  %367 = getelementptr inbounds [3 x float], [3 x float]* %11, i64 0, i64 2, !taffo.info !24, !taffo.initweight !26
  %368 = load float, float* %367, align 4, !taffo.info !24, !taffo.initweight !27
  %369 = getelementptr inbounds [3 x float], [3 x float]* %12, i64 0, i64 1, !taffo.info !24, !taffo.initweight !26
  %370 = load float, float* %369, align 4, !taffo.info !24, !taffo.initweight !27
  %371 = fmul float %368, %370, !taffo.info !24, !taffo.initweight !28
  %372 = fsub float %366, %371, !taffo.info !24, !taffo.initweight !37
  %373 = getelementptr inbounds [3 x float], [3 x float]* %13, i64 0, i64 0, !taffo.info !24, !taffo.initweight !26
  store float %372, float* %373, align 4, !taffo.info !24
  %374 = getelementptr inbounds [3 x float], [3 x float]* %11, i64 0, i64 2, !taffo.info !24, !taffo.initweight !26
  %375 = load float, float* %374, align 4, !taffo.info !24, !taffo.initweight !27
  %376 = getelementptr inbounds [3 x float], [3 x float]* %12, i64 0, i64 0, !taffo.info !24, !taffo.initweight !26
  %377 = load float, float* %376, align 4, !taffo.info !24, !taffo.initweight !27
  %378 = fmul float %375, %377, !taffo.info !24, !taffo.initweight !28
  %379 = getelementptr inbounds [3 x float], [3 x float]* %11, i64 0, i64 0, !taffo.info !24, !taffo.initweight !26
  %380 = load float, float* %379, align 4, !taffo.info !24, !taffo.initweight !27
  %381 = getelementptr inbounds [3 x float], [3 x float]* %12, i64 0, i64 2, !taffo.info !24, !taffo.initweight !26
  %382 = load float, float* %381, align 4, !taffo.info !24, !taffo.initweight !27
  %383 = fmul float %380, %382, !taffo.info !24, !taffo.initweight !28
  %384 = fsub float %378, %383, !taffo.info !24, !taffo.initweight !37
  %385 = getelementptr inbounds [3 x float], [3 x float]* %13, i64 0, i64 1, !taffo.info !24, !taffo.initweight !26
  store float %384, float* %385, align 4, !taffo.info !24
  %386 = getelementptr inbounds [3 x float], [3 x float]* %11, i64 0, i64 0, !taffo.info !24, !taffo.initweight !26
  %387 = load float, float* %386, align 4, !taffo.info !24, !taffo.initweight !27
  %388 = getelementptr inbounds [3 x float], [3 x float]* %12, i64 0, i64 1, !taffo.info !24, !taffo.initweight !26
  %389 = load float, float* %388, align 4, !taffo.info !24, !taffo.initweight !27
  %390 = fmul float %387, %389, !taffo.info !24, !taffo.initweight !28
  %391 = getelementptr inbounds [3 x float], [3 x float]* %11, i64 0, i64 1, !taffo.info !24, !taffo.initweight !26
  %392 = load float, float* %391, align 4, !taffo.info !24, !taffo.initweight !27
  %393 = getelementptr inbounds [3 x float], [3 x float]* %12, i64 0, i64 0, !taffo.info !24, !taffo.initweight !26
  %394 = load float, float* %393, align 4, !taffo.info !24, !taffo.initweight !27
  %395 = fmul float %392, %394, !taffo.info !24, !taffo.initweight !28
  %396 = fsub float %390, %395, !taffo.info !24, !taffo.initweight !37
  %397 = getelementptr inbounds [3 x float], [3 x float]* %13, i64 0, i64 2, !taffo.info !24, !taffo.initweight !26
  store float %396, float* %397, align 4, !taffo.info !24
  %398 = getelementptr inbounds [3 x float], [3 x float]* %13, i64 0, i64 0, !taffo.info !24, !taffo.initweight !26
  %399 = load float, float* %398, align 4, !taffo.info !24, !taffo.initweight !27
  %400 = fpext float %399 to double, !taffo.info !24, !taffo.initweight !28
  %401 = call double @llvm.fabs.f64(double %400), !taffo.info !24, !taffo.initweight !37, !taffo.constinfo !15
  %402 = fptrunc double %401 to float, !taffo.info !24, !taffo.initweight !38
  %403 = getelementptr inbounds [3 x float], [3 x float]* %13, i64 0, i64 1, !taffo.info !24, !taffo.initweight !26
  %404 = load float, float* %403, align 4, !taffo.info !24, !taffo.initweight !27
  %405 = fpext float %404 to double, !taffo.info !24, !taffo.initweight !28
  %406 = call double @llvm.fabs.f64(double %405), !taffo.info !24, !taffo.initweight !37, !taffo.constinfo !15
  %407 = fptrunc double %406 to float, !taffo.info !24, !taffo.initweight !38
  %408 = getelementptr inbounds [3 x float], [3 x float]* %13, i64 0, i64 2, !taffo.info !24, !taffo.initweight !26
  %409 = load float, float* %408, align 4, !taffo.info !24, !taffo.initweight !27
  %410 = fpext float %409 to double, !taffo.info !24, !taffo.initweight !28
  %411 = call double @llvm.fabs.f64(double %410), !taffo.info !24, !taffo.initweight !37, !taffo.constinfo !15
  %412 = fptrunc double %411 to float, !taffo.info !24, !taffo.initweight !38
  %413 = fcmp ogt float %407, %402, !taffo.info !24, !taffo.initweight !27
  br i1 %413, label %414, label %417

; <label>:414:                                    ; preds = %361
  br label %417

Flow54:                                           ; preds = %Flow52, %Flow53
  %415 = phi i32 [ %1384, %Flow52 ], [ undef, %Flow53 ]
  %416 = phi i1 [ false, %Flow52 ], [ %359, %Flow53 ]
  br i1 %416, label %358, label %Flow55

; <label>:417:                                    ; preds = %414, %361
  %.02 = phi float [ %407, %414 ], [ %402, %361 ]
  %.01 = phi i16 [ 1, %414 ], [ 0, %361 ]
  %418 = fcmp ogt float %412, %.02, !taffo.info !24, !taffo.initweight !27
  br i1 %418, label %419, label %420

; <label>:419:                                    ; preds = %417
  br label %420

; <label>:420:                                    ; preds = %419, %417
  %.1 = phi i16 [ 2, %419 ], [ %.01, %417 ]
  %421 = sext i16 %.1 to i64
  %422 = getelementptr inbounds float, float* %0, i64 %421, !taffo.info !24, !taffo.initweight !27
  %423 = load float, float* %422, align 4, !taffo.info !24, !taffo.initweight !28
  %424 = sext i16 %.1 to i64
  %425 = getelementptr inbounds float, float* %1, i64 %424, !taffo.info !24, !taffo.initweight !27
  %426 = load float, float* %425, align 4, !taffo.info !24, !taffo.initweight !28
  %427 = sext i16 %.1 to i64
  %428 = getelementptr inbounds float, float* %2, i64 %427, !taffo.info !24, !taffo.initweight !27
  %429 = load float, float* %428, align 4, !taffo.info !24, !taffo.initweight !28
  %430 = sext i16 %.1 to i64
  %431 = getelementptr inbounds float, float* %3, i64 %430, !taffo.info !24, !taffo.initweight !27
  %432 = load float, float* %431, align 4, !taffo.info !24, !taffo.initweight !28
  %433 = sext i16 %.1 to i64
  %434 = getelementptr inbounds float, float* %4, i64 %433, !taffo.info !24, !taffo.initweight !27
  %435 = load float, float* %434, align 4, !taffo.info !24, !taffo.initweight !28
  %436 = sext i16 %.1 to i64
  %437 = getelementptr inbounds float, float* %5, i64 %436, !taffo.info !24, !taffo.initweight !27
  %438 = load float, float* %437, align 4, !taffo.info !24, !taffo.initweight !28
  store i32 2, i32* %7, align 4, !taffo.constinfo !15
  %439 = fcmp ogt float %349, 0.000000e+00, !taffo.info !24, !taffo.initweight !27, !taffo.target !41
  %440 = xor i1 %439, true
  br i1 %440, label %522, label %Flow38

Flow50:                                           ; preds = %883, %Flow49
  %441 = phi i1 [ true, %883 ], [ false, %Flow49 ]
  br label %Flow38

; <label>:442:                                    ; preds = %Flow38
  %443 = fsub float %.03, %.05, !taffo.info !24, !taffo.initweight !27
  %444 = fsub float %.03, %.04, !taffo.info !24, !taffo.initweight !27
  %445 = fcmp oge float %443, 0.000000e+00, !taffo.info !24, !taffo.initweight !27
  %446 = xor i1 %445, true
  br i1 %446, label %465, label %Flow37

Flow37:                                           ; preds = %465, %442
  %447 = phi i1 [ false, %465 ], [ true, %442 ]
  br i1 %447, label %448, label %483

; <label>:448:                                    ; preds = %Flow37
  %449 = fpext float %429 to double, !taffo.info !24, !taffo.initweight !27
  %450 = fsub float %423, %429, !taffo.info !24, !taffo.initweight !27
  %451 = fmul float %450, %.03, !taffo.info !24, !taffo.initweight !27
  %452 = fpext float %451 to double, !taffo.info !24, !taffo.initweight !28
  %453 = fmul float 0x41A0000000000000, %443, !taffo.info !24
  %u5_27fixp7 = fptoui float %453 to i32, !taffo.info !43
  %u5_27fixp47 = add i32 %u5_27fixp7, 1342, !taffo.info !43, !taffo.constinfo !46
  %454 = fmul double 0x41A0000000000000, %452, !taffo.info !24
  %455 = fptoui double %454 to i32, !taffo.info !24
  %456 = zext i32 %455 to i64, !taffo.info !24
  %457 = shl i64 %456, 27, !taffo.info !24
  %458 = zext i32 %u5_27fixp47 to i64
  %459 = udiv i64 %457, %458
  %u5_27fixp87 = trunc i64 %459 to i32, !taffo.info !49
  %460 = fmul double 0x41A0000000000000, %449, !taffo.info !24
  %461 = fptoui double %460 to i32, !taffo.info !24
  %u5_27fixp127 = add i32 %461, %u5_27fixp87, !taffo.info !49
  %462 = uitofp i32 %u5_27fixp127 to float, !taffo.info !49
  %463 = fdiv float %462, 0x41A0000000000000, !taffo.info !49
  %464 = getelementptr inbounds [2 x float], [2 x float]* %14, i64 0, i64 0, !taffo.info !24, !taffo.initweight !26
  store float %463, float* %464, align 4, !taffo.info !24
  br label %483

; <label>:465:                                    ; preds = %442
  %466 = fpext float %429 to double, !taffo.info !24, !taffo.initweight !27
  %467 = fsub float %423, %429, !taffo.info !24, !taffo.initweight !27
  %468 = fmul float %467, %.03, !taffo.info !24, !taffo.initweight !27
  %469 = fpext float %468 to double, !taffo.info !24, !taffo.initweight !28
  %470 = fmul float 0x4190000000000000, %443, !taffo.info !24
  %s6_26fixp28 = fptosi float %470 to i32, !taffo.info !50
  %s6_26fixp68 = add i32 %s6_26fixp28, 671, !taffo.info !50, !taffo.constinfo !46
  %471 = fmul double 0x4190000000000000, %469, !taffo.info !24
  %472 = fptosi double %471 to i32, !taffo.info !24
  %473 = sext i32 %472 to i64, !taffo.info !24
  %474 = shl i64 %473, 26, !taffo.info !24
  %475 = sext i32 %s6_26fixp68 to i64
  %476 = sdiv i64 %474, %475
  %s6_26fixp108 = trunc i64 %476 to i32, !taffo.info !53
  %477 = fmul double 0x4190000000000000, %466, !taffo.info !24
  %478 = fptosi double %477 to i32, !taffo.info !24
  %s6_26fixp148 = add i32 %478, %s6_26fixp108, !taffo.info !53
  %479 = sitofp i32 %s6_26fixp148 to float, !taffo.info !53
  %480 = fdiv float %479, 0x4190000000000000, !taffo.info !53
  %481 = getelementptr inbounds [2 x float], [2 x float]* %14, i64 0, i64 0, !taffo.info !24, !taffo.initweight !26
  store float %480, float* %481, align 4, !taffo.info !24
  br label %Flow37

Flow51:                                           ; preds = %521, %Flow38
  %482 = phi i1 [ true, %521 ], [ %607, %Flow38 ]
  br i1 %482, label %884, label %Flow52

; <label>:483:                                    ; preds = %448, %Flow37
  %484 = fcmp oge float %444, 0.000000e+00, !taffo.info !24, !taffo.initweight !27
  %485 = xor i1 %484, true
  br i1 %485, label %504, label %Flow36

Flow36:                                           ; preds = %504, %483
  %486 = phi i1 [ false, %504 ], [ true, %483 ]
  br i1 %486, label %487, label %521

; <label>:487:                                    ; preds = %Flow36
  %488 = fpext float %429 to double, !taffo.info !24, !taffo.initweight !27
  %489 = fsub float %426, %429, !taffo.info !24, !taffo.initweight !27
  %490 = fmul float %489, %.03, !taffo.info !24, !taffo.initweight !27
  %491 = fpext float %490 to double, !taffo.info !24, !taffo.initweight !28
  %492 = fmul float 0x41A0000000000000, %444, !taffo.info !24
  %u5_27fixp1 = fptoui float %492 to i32, !taffo.info !43
  %u5_27fixp40 = add i32 %u5_27fixp1, 1342, !taffo.info !43, !taffo.constinfo !46
  %493 = fmul double 0x41A0000000000000, %491, !taffo.info !24
  %494 = fptoui double %493 to i32, !taffo.info !24
  %495 = zext i32 %494 to i64, !taffo.info !24
  %496 = shl i64 %495, 27, !taffo.info !24
  %497 = zext i32 %u5_27fixp40 to i64
  %498 = udiv i64 %496, %497
  %u5_27fixp80 = trunc i64 %498 to i32, !taffo.info !49
  %499 = fmul double 0x41A0000000000000, %488, !taffo.info !24
  %500 = fptoui double %499 to i32, !taffo.info !24
  %u5_27fixp120 = add i32 %500, %u5_27fixp80, !taffo.info !49
  %501 = uitofp i32 %u5_27fixp120 to float, !taffo.info !49
  %502 = fdiv float %501, 0x41A0000000000000, !taffo.info !49
  %503 = getelementptr inbounds [2 x float], [2 x float]* %14, i64 0, i64 1, !taffo.info !24, !taffo.initweight !26
  store float %502, float* %503, align 4, !taffo.info !24
  br label %521

; <label>:504:                                    ; preds = %483
  %505 = fpext float %429 to double, !taffo.info !24, !taffo.initweight !27
  %506 = fsub float %426, %429, !taffo.info !24, !taffo.initweight !27
  %507 = fmul float %506, %.03, !taffo.info !24, !taffo.initweight !27
  %508 = fpext float %507 to double, !taffo.info !24, !taffo.initweight !28
  %509 = fmul float 0x4190000000000000, %444, !taffo.info !24
  %s6_26fixp5 = fptosi float %509 to i32, !taffo.info !50
  %s6_26fixp45 = add i32 %s6_26fixp5, 671, !taffo.info !50, !taffo.constinfo !46
  %510 = fmul double 0x4190000000000000, %508, !taffo.info !24
  %511 = fptosi double %510 to i32, !taffo.info !24
  %512 = sext i32 %511 to i64, !taffo.info !24
  %513 = shl i64 %512, 26, !taffo.info !24
  %514 = sext i32 %s6_26fixp45 to i64
  %515 = sdiv i64 %513, %514
  %s6_26fixp85 = trunc i64 %515 to i32, !taffo.info !53
  %516 = fmul double 0x4190000000000000, %505, !taffo.info !24
  %517 = fptosi double %516 to i32, !taffo.info !24
  %s6_26fixp125 = add i32 %517, %s6_26fixp85, !taffo.info !53
  %518 = sitofp i32 %s6_26fixp125 to float, !taffo.info !53
  %519 = fdiv float %518, 0x4190000000000000, !taffo.info !53
  %520 = getelementptr inbounds [2 x float], [2 x float]* %14, i64 0, i64 1, !taffo.info !24, !taffo.initweight !26
  store float %519, float* %520, align 4, !taffo.info !24
  br label %Flow36

; <label>:521:                                    ; preds = %487, %Flow36
  br label %Flow51

; <label>:522:                                    ; preds = %420
  %523 = fcmp ogt float %350, 0.000000e+00, !taffo.info !24, !taffo.initweight !27, !taffo.target !42
  %524 = xor i1 %523, true
  br i1 %524, label %609, label %Flow39

Flow48:                                           ; preds = %882, %Flow47
  %525 = phi i1 [ true, %882 ], [ false, %Flow47 ]
  br label %Flow39

; <label>:526:                                    ; preds = %Flow39
  %527 = fsub float %.04, %.05, !taffo.info !24, !taffo.initweight !27
  %528 = fsub float %.04, %.03, !taffo.info !24, !taffo.initweight !27
  %529 = fcmp oge float %527, 0.000000e+00, !taffo.info !24, !taffo.initweight !27
  %530 = xor i1 %529, true
  br i1 %530, label %549, label %Flow7

Flow7:                                            ; preds = %549, %526
  %531 = phi i1 [ false, %549 ], [ true, %526 ]
  br i1 %531, label %532, label %567

; <label>:532:                                    ; preds = %Flow7
  %533 = fpext float %426 to double, !taffo.info !24, !taffo.initweight !27
  %534 = fsub float %423, %426, !taffo.info !24, !taffo.initweight !27
  %535 = fmul float %534, %.04, !taffo.info !24, !taffo.initweight !27
  %536 = fpext float %535 to double, !taffo.info !24, !taffo.initweight !28
  %537 = fmul float 0x41A0000000000000, %527, !taffo.info !24
  %u5_27fixp17 = fptoui float %537 to i32, !taffo.info !43
  %u5_27fixp57 = add i32 %u5_27fixp17, 1342, !taffo.info !43, !taffo.constinfo !46
  %538 = fmul double 0x41A0000000000000, %536, !taffo.info !24
  %539 = fptoui double %538 to i32, !taffo.info !24
  %540 = zext i32 %539 to i64, !taffo.info !24
  %541 = shl i64 %540, 27, !taffo.info !24
  %542 = zext i32 %u5_27fixp57 to i64
  %543 = udiv i64 %541, %542
  %u5_27fixp97 = trunc i64 %543 to i32, !taffo.info !49
  %544 = fmul double 0x41A0000000000000, %533, !taffo.info !24
  %545 = fptoui double %544 to i32, !taffo.info !24
  %u5_27fixp137 = add i32 %545, %u5_27fixp97, !taffo.info !49
  %546 = uitofp i32 %u5_27fixp137 to float, !taffo.info !49
  %547 = fdiv float %546, 0x41A0000000000000, !taffo.info !49
  %548 = getelementptr inbounds [2 x float], [2 x float]* %14, i64 0, i64 0, !taffo.info !24, !taffo.initweight !26
  store float %547, float* %548, align 4, !taffo.info !24
  br label %567

; <label>:549:                                    ; preds = %526
  %550 = fpext float %426 to double, !taffo.info !24, !taffo.initweight !27
  %551 = fsub float %423, %426, !taffo.info !24, !taffo.initweight !27
  %552 = fmul float %551, %.04, !taffo.info !24, !taffo.initweight !27
  %553 = fpext float %552 to double, !taffo.info !24, !taffo.initweight !28
  %554 = fmul float 0x4190000000000000, %527, !taffo.info !24
  %s6_26fixp15 = fptosi float %554 to i32, !taffo.info !50
  %s6_26fixp55 = add i32 %s6_26fixp15, 671, !taffo.info !50, !taffo.constinfo !46
  %555 = fmul double 0x4190000000000000, %553, !taffo.info !24
  %556 = fptosi double %555 to i32, !taffo.info !24
  %557 = sext i32 %556 to i64, !taffo.info !24
  %558 = shl i64 %557, 26, !taffo.info !24
  %559 = sext i32 %s6_26fixp55 to i64
  %560 = sdiv i64 %558, %559
  %s6_26fixp95 = trunc i64 %560 to i32, !taffo.info !53
  %561 = fmul double 0x4190000000000000, %550, !taffo.info !24
  %562 = fptosi double %561 to i32, !taffo.info !24
  %s6_26fixp135 = add i32 %562, %s6_26fixp95, !taffo.info !53
  %563 = sitofp i32 %s6_26fixp135 to float, !taffo.info !53
  %564 = fdiv float %563, 0x4190000000000000, !taffo.info !53
  %565 = getelementptr inbounds [2 x float], [2 x float]* %14, i64 0, i64 0, !taffo.info !24, !taffo.initweight !26
  store float %564, float* %565, align 4, !taffo.info !24
  br label %Flow7

Flow49:                                           ; preds = %605, %Flow39
  %566 = phi i1 [ true, %605 ], [ %614, %Flow39 ]
  br i1 %566, label %883, label %Flow50

; <label>:567:                                    ; preds = %532, %Flow7
  %568 = fcmp oge float %528, 0.000000e+00, !taffo.info !24, !taffo.initweight !27
  %569 = xor i1 %568, true
  br i1 %569, label %588, label %Flow6

Flow6:                                            ; preds = %588, %567
  %570 = phi i1 [ false, %588 ], [ true, %567 ]
  br i1 %570, label %571, label %605

; <label>:571:                                    ; preds = %Flow6
  %572 = fpext float %426 to double, !taffo.info !24, !taffo.initweight !27
  %573 = fsub float %429, %426, !taffo.info !24, !taffo.initweight !27
  %574 = fmul float %573, %.04, !taffo.info !24, !taffo.initweight !27
  %575 = fpext float %574 to double, !taffo.info !24, !taffo.initweight !28
  %576 = fmul float 0x41A0000000000000, %528, !taffo.info !24
  %u5_27fixp29 = fptoui float %576 to i32, !taffo.info !43
  %u5_27fixp69 = add i32 %u5_27fixp29, 1342, !taffo.info !43, !taffo.constinfo !46
  %577 = fmul double 0x41A0000000000000, %575, !taffo.info !24
  %578 = fptoui double %577 to i32, !taffo.info !24
  %579 = zext i32 %578 to i64, !taffo.info !24
  %580 = shl i64 %579, 27, !taffo.info !24
  %581 = zext i32 %u5_27fixp69 to i64
  %582 = udiv i64 %580, %581
  %u5_27fixp109 = trunc i64 %582 to i32, !taffo.info !49
  %583 = fmul double 0x41A0000000000000, %572, !taffo.info !24
  %584 = fptoui double %583 to i32, !taffo.info !24
  %u5_27fixp149 = add i32 %584, %u5_27fixp109, !taffo.info !49
  %585 = uitofp i32 %u5_27fixp149 to float, !taffo.info !49
  %586 = fdiv float %585, 0x41A0000000000000, !taffo.info !49
  %587 = getelementptr inbounds [2 x float], [2 x float]* %14, i64 0, i64 1, !taffo.info !24, !taffo.initweight !26
  store float %586, float* %587, align 4, !taffo.info !24
  br label %605

; <label>:588:                                    ; preds = %567
  %589 = fpext float %426 to double, !taffo.info !24, !taffo.initweight !27
  %590 = fsub float %429, %426, !taffo.info !24, !taffo.initweight !27
  %591 = fmul float %590, %.04, !taffo.info !24, !taffo.initweight !27
  %592 = fpext float %591 to double, !taffo.info !24, !taffo.initweight !28
  %593 = fmul float 0x4190000000000000, %528, !taffo.info !24
  %s6_26fixp33 = fptosi float %593 to i32, !taffo.info !50
  %s6_26fixp73 = add i32 %s6_26fixp33, 671, !taffo.info !50, !taffo.constinfo !46
  %594 = fmul double 0x4190000000000000, %592, !taffo.info !24
  %595 = fptosi double %594 to i32, !taffo.info !24
  %596 = sext i32 %595 to i64, !taffo.info !24
  %597 = shl i64 %596, 26, !taffo.info !24
  %598 = sext i32 %s6_26fixp73 to i64
  %599 = sdiv i64 %597, %598
  %s6_26fixp113 = trunc i64 %599 to i32, !taffo.info !53
  %600 = fmul double 0x4190000000000000, %589, !taffo.info !24
  %601 = fptosi double %600 to i32, !taffo.info !24
  %s6_26fixp153 = add i32 %601, %s6_26fixp113, !taffo.info !53
  %602 = sitofp i32 %s6_26fixp153 to float, !taffo.info !53
  %603 = fdiv float %602, 0x4190000000000000, !taffo.info !53
  %604 = getelementptr inbounds [2 x float], [2 x float]* %14, i64 0, i64 1, !taffo.info !24, !taffo.initweight !26
  store float %603, float* %604, align 4, !taffo.info !24
  br label %Flow6

; <label>:605:                                    ; preds = %571, %Flow6
  br label %Flow49

Flow38:                                           ; preds = %Flow50, %420
  %606 = phi i32 [ %613, %Flow50 ], [ undef, %420 ]
  %607 = phi i1 [ %441, %Flow50 ], [ false, %420 ]
  %608 = phi i1 [ false, %Flow50 ], [ true, %420 ]
  br i1 %608, label %442, label %Flow51

; <label>:609:                                    ; preds = %522
  %610 = fmul float %.04, %.03, !taffo.info !24, !taffo.initweight !27
  %611 = fcmp ogt float %610, 0.000000e+00, !taffo.info !24, !taffo.initweight !28
  %612 = xor i1 %611, true
  br i1 %612, label %616, label %Flow40

Flow39:                                           ; preds = %Flow48, %522
  %613 = phi i32 [ %700, %Flow48 ], [ undef, %522 ]
  %614 = phi i1 [ %525, %Flow48 ], [ false, %522 ]
  %615 = phi i1 [ false, %Flow48 ], [ true, %522 ]
  br i1 %615, label %526, label %Flow49

; <label>:616:                                    ; preds = %609
  %617 = fcmp une float %.05, 0.000000e+00, !taffo.info !24, !taffo.initweight !27
  %618 = xor i1 %617, true
  br i1 %618, label %703, label %Flow41

Flow46:                                           ; preds = %881, %Flow45
  %619 = phi i1 [ true, %881 ], [ false, %Flow45 ]
  br label %Flow41

; <label>:620:                                    ; preds = %Flow40
  %621 = fsub float %.05, %.04, !taffo.info !24, !taffo.initweight !27
  %622 = fsub float %.05, %.03, !taffo.info !24, !taffo.initweight !27
  %623 = fcmp oge float %621, 0.000000e+00, !taffo.info !24, !taffo.initweight !27
  %624 = xor i1 %623, true
  br i1 %624, label %643, label %Flow5

Flow5:                                            ; preds = %643, %620
  %625 = phi i1 [ false, %643 ], [ true, %620 ]
  br i1 %625, label %626, label %661

; <label>:626:                                    ; preds = %Flow5
  %627 = fpext float %423 to double, !taffo.info !24, !taffo.initweight !27
  %628 = fsub float %426, %423, !taffo.info !24, !taffo.initweight !27
  %629 = fmul float %628, %.05, !taffo.info !24, !taffo.initweight !27
  %630 = fpext float %629 to double, !taffo.info !24, !taffo.initweight !28
  %631 = fmul float 0x41A0000000000000, %621, !taffo.info !24
  %u5_27fixp18 = fptoui float %631 to i32, !taffo.info !43
  %u5_27fixp58 = add i32 %u5_27fixp18, 1342, !taffo.info !43, !taffo.constinfo !46
  %632 = fmul double 0x41A0000000000000, %630, !taffo.info !24
  %633 = fptoui double %632 to i32, !taffo.info !24
  %634 = zext i32 %633 to i64, !taffo.info !24
  %635 = shl i64 %634, 27, !taffo.info !24
  %636 = zext i32 %u5_27fixp58 to i64
  %637 = udiv i64 %635, %636
  %u5_27fixp98 = trunc i64 %637 to i32, !taffo.info !49
  %638 = fmul double 0x41A0000000000000, %627, !taffo.info !24
  %639 = fptoui double %638 to i32, !taffo.info !24
  %u5_27fixp138 = add i32 %639, %u5_27fixp98, !taffo.info !49
  %640 = uitofp i32 %u5_27fixp138 to float, !taffo.info !49
  %641 = fdiv float %640, 0x41A0000000000000, !taffo.info !49
  %642 = getelementptr inbounds [2 x float], [2 x float]* %14, i64 0, i64 0, !taffo.info !24, !taffo.initweight !26
  store float %641, float* %642, align 4, !taffo.info !24
  br label %661

; <label>:643:                                    ; preds = %620
  %644 = fpext float %423 to double, !taffo.info !24, !taffo.initweight !27
  %645 = fsub float %426, %423, !taffo.info !24, !taffo.initweight !27
  %646 = fmul float %645, %.05, !taffo.info !24, !taffo.initweight !27
  %647 = fpext float %646 to double, !taffo.info !24, !taffo.initweight !28
  %648 = fmul float 0x4190000000000000, %621, !taffo.info !24
  %s6_26fixp12 = fptosi float %648 to i32, !taffo.info !50
  %s6_26fixp52 = add i32 %s6_26fixp12, 671, !taffo.info !50, !taffo.constinfo !46
  %649 = fmul double 0x4190000000000000, %647, !taffo.info !24
  %650 = fptosi double %649 to i32, !taffo.info !24
  %651 = sext i32 %650 to i64, !taffo.info !24
  %652 = shl i64 %651, 26, !taffo.info !24
  %653 = sext i32 %s6_26fixp52 to i64
  %654 = sdiv i64 %652, %653
  %s6_26fixp92 = trunc i64 %654 to i32, !taffo.info !53
  %655 = fmul double 0x4190000000000000, %644, !taffo.info !24
  %656 = fptosi double %655 to i32, !taffo.info !24
  %s6_26fixp132 = add i32 %656, %s6_26fixp92, !taffo.info !53
  %657 = sitofp i32 %s6_26fixp132 to float, !taffo.info !53
  %658 = fdiv float %657, 0x4190000000000000, !taffo.info !53
  %659 = getelementptr inbounds [2 x float], [2 x float]* %14, i64 0, i64 0, !taffo.info !24, !taffo.initweight !26
  store float %658, float* %659, align 4, !taffo.info !24
  br label %Flow5

Flow47:                                           ; preds = %699, %Flow40
  %660 = phi i1 [ true, %699 ], [ %701, %Flow40 ]
  br i1 %660, label %882, label %Flow48

; <label>:661:                                    ; preds = %626, %Flow5
  %662 = fcmp oge float %622, 0.000000e+00, !taffo.info !24, !taffo.initweight !27
  %663 = xor i1 %662, true
  br i1 %663, label %682, label %Flow4

Flow4:                                            ; preds = %682, %661
  %664 = phi i1 [ false, %682 ], [ true, %661 ]
  br i1 %664, label %665, label %699

; <label>:665:                                    ; preds = %Flow4
  %666 = fpext float %423 to double, !taffo.info !24, !taffo.initweight !27
  %667 = fsub float %429, %423, !taffo.info !24, !taffo.initweight !27
  %668 = fmul float %667, %.05, !taffo.info !24, !taffo.initweight !27
  %669 = fpext float %668 to double, !taffo.info !24, !taffo.initweight !28
  %670 = fmul float 0x41A0000000000000, %622, !taffo.info !24
  %u5_27fixp19 = fptoui float %670 to i32, !taffo.info !43
  %u5_27fixp59 = add i32 %u5_27fixp19, 1342, !taffo.info !43, !taffo.constinfo !46
  %671 = fmul double 0x41A0000000000000, %669, !taffo.info !24
  %672 = fptoui double %671 to i32, !taffo.info !24
  %673 = zext i32 %672 to i64, !taffo.info !24
  %674 = shl i64 %673, 27, !taffo.info !24
  %675 = zext i32 %u5_27fixp59 to i64
  %676 = udiv i64 %674, %675
  %u5_27fixp99 = trunc i64 %676 to i32, !taffo.info !49
  %677 = fmul double 0x41A0000000000000, %666, !taffo.info !24
  %678 = fptoui double %677 to i32, !taffo.info !24
  %u5_27fixp139 = add i32 %678, %u5_27fixp99, !taffo.info !49
  %679 = uitofp i32 %u5_27fixp139 to float, !taffo.info !49
  %680 = fdiv float %679, 0x41A0000000000000, !taffo.info !49
  %681 = getelementptr inbounds [2 x float], [2 x float]* %14, i64 0, i64 1, !taffo.info !24, !taffo.initweight !26
  store float %680, float* %681, align 4, !taffo.info !24
  br label %699

; <label>:682:                                    ; preds = %661
  %683 = fpext float %423 to double, !taffo.info !24, !taffo.initweight !27
  %684 = fsub float %429, %423, !taffo.info !24, !taffo.initweight !27
  %685 = fmul float %684, %.05, !taffo.info !24, !taffo.initweight !27
  %686 = fpext float %685 to double, !taffo.info !24, !taffo.initweight !28
  %687 = fmul float 0x4190000000000000, %622, !taffo.info !24
  %s6_26fixp27 = fptosi float %687 to i32, !taffo.info !50
  %s6_26fixp67 = add i32 %s6_26fixp27, 671, !taffo.info !50, !taffo.constinfo !46
  %688 = fmul double 0x4190000000000000, %686, !taffo.info !24
  %689 = fptosi double %688 to i32, !taffo.info !24
  %690 = sext i32 %689 to i64, !taffo.info !24
  %691 = shl i64 %690, 26, !taffo.info !24
  %692 = sext i32 %s6_26fixp67 to i64
  %693 = sdiv i64 %691, %692
  %s6_26fixp107 = trunc i64 %693 to i32, !taffo.info !53
  %694 = fmul double 0x4190000000000000, %683, !taffo.info !24
  %695 = fptosi double %694 to i32, !taffo.info !24
  %s6_26fixp147 = add i32 %695, %s6_26fixp107, !taffo.info !53
  %696 = sitofp i32 %s6_26fixp147 to float, !taffo.info !53
  %697 = fdiv float %696, 0x4190000000000000, !taffo.info !53
  %698 = getelementptr inbounds [2 x float], [2 x float]* %14, i64 0, i64 1, !taffo.info !24, !taffo.initweight !26
  store float %697, float* %698, align 4, !taffo.info !24
  br label %Flow4

; <label>:699:                                    ; preds = %665, %Flow4
  br label %Flow47

Flow40:                                           ; preds = %Flow41, %609
  %700 = phi i32 [ %786, %Flow41 ], [ undef, %609 ]
  %701 = phi i1 [ %787, %Flow41 ], [ false, %609 ]
  %702 = phi i1 [ %788, %Flow41 ], [ %611, %609 ]
  br i1 %702, label %620, label %Flow47

; <label>:703:                                    ; preds = %616
  %704 = fcmp une float %.04, 0.000000e+00, !taffo.info !24, !taffo.initweight !27
  %705 = xor i1 %704, true
  br i1 %705, label %789, label %Flow42

; <label>:706:                                    ; preds = %Flow42
  %707 = fsub float %.04, %.05, !taffo.info !24, !taffo.initweight !27
  %708 = fsub float %.04, %.03, !taffo.info !24, !taffo.initweight !27
  %709 = fcmp oge float %707, 0.000000e+00, !taffo.info !24, !taffo.initweight !27
  %710 = xor i1 %709, true
  br i1 %710, label %729, label %Flow3

Flow3:                                            ; preds = %729, %706
  %711 = phi i1 [ false, %729 ], [ true, %706 ]
  br i1 %711, label %712, label %747

; <label>:712:                                    ; preds = %Flow3
  %713 = fpext float %426 to double, !taffo.info !24, !taffo.initweight !27
  %714 = fsub float %423, %426, !taffo.info !24, !taffo.initweight !27
  %715 = fmul float %714, %.04, !taffo.info !24, !taffo.initweight !27
  %716 = fpext float %715 to double, !taffo.info !24, !taffo.initweight !28
  %717 = fmul float 0x41A0000000000000, %707, !taffo.info !24
  %u5_27fixp22 = fptoui float %717 to i32, !taffo.info !43
  %u5_27fixp62 = add i32 %u5_27fixp22, 1342, !taffo.info !43, !taffo.constinfo !46
  %718 = fmul double 0x41A0000000000000, %716, !taffo.info !24
  %719 = fptoui double %718 to i32, !taffo.info !24
  %720 = zext i32 %719 to i64, !taffo.info !24
  %721 = shl i64 %720, 27, !taffo.info !24
  %722 = zext i32 %u5_27fixp62 to i64
  %723 = udiv i64 %721, %722
  %u5_27fixp102 = trunc i64 %723 to i32, !taffo.info !49
  %724 = fmul double 0x41A0000000000000, %713, !taffo.info !24
  %725 = fptoui double %724 to i32, !taffo.info !24
  %u5_27fixp142 = add i32 %725, %u5_27fixp102, !taffo.info !49
  %726 = uitofp i32 %u5_27fixp142 to float, !taffo.info !49
  %727 = fdiv float %726, 0x41A0000000000000, !taffo.info !49
  %728 = getelementptr inbounds [2 x float], [2 x float]* %14, i64 0, i64 0, !taffo.info !24, !taffo.initweight !26
  store float %727, float* %728, align 4, !taffo.info !24
  br label %747

; <label>:729:                                    ; preds = %706
  %730 = fpext float %426 to double, !taffo.info !24, !taffo.initweight !27
  %731 = fsub float %423, %426, !taffo.info !24, !taffo.initweight !27
  %732 = fmul float %731, %.04, !taffo.info !24, !taffo.initweight !27
  %733 = fpext float %732 to double, !taffo.info !24, !taffo.initweight !28
  %734 = fmul float 0x4190000000000000, %707, !taffo.info !24
  %s6_26fixp25 = fptosi float %734 to i32, !taffo.info !50
  %s6_26fixp65 = add i32 %s6_26fixp25, 671, !taffo.info !50, !taffo.constinfo !46
  %735 = fmul double 0x4190000000000000, %733, !taffo.info !24
  %736 = fptosi double %735 to i32, !taffo.info !24
  %737 = sext i32 %736 to i64, !taffo.info !24
  %738 = shl i64 %737, 26, !taffo.info !24
  %739 = sext i32 %s6_26fixp65 to i64
  %740 = sdiv i64 %738, %739
  %s6_26fixp105 = trunc i64 %740 to i32, !taffo.info !53
  %741 = fmul double 0x4190000000000000, %730, !taffo.info !24
  %742 = fptosi double %741 to i32, !taffo.info !24
  %s6_26fixp145 = add i32 %742, %s6_26fixp105, !taffo.info !53
  %743 = sitofp i32 %s6_26fixp145 to float, !taffo.info !53
  %744 = fdiv float %743, 0x4190000000000000, !taffo.info !53
  %745 = getelementptr inbounds [2 x float], [2 x float]* %14, i64 0, i64 0, !taffo.info !24, !taffo.initweight !26
  store float %744, float* %745, align 4, !taffo.info !24
  br label %Flow3

Flow45:                                           ; preds = %785, %Flow42
  %746 = phi i1 [ true, %785 ], [ %875, %Flow42 ]
  br i1 %746, label %881, label %Flow46

; <label>:747:                                    ; preds = %712, %Flow3
  %748 = fcmp oge float %708, 0.000000e+00, !taffo.info !24, !taffo.initweight !27
  %749 = xor i1 %748, true
  br i1 %749, label %768, label %Flow2

Flow2:                                            ; preds = %768, %747
  %750 = phi i1 [ false, %768 ], [ true, %747 ]
  br i1 %750, label %751, label %785

; <label>:751:                                    ; preds = %Flow2
  %752 = fpext float %426 to double, !taffo.info !24, !taffo.initweight !27
  %753 = fsub float %429, %426, !taffo.info !24, !taffo.initweight !27
  %754 = fmul float %753, %.04, !taffo.info !24, !taffo.initweight !27
  %755 = fpext float %754 to double, !taffo.info !24, !taffo.initweight !28
  %756 = fmul float 0x41A0000000000000, %708, !taffo.info !24
  %u5_27fixp11 = fptoui float %756 to i32, !taffo.info !43
  %u5_27fixp51 = add i32 %u5_27fixp11, 1342, !taffo.info !43, !taffo.constinfo !46
  %757 = fmul double 0x41A0000000000000, %755, !taffo.info !24
  %758 = fptoui double %757 to i32, !taffo.info !24
  %759 = zext i32 %758 to i64, !taffo.info !24
  %760 = shl i64 %759, 27, !taffo.info !24
  %761 = zext i32 %u5_27fixp51 to i64
  %762 = udiv i64 %760, %761
  %u5_27fixp91 = trunc i64 %762 to i32, !taffo.info !49
  %763 = fmul double 0x41A0000000000000, %752, !taffo.info !24
  %764 = fptoui double %763 to i32, !taffo.info !24
  %u5_27fixp131 = add i32 %764, %u5_27fixp91, !taffo.info !49
  %765 = uitofp i32 %u5_27fixp131 to float, !taffo.info !49
  %766 = fdiv float %765, 0x41A0000000000000, !taffo.info !49
  %767 = getelementptr inbounds [2 x float], [2 x float]* %14, i64 0, i64 1, !taffo.info !24, !taffo.initweight !26
  store float %766, float* %767, align 4, !taffo.info !24
  br label %785

; <label>:768:                                    ; preds = %747
  %769 = fpext float %426 to double, !taffo.info !24, !taffo.initweight !27
  %770 = fsub float %429, %426, !taffo.info !24, !taffo.initweight !27
  %771 = fmul float %770, %.04, !taffo.info !24, !taffo.initweight !27
  %772 = fpext float %771 to double, !taffo.info !24, !taffo.initweight !28
  %773 = fmul float 0x4190000000000000, %708, !taffo.info !24
  %s6_26fixp13 = fptosi float %773 to i32, !taffo.info !50
  %s6_26fixp53 = add i32 %s6_26fixp13, 671, !taffo.info !50, !taffo.constinfo !46
  %774 = fmul double 0x4190000000000000, %772, !taffo.info !24
  %775 = fptosi double %774 to i32, !taffo.info !24
  %776 = sext i32 %775 to i64, !taffo.info !24
  %777 = shl i64 %776, 26, !taffo.info !24
  %778 = sext i32 %s6_26fixp53 to i64
  %779 = sdiv i64 %777, %778
  %s6_26fixp93 = trunc i64 %779 to i32, !taffo.info !53
  %780 = fmul double 0x4190000000000000, %769, !taffo.info !24
  %781 = fptosi double %780 to i32, !taffo.info !24
  %s6_26fixp133 = add i32 %781, %s6_26fixp93, !taffo.info !53
  %782 = sitofp i32 %s6_26fixp133 to float, !taffo.info !53
  %783 = fdiv float %782, 0x4190000000000000, !taffo.info !53
  %784 = getelementptr inbounds [2 x float], [2 x float]* %14, i64 0, i64 1, !taffo.info !24, !taffo.initweight !26
  store float %783, float* %784, align 4, !taffo.info !24
  br label %Flow2

; <label>:785:                                    ; preds = %751, %Flow2
  br label %Flow45

Flow41:                                           ; preds = %Flow46, %616
  %786 = phi i32 [ %874, %Flow46 ], [ undef, %616 ]
  %787 = phi i1 [ %619, %Flow46 ], [ false, %616 ]
  %788 = phi i1 [ false, %Flow46 ], [ true, %616 ]
  br label %Flow40

; <label>:789:                                    ; preds = %703
  %790 = fcmp une float %.03, 0.000000e+00, !taffo.info !24, !taffo.initweight !27
  %791 = xor i1 %790, true
  br i1 %791, label %877, label %Flow43

Flow43:                                           ; preds = %877, %789
  %792 = phi i32 [ %879, %877 ], [ undef, %789 ]
  %793 = phi i1 [ false, %877 ], [ true, %789 ]
  br i1 %793, label %794, label %Flow44

; <label>:794:                                    ; preds = %Flow43
  %795 = fsub float %.03, %.05, !taffo.info !24, !taffo.initweight !27
  %796 = fsub float %.03, %.04, !taffo.info !24, !taffo.initweight !27
  %797 = fcmp oge float %795, 0.000000e+00, !taffo.info !24, !taffo.initweight !27
  %798 = xor i1 %797, true
  br i1 %798, label %817, label %Flow1

Flow1:                                            ; preds = %817, %794
  %799 = phi i1 [ false, %817 ], [ true, %794 ]
  br i1 %799, label %800, label %835

; <label>:800:                                    ; preds = %Flow1
  %801 = fpext float %429 to double, !taffo.info !24, !taffo.initweight !27
  %802 = fsub float %423, %429, !taffo.info !24, !taffo.initweight !27
  %803 = fmul float %802, %.03, !taffo.info !24, !taffo.initweight !27
  %804 = fpext float %803 to double, !taffo.info !24, !taffo.initweight !28
  %805 = fmul float 0x41A0000000000000, %795, !taffo.info !24
  %u5_27fixp = fptoui float %805 to i32, !taffo.info !43
  %u5_27fixp39 = add i32 %u5_27fixp, 1342, !taffo.info !43, !taffo.constinfo !46
  %806 = fmul double 0x41A0000000000000, %804, !taffo.info !24
  %807 = fptoui double %806 to i32, !taffo.info !24
  %808 = zext i32 %807 to i64, !taffo.info !24
  %809 = shl i64 %808, 27, !taffo.info !24
  %810 = zext i32 %u5_27fixp39 to i64
  %811 = udiv i64 %809, %810
  %u5_27fixp79 = trunc i64 %811 to i32, !taffo.info !49
  %812 = fmul double 0x41A0000000000000, %801, !taffo.info !24
  %813 = fptoui double %812 to i32, !taffo.info !24
  %u5_27fixp119 = add i32 %813, %u5_27fixp79, !taffo.info !49
  %814 = uitofp i32 %u5_27fixp119 to float, !taffo.info !49
  %815 = fdiv float %814, 0x41A0000000000000, !taffo.info !49
  %816 = getelementptr inbounds [2 x float], [2 x float]* %14, i64 0, i64 0, !taffo.info !24, !taffo.initweight !26
  store float %815, float* %816, align 4, !taffo.info !24
  br label %835

; <label>:817:                                    ; preds = %794
  %818 = fpext float %429 to double, !taffo.info !24, !taffo.initweight !27
  %819 = fsub float %423, %429, !taffo.info !24, !taffo.initweight !27
  %820 = fmul float %819, %.03, !taffo.info !24, !taffo.initweight !27
  %821 = fpext float %820 to double, !taffo.info !24, !taffo.initweight !28
  %822 = fmul float 0x4190000000000000, %795, !taffo.info !24
  %s6_26fixp3 = fptosi float %822 to i32, !taffo.info !50
  %s6_26fixp43 = add i32 %s6_26fixp3, 671, !taffo.info !50, !taffo.constinfo !46
  %823 = fmul double 0x4190000000000000, %821, !taffo.info !24
  %824 = fptosi double %823 to i32, !taffo.info !24
  %825 = sext i32 %824 to i64, !taffo.info !24
  %826 = shl i64 %825, 26, !taffo.info !24
  %827 = sext i32 %s6_26fixp43 to i64
  %828 = sdiv i64 %826, %827
  %s6_26fixp83 = trunc i64 %828 to i32, !taffo.info !53
  %829 = fmul double 0x4190000000000000, %818, !taffo.info !24
  %830 = fptosi double %829 to i32, !taffo.info !24
  %s6_26fixp123 = add i32 %830, %s6_26fixp83, !taffo.info !53
  %831 = sitofp i32 %s6_26fixp123 to float, !taffo.info !53
  %832 = fdiv float %831, 0x4190000000000000, !taffo.info !53
  %833 = getelementptr inbounds [2 x float], [2 x float]* %14, i64 0, i64 0, !taffo.info !24, !taffo.initweight !26
  store float %832, float* %833, align 4, !taffo.info !24
  br label %Flow1

Flow44:                                           ; preds = %880, %Flow43
  %834 = phi i1 [ true, %880 ], [ false, %Flow43 ]
  br label %Flow42

; <label>:835:                                    ; preds = %800, %Flow1
  %836 = fcmp oge float %796, 0.000000e+00, !taffo.info !24, !taffo.initweight !27
  %837 = xor i1 %836, true
  br i1 %837, label %856, label %Flow

Flow:                                             ; preds = %856, %835
  %838 = phi i1 [ false, %856 ], [ true, %835 ]
  br i1 %838, label %839, label %873

; <label>:839:                                    ; preds = %Flow
  %840 = fpext float %429 to double, !taffo.info !24, !taffo.initweight !27
  %841 = fsub float %426, %429, !taffo.info !24, !taffo.initweight !27
  %842 = fmul float %841, %.03, !taffo.info !24, !taffo.initweight !27
  %843 = fpext float %842 to double, !taffo.info !24, !taffo.initweight !28
  %844 = fmul float 0x41A0000000000000, %796, !taffo.info !24
  %u5_27fixp10 = fptoui float %844 to i32, !taffo.info !43
  %u5_27fixp50 = add i32 %u5_27fixp10, 1342, !taffo.info !43, !taffo.constinfo !46
  %845 = fmul double 0x41A0000000000000, %843, !taffo.info !24
  %846 = fptoui double %845 to i32, !taffo.info !24
  %847 = zext i32 %846 to i64, !taffo.info !24
  %848 = shl i64 %847, 27, !taffo.info !24
  %849 = zext i32 %u5_27fixp50 to i64
  %850 = udiv i64 %848, %849
  %u5_27fixp90 = trunc i64 %850 to i32, !taffo.info !49
  %851 = fmul double 0x41A0000000000000, %840, !taffo.info !24
  %852 = fptoui double %851 to i32, !taffo.info !24
  %u5_27fixp130 = add i32 %852, %u5_27fixp90, !taffo.info !49
  %853 = uitofp i32 %u5_27fixp130 to float, !taffo.info !49
  %854 = fdiv float %853, 0x41A0000000000000, !taffo.info !49
  %855 = getelementptr inbounds [2 x float], [2 x float]* %14, i64 0, i64 1, !taffo.info !24, !taffo.initweight !26
  store float %854, float* %855, align 4, !taffo.info !24
  br label %873

; <label>:856:                                    ; preds = %835
  %857 = fpext float %429 to double, !taffo.info !24, !taffo.initweight !27
  %858 = fsub float %426, %429, !taffo.info !24, !taffo.initweight !27
  %859 = fmul float %858, %.03, !taffo.info !24, !taffo.initweight !27
  %860 = fpext float %859 to double, !taffo.info !24, !taffo.initweight !28
  %861 = fmul float 0x4190000000000000, %796, !taffo.info !24
  %s6_26fixp26 = fptosi float %861 to i32, !taffo.info !50
  %s6_26fixp66 = add i32 %s6_26fixp26, 671, !taffo.info !50, !taffo.constinfo !46
  %862 = fmul double 0x4190000000000000, %860, !taffo.info !24
  %863 = fptosi double %862 to i32, !taffo.info !24
  %864 = sext i32 %863 to i64, !taffo.info !24
  %865 = shl i64 %864, 26, !taffo.info !24
  %866 = sext i32 %s6_26fixp66 to i64
  %867 = sdiv i64 %865, %866
  %s6_26fixp106 = trunc i64 %867 to i32, !taffo.info !53
  %868 = fmul double 0x4190000000000000, %857, !taffo.info !24
  %869 = fptosi double %868 to i32, !taffo.info !24
  %s6_26fixp146 = add i32 %869, %s6_26fixp106, !taffo.info !53
  %870 = sitofp i32 %s6_26fixp146 to float, !taffo.info !53
  %871 = fdiv float %870, 0x4190000000000000, !taffo.info !53
  %872 = getelementptr inbounds [2 x float], [2 x float]* %14, i64 0, i64 1, !taffo.info !24, !taffo.initweight !26
  store float %871, float* %872, align 4, !taffo.info !24
  br label %Flow

; <label>:873:                                    ; preds = %839, %Flow
  br label %880

Flow42:                                           ; preds = %Flow44, %703
  %874 = phi i32 [ %792, %Flow44 ], [ undef, %703 ]
  %875 = phi i1 [ %834, %Flow44 ], [ false, %703 ]
  %876 = phi i1 [ false, %Flow44 ], [ true, %703 ]
  br i1 %876, label %706, label %Flow45

; <label>:877:                                    ; preds = %789
  %878 = getelementptr inbounds [3 x float], [3 x float]* %11, i32 0, i32 0, !taffo.info !24, !taffo.initweight !26
  %879 = call i32 @_Z16coplanar_tri_triPfS_S_S_S_S_S_.1(float* %878, float* %0, float* %1, float* %2, float* %3, float* %4, float* %5), !taffo.info !24, !taffo.initweight !27, !taffo.constinfo !54, !taffo.originalCall !55
  br label %Flow43

; <label>:880:                                    ; preds = %873
  br label %Flow44

; <label>:881:                                    ; preds = %Flow45
  br label %Flow46

; <label>:882:                                    ; preds = %Flow47
  br label %Flow48

; <label>:883:                                    ; preds = %Flow49
  br label %Flow50

; <label>:884:                                    ; preds = %Flow51
  store i32 3, i32* %7, align 4, !taffo.constinfo !15
  %885 = fcmp ogt float %175, 0.000000e+00, !taffo.info !24, !taffo.initweight !27, !taffo.target !39
  %886 = xor i1 %885, true
  br i1 %886, label %968, label %Flow21

Flow33:                                           ; preds = %1329, %Flow32
  %887 = phi i1 [ true, %1329 ], [ false, %Flow32 ]
  br label %Flow21

; <label>:888:                                    ; preds = %Flow21
  %889 = fsub float %.06, %.08, !taffo.info !24, !taffo.initweight !27
  %890 = fsub float %.06, %.07, !taffo.info !24, !taffo.initweight !27
  %891 = fcmp oge float %889, 0.000000e+00, !taffo.info !24, !taffo.initweight !27
  %892 = xor i1 %891, true
  br i1 %892, label %911, label %Flow20

Flow20:                                           ; preds = %911, %888
  %893 = phi i1 [ false, %911 ], [ true, %888 ]
  br i1 %893, label %894, label %929

; <label>:894:                                    ; preds = %Flow20
  %895 = fpext float %438 to double, !taffo.info !24, !taffo.initweight !27
  %896 = fsub float %432, %438, !taffo.info !24, !taffo.initweight !27
  %897 = fmul float %896, %.06, !taffo.info !24, !taffo.initweight !27
  %898 = fpext float %897 to double, !taffo.info !24, !taffo.initweight !28
  %899 = fmul float 0x41A0000000000000, %889, !taffo.info !24
  %u5_27fixp23 = fptoui float %899 to i32, !taffo.info !43
  %u5_27fixp63 = add i32 %u5_27fixp23, 1342, !taffo.info !43, !taffo.constinfo !46
  %900 = fmul double 0x41A0000000000000, %898, !taffo.info !24
  %901 = fptoui double %900 to i32, !taffo.info !24
  %902 = zext i32 %901 to i64, !taffo.info !24
  %903 = shl i64 %902, 27, !taffo.info !24
  %904 = zext i32 %u5_27fixp63 to i64
  %905 = udiv i64 %903, %904
  %u5_27fixp103 = trunc i64 %905 to i32, !taffo.info !49
  %906 = fmul double 0x41A0000000000000, %895, !taffo.info !24
  %907 = fptoui double %906 to i32, !taffo.info !24
  %u5_27fixp143 = add i32 %907, %u5_27fixp103, !taffo.info !49
  %908 = uitofp i32 %u5_27fixp143 to float, !taffo.info !49
  %909 = fdiv float %908, 0x41A0000000000000, !taffo.info !49
  %910 = getelementptr inbounds [2 x float], [2 x float]* %15, i64 0, i64 0, !taffo.info !24, !taffo.initweight !26
  store float %909, float* %910, align 4, !taffo.info !24
  br label %929

; <label>:911:                                    ; preds = %888
  %912 = fpext float %438 to double, !taffo.info !24, !taffo.initweight !27
  %913 = fsub float %432, %438, !taffo.info !24, !taffo.initweight !27
  %914 = fmul float %913, %.06, !taffo.info !24, !taffo.initweight !27
  %915 = fpext float %914 to double, !taffo.info !24, !taffo.initweight !28
  %916 = fmul float 0x4190000000000000, %889, !taffo.info !24
  %s6_26fixp31 = fptosi float %916 to i32, !taffo.info !50
  %s6_26fixp71 = add i32 %s6_26fixp31, 671, !taffo.info !50, !taffo.constinfo !46
  %917 = fmul double 0x4190000000000000, %915, !taffo.info !24
  %918 = fptosi double %917 to i32, !taffo.info !24
  %919 = sext i32 %918 to i64, !taffo.info !24
  %920 = shl i64 %919, 26, !taffo.info !24
  %921 = sext i32 %s6_26fixp71 to i64
  %922 = sdiv i64 %920, %921
  %s6_26fixp111 = trunc i64 %922 to i32, !taffo.info !53
  %923 = fmul double 0x4190000000000000, %912, !taffo.info !24
  %924 = fptosi double %923 to i32, !taffo.info !24
  %s6_26fixp151 = add i32 %924, %s6_26fixp111, !taffo.info !53
  %925 = sitofp i32 %s6_26fixp151 to float, !taffo.info !53
  %926 = fdiv float %925, 0x4190000000000000, !taffo.info !53
  %927 = getelementptr inbounds [2 x float], [2 x float]* %15, i64 0, i64 0, !taffo.info !24, !taffo.initweight !26
  store float %926, float* %927, align 4, !taffo.info !24
  br label %Flow20

Flow34:                                           ; preds = %967, %Flow21
  %928 = phi i1 [ true, %967 ], [ %1053, %Flow21 ]
  br i1 %928, label %1330, label %Flow35

; <label>:929:                                    ; preds = %894, %Flow20
  %930 = fcmp oge float %890, 0.000000e+00, !taffo.info !24, !taffo.initweight !27
  %931 = xor i1 %930, true
  br i1 %931, label %950, label %Flow19

Flow19:                                           ; preds = %950, %929
  %932 = phi i1 [ false, %950 ], [ true, %929 ]
  br i1 %932, label %933, label %967

; <label>:933:                                    ; preds = %Flow19
  %934 = fpext float %438 to double, !taffo.info !24, !taffo.initweight !27
  %935 = fsub float %435, %438, !taffo.info !24, !taffo.initweight !27
  %936 = fmul float %935, %.06, !taffo.info !24, !taffo.initweight !27
  %937 = fpext float %936 to double, !taffo.info !24, !taffo.initweight !28
  %938 = fmul float 0x41A0000000000000, %890, !taffo.info !24
  %u5_27fixp38 = fptoui float %938 to i32, !taffo.info !43
  %u5_27fixp78 = add i32 %u5_27fixp38, 1342, !taffo.info !43, !taffo.constinfo !46
  %939 = fmul double 0x41A0000000000000, %937, !taffo.info !24
  %940 = fptoui double %939 to i32, !taffo.info !24
  %941 = zext i32 %940 to i64, !taffo.info !24
  %942 = shl i64 %941, 27, !taffo.info !24
  %943 = zext i32 %u5_27fixp78 to i64
  %944 = udiv i64 %942, %943
  %u5_27fixp118 = trunc i64 %944 to i32, !taffo.info !49
  %945 = fmul double 0x41A0000000000000, %934, !taffo.info !24
  %946 = fptoui double %945 to i32, !taffo.info !24
  %u5_27fixp158 = add i32 %946, %u5_27fixp118, !taffo.info !49
  %947 = uitofp i32 %u5_27fixp158 to float, !taffo.info !49
  %948 = fdiv float %947, 0x41A0000000000000, !taffo.info !49
  %949 = getelementptr inbounds [2 x float], [2 x float]* %15, i64 0, i64 1, !taffo.info !24, !taffo.initweight !26
  store float %948, float* %949, align 4, !taffo.info !24
  br label %967

; <label>:950:                                    ; preds = %929
  %951 = fpext float %438 to double, !taffo.info !24, !taffo.initweight !27
  %952 = fsub float %435, %438, !taffo.info !24, !taffo.initweight !27
  %953 = fmul float %952, %.06, !taffo.info !24, !taffo.initweight !27
  %954 = fpext float %953 to double, !taffo.info !24, !taffo.initweight !28
  %955 = fmul float 0x4190000000000000, %890, !taffo.info !24
  %s6_26fixp = fptosi float %955 to i32, !taffo.info !50
  %s6_26fixp41 = add i32 %s6_26fixp, 671, !taffo.info !50, !taffo.constinfo !46
  %956 = fmul double 0x4190000000000000, %954, !taffo.info !24
  %957 = fptosi double %956 to i32, !taffo.info !24
  %958 = sext i32 %957 to i64, !taffo.info !24
  %959 = shl i64 %958, 26, !taffo.info !24
  %960 = sext i32 %s6_26fixp41 to i64
  %961 = sdiv i64 %959, %960
  %s6_26fixp81 = trunc i64 %961 to i32, !taffo.info !53
  %962 = fmul double 0x4190000000000000, %951, !taffo.info !24
  %963 = fptosi double %962 to i32, !taffo.info !24
  %s6_26fixp121 = add i32 %963, %s6_26fixp81, !taffo.info !53
  %964 = sitofp i32 %s6_26fixp121 to float, !taffo.info !53
  %965 = fdiv float %964, 0x4190000000000000, !taffo.info !53
  %966 = getelementptr inbounds [2 x float], [2 x float]* %15, i64 0, i64 1, !taffo.info !24, !taffo.initweight !26
  store float %965, float* %966, align 4, !taffo.info !24
  br label %Flow19

; <label>:967:                                    ; preds = %933, %Flow19
  br label %Flow34

; <label>:968:                                    ; preds = %884
  %969 = fcmp ogt float %176, 0.000000e+00, !taffo.info !24, !taffo.initweight !27, !taffo.target !40
  %970 = xor i1 %969, true
  br i1 %970, label %1055, label %Flow22

Flow31:                                           ; preds = %1328, %Flow30
  %971 = phi i1 [ true, %1328 ], [ false, %Flow30 ]
  br label %Flow22

; <label>:972:                                    ; preds = %Flow22
  %973 = fsub float %.07, %.08, !taffo.info !24, !taffo.initweight !27
  %974 = fsub float %.07, %.06, !taffo.info !24, !taffo.initweight !27
  %975 = fcmp oge float %973, 0.000000e+00, !taffo.info !24, !taffo.initweight !27
  %976 = xor i1 %975, true
  br i1 %976, label %995, label %Flow15

Flow15:                                           ; preds = %995, %972
  %977 = phi i1 [ false, %995 ], [ true, %972 ]
  br i1 %977, label %978, label %1013

; <label>:978:                                    ; preds = %Flow15
  %979 = fpext float %435 to double, !taffo.info !24, !taffo.initweight !27
  %980 = fsub float %432, %435, !taffo.info !24, !taffo.initweight !27
  %981 = fmul float %980, %.07, !taffo.info !24, !taffo.initweight !27
  %982 = fpext float %981 to double, !taffo.info !24, !taffo.initweight !28
  %983 = fmul float 0x41A0000000000000, %973, !taffo.info !24
  %u5_27fixp30 = fptoui float %983 to i32, !taffo.info !43
  %u5_27fixp70 = add i32 %u5_27fixp30, 1342, !taffo.info !43, !taffo.constinfo !46
  %984 = fmul double 0x41A0000000000000, %982, !taffo.info !24
  %985 = fptoui double %984 to i32, !taffo.info !24
  %986 = zext i32 %985 to i64, !taffo.info !24
  %987 = shl i64 %986, 27, !taffo.info !24
  %988 = zext i32 %u5_27fixp70 to i64
  %989 = udiv i64 %987, %988
  %u5_27fixp110 = trunc i64 %989 to i32, !taffo.info !49
  %990 = fmul double 0x41A0000000000000, %979, !taffo.info !24
  %991 = fptoui double %990 to i32, !taffo.info !24
  %u5_27fixp150 = add i32 %991, %u5_27fixp110, !taffo.info !49
  %992 = uitofp i32 %u5_27fixp150 to float, !taffo.info !49
  %993 = fdiv float %992, 0x41A0000000000000, !taffo.info !49
  %994 = getelementptr inbounds [2 x float], [2 x float]* %15, i64 0, i64 0, !taffo.info !24, !taffo.initweight !26
  store float %993, float* %994, align 4, !taffo.info !24
  br label %1013

; <label>:995:                                    ; preds = %972
  %996 = fpext float %435 to double, !taffo.info !24, !taffo.initweight !27
  %997 = fsub float %432, %435, !taffo.info !24, !taffo.initweight !27
  %998 = fmul float %997, %.07, !taffo.info !24, !taffo.initweight !27
  %999 = fpext float %998 to double, !taffo.info !24, !taffo.initweight !28
  %1000 = fmul float 0x4190000000000000, %973, !taffo.info !24
  %s6_26fixp36 = fptosi float %1000 to i32, !taffo.info !50
  %s6_26fixp76 = add i32 %s6_26fixp36, 671, !taffo.info !50, !taffo.constinfo !46
  %1001 = fmul double 0x4190000000000000, %999, !taffo.info !24
  %1002 = fptosi double %1001 to i32, !taffo.info !24
  %1003 = sext i32 %1002 to i64, !taffo.info !24
  %1004 = shl i64 %1003, 26, !taffo.info !24
  %1005 = sext i32 %s6_26fixp76 to i64
  %1006 = sdiv i64 %1004, %1005
  %s6_26fixp116 = trunc i64 %1006 to i32, !taffo.info !53
  %1007 = fmul double 0x4190000000000000, %996, !taffo.info !24
  %1008 = fptosi double %1007 to i32, !taffo.info !24
  %s6_26fixp156 = add i32 %1008, %s6_26fixp116, !taffo.info !53
  %1009 = sitofp i32 %s6_26fixp156 to float, !taffo.info !53
  %1010 = fdiv float %1009, 0x4190000000000000, !taffo.info !53
  %1011 = getelementptr inbounds [2 x float], [2 x float]* %15, i64 0, i64 0, !taffo.info !24, !taffo.initweight !26
  store float %1010, float* %1011, align 4, !taffo.info !24
  br label %Flow15

Flow32:                                           ; preds = %1051, %Flow22
  %1012 = phi i1 [ true, %1051 ], [ %1060, %Flow22 ]
  br i1 %1012, label %1329, label %Flow33

; <label>:1013:                                   ; preds = %978, %Flow15
  %1014 = fcmp oge float %974, 0.000000e+00, !taffo.info !24, !taffo.initweight !27
  %1015 = xor i1 %1014, true
  br i1 %1015, label %1034, label %Flow14

Flow14:                                           ; preds = %1034, %1013
  %1016 = phi i1 [ false, %1034 ], [ true, %1013 ]
  br i1 %1016, label %1017, label %1051

; <label>:1017:                                   ; preds = %Flow14
  %1018 = fpext float %435 to double, !taffo.info !24, !taffo.initweight !27
  %1019 = fsub float %438, %435, !taffo.info !24, !taffo.initweight !27
  %1020 = fmul float %1019, %.07, !taffo.info !24, !taffo.initweight !27
  %1021 = fpext float %1020 to double, !taffo.info !24, !taffo.initweight !28
  %1022 = fmul float 0x41A0000000000000, %974, !taffo.info !24
  %u5_27fixp35 = fptoui float %1022 to i32, !taffo.info !43
  %u5_27fixp75 = add i32 %u5_27fixp35, 1342, !taffo.info !43, !taffo.constinfo !46
  %1023 = fmul double 0x41A0000000000000, %1021, !taffo.info !24
  %1024 = fptoui double %1023 to i32, !taffo.info !24
  %1025 = zext i32 %1024 to i64, !taffo.info !24
  %1026 = shl i64 %1025, 27, !taffo.info !24
  %1027 = zext i32 %u5_27fixp75 to i64
  %1028 = udiv i64 %1026, %1027
  %u5_27fixp115 = trunc i64 %1028 to i32, !taffo.info !49
  %1029 = fmul double 0x41A0000000000000, %1018, !taffo.info !24
  %1030 = fptoui double %1029 to i32, !taffo.info !24
  %u5_27fixp155 = add i32 %1030, %u5_27fixp115, !taffo.info !49
  %1031 = uitofp i32 %u5_27fixp155 to float, !taffo.info !49
  %1032 = fdiv float %1031, 0x41A0000000000000, !taffo.info !49
  %1033 = getelementptr inbounds [2 x float], [2 x float]* %15, i64 0, i64 1, !taffo.info !24, !taffo.initweight !26
  store float %1032, float* %1033, align 4, !taffo.info !24
  br label %1051

; <label>:1034:                                   ; preds = %1013
  %1035 = fpext float %435 to double, !taffo.info !24, !taffo.initweight !27
  %1036 = fsub float %438, %435, !taffo.info !24, !taffo.initweight !27
  %1037 = fmul float %1036, %.07, !taffo.info !24, !taffo.initweight !27
  %1038 = fpext float %1037 to double, !taffo.info !24, !taffo.initweight !28
  %1039 = fmul float 0x4190000000000000, %974, !taffo.info !24
  %s6_26fixp20 = fptosi float %1039 to i32, !taffo.info !50
  %s6_26fixp60 = add i32 %s6_26fixp20, 671, !taffo.info !50, !taffo.constinfo !46
  %1040 = fmul double 0x4190000000000000, %1038, !taffo.info !24
  %1041 = fptosi double %1040 to i32, !taffo.info !24
  %1042 = sext i32 %1041 to i64, !taffo.info !24
  %1043 = shl i64 %1042, 26, !taffo.info !24
  %1044 = sext i32 %s6_26fixp60 to i64
  %1045 = sdiv i64 %1043, %1044
  %s6_26fixp100 = trunc i64 %1045 to i32, !taffo.info !53
  %1046 = fmul double 0x4190000000000000, %1035, !taffo.info !24
  %1047 = fptosi double %1046 to i32, !taffo.info !24
  %s6_26fixp140 = add i32 %1047, %s6_26fixp100, !taffo.info !53
  %1048 = sitofp i32 %s6_26fixp140 to float, !taffo.info !53
  %1049 = fdiv float %1048, 0x4190000000000000, !taffo.info !53
  %1050 = getelementptr inbounds [2 x float], [2 x float]* %15, i64 0, i64 1, !taffo.info !24, !taffo.initweight !26
  store float %1049, float* %1050, align 4, !taffo.info !24
  br label %Flow14

; <label>:1051:                                   ; preds = %1017, %Flow14
  br label %Flow32

Flow21:                                           ; preds = %Flow33, %884
  %1052 = phi i32 [ %1059, %Flow33 ], [ undef, %884 ]
  %1053 = phi i1 [ %887, %Flow33 ], [ false, %884 ]
  %1054 = phi i1 [ false, %Flow33 ], [ true, %884 ]
  br i1 %1054, label %888, label %Flow34

; <label>:1055:                                   ; preds = %968
  %1056 = fmul float %.07, %.06, !taffo.info !24, !taffo.initweight !27
  %1057 = fcmp ogt float %1056, 0.000000e+00, !taffo.info !24, !taffo.initweight !28
  %1058 = xor i1 %1057, true
  br i1 %1058, label %1062, label %Flow23

Flow22:                                           ; preds = %Flow31, %968
  %1059 = phi i32 [ %1146, %Flow31 ], [ undef, %968 ]
  %1060 = phi i1 [ %971, %Flow31 ], [ false, %968 ]
  %1061 = phi i1 [ false, %Flow31 ], [ true, %968 ]
  br i1 %1061, label %972, label %Flow32

; <label>:1062:                                   ; preds = %1055
  %1063 = fcmp une float %.08, 0.000000e+00, !taffo.info !24, !taffo.initweight !27
  %1064 = xor i1 %1063, true
  br i1 %1064, label %1149, label %Flow24

Flow29:                                           ; preds = %1327, %Flow28
  %1065 = phi i1 [ true, %1327 ], [ false, %Flow28 ]
  br label %Flow24

; <label>:1066:                                   ; preds = %Flow23
  %1067 = fsub float %.08, %.07, !taffo.info !24, !taffo.initweight !27
  %1068 = fsub float %.08, %.06, !taffo.info !24, !taffo.initweight !27
  %1069 = fcmp oge float %1067, 0.000000e+00, !taffo.info !24, !taffo.initweight !27
  %1070 = xor i1 %1069, true
  br i1 %1070, label %1089, label %Flow13

Flow13:                                           ; preds = %1089, %1066
  %1071 = phi i1 [ false, %1089 ], [ true, %1066 ]
  br i1 %1071, label %1072, label %1107

; <label>:1072:                                   ; preds = %Flow13
  %1073 = fpext float %432 to double, !taffo.info !24, !taffo.initweight !27
  %1074 = fsub float %435, %432, !taffo.info !24, !taffo.initweight !27
  %1075 = fmul float %1074, %.08, !taffo.info !24, !taffo.initweight !27
  %1076 = fpext float %1075 to double, !taffo.info !24, !taffo.initweight !28
  %1077 = fmul float 0x41A0000000000000, %1067, !taffo.info !24
  %u5_27fixp6 = fptoui float %1077 to i32, !taffo.info !43
  %u5_27fixp46 = add i32 %u5_27fixp6, 1342, !taffo.info !43, !taffo.constinfo !46
  %1078 = fmul double 0x41A0000000000000, %1076, !taffo.info !24
  %1079 = fptoui double %1078 to i32, !taffo.info !24
  %1080 = zext i32 %1079 to i64, !taffo.info !24
  %1081 = shl i64 %1080, 27, !taffo.info !24
  %1082 = zext i32 %u5_27fixp46 to i64
  %1083 = udiv i64 %1081, %1082
  %u5_27fixp86 = trunc i64 %1083 to i32, !taffo.info !49
  %1084 = fmul double 0x41A0000000000000, %1073, !taffo.info !24
  %1085 = fptoui double %1084 to i32, !taffo.info !24
  %u5_27fixp126 = add i32 %1085, %u5_27fixp86, !taffo.info !49
  %1086 = uitofp i32 %u5_27fixp126 to float, !taffo.info !49
  %1087 = fdiv float %1086, 0x41A0000000000000, !taffo.info !49
  %1088 = getelementptr inbounds [2 x float], [2 x float]* %15, i64 0, i64 0, !taffo.info !24, !taffo.initweight !26
  store float %1087, float* %1088, align 4, !taffo.info !24
  br label %1107

; <label>:1089:                                   ; preds = %1066
  %1090 = fpext float %432 to double, !taffo.info !24, !taffo.initweight !27
  %1091 = fsub float %435, %432, !taffo.info !24, !taffo.initweight !27
  %1092 = fmul float %1091, %.08, !taffo.info !24, !taffo.initweight !27
  %1093 = fpext float %1092 to double, !taffo.info !24, !taffo.initweight !28
  %1094 = fmul float 0x4190000000000000, %1067, !taffo.info !24
  %s6_26fixp9 = fptosi float %1094 to i32, !taffo.info !50
  %s6_26fixp49 = add i32 %s6_26fixp9, 671, !taffo.info !50, !taffo.constinfo !46
  %1095 = fmul double 0x4190000000000000, %1093, !taffo.info !24
  %1096 = fptosi double %1095 to i32, !taffo.info !24
  %1097 = sext i32 %1096 to i64, !taffo.info !24
  %1098 = shl i64 %1097, 26, !taffo.info !24
  %1099 = sext i32 %s6_26fixp49 to i64
  %1100 = sdiv i64 %1098, %1099
  %s6_26fixp89 = trunc i64 %1100 to i32, !taffo.info !53
  %1101 = fmul double 0x4190000000000000, %1090, !taffo.info !24
  %1102 = fptosi double %1101 to i32, !taffo.info !24
  %s6_26fixp129 = add i32 %1102, %s6_26fixp89, !taffo.info !53
  %1103 = sitofp i32 %s6_26fixp129 to float, !taffo.info !53
  %1104 = fdiv float %1103, 0x4190000000000000, !taffo.info !53
  %1105 = getelementptr inbounds [2 x float], [2 x float]* %15, i64 0, i64 0, !taffo.info !24, !taffo.initweight !26
  store float %1104, float* %1105, align 4, !taffo.info !24
  br label %Flow13

Flow30:                                           ; preds = %1145, %Flow23
  %1106 = phi i1 [ true, %1145 ], [ %1147, %Flow23 ]
  br i1 %1106, label %1328, label %Flow31

; <label>:1107:                                   ; preds = %1072, %Flow13
  %1108 = fcmp oge float %1068, 0.000000e+00, !taffo.info !24, !taffo.initweight !27
  %1109 = xor i1 %1108, true
  br i1 %1109, label %1128, label %Flow12

Flow12:                                           ; preds = %1128, %1107
  %1110 = phi i1 [ false, %1128 ], [ true, %1107 ]
  br i1 %1110, label %1111, label %1145

; <label>:1111:                                   ; preds = %Flow12
  %1112 = fpext float %432 to double, !taffo.info !24, !taffo.initweight !27
  %1113 = fsub float %438, %432, !taffo.info !24, !taffo.initweight !27
  %1114 = fmul float %1113, %.08, !taffo.info !24, !taffo.initweight !27
  %1115 = fpext float %1114 to double, !taffo.info !24, !taffo.initweight !28
  %1116 = fmul float 0x41A0000000000000, %1068, !taffo.info !24
  %u5_27fixp4 = fptoui float %1116 to i32, !taffo.info !43
  %u5_27fixp44 = add i32 %u5_27fixp4, 1342, !taffo.info !43, !taffo.constinfo !46
  %1117 = fmul double 0x41A0000000000000, %1115, !taffo.info !24
  %1118 = fptoui double %1117 to i32, !taffo.info !24
  %1119 = zext i32 %1118 to i64, !taffo.info !24
  %1120 = shl i64 %1119, 27, !taffo.info !24
  %1121 = zext i32 %u5_27fixp44 to i64
  %1122 = udiv i64 %1120, %1121
  %u5_27fixp84 = trunc i64 %1122 to i32, !taffo.info !49
  %1123 = fmul double 0x41A0000000000000, %1112, !taffo.info !24
  %1124 = fptoui double %1123 to i32, !taffo.info !24
  %u5_27fixp124 = add i32 %1124, %u5_27fixp84, !taffo.info !49
  %1125 = uitofp i32 %u5_27fixp124 to float, !taffo.info !49
  %1126 = fdiv float %1125, 0x41A0000000000000, !taffo.info !49
  %1127 = getelementptr inbounds [2 x float], [2 x float]* %15, i64 0, i64 1, !taffo.info !24, !taffo.initweight !26
  store float %1126, float* %1127, align 4, !taffo.info !24
  br label %1145

; <label>:1128:                                   ; preds = %1107
  %1129 = fpext float %432 to double, !taffo.info !24, !taffo.initweight !27
  %1130 = fsub float %438, %432, !taffo.info !24, !taffo.initweight !27
  %1131 = fmul float %1130, %.08, !taffo.info !24, !taffo.initweight !27
  %1132 = fpext float %1131 to double, !taffo.info !24, !taffo.initweight !28
  %1133 = fmul float 0x4190000000000000, %1068, !taffo.info !24
  %s6_26fixp24 = fptosi float %1133 to i32, !taffo.info !50
  %s6_26fixp64 = add i32 %s6_26fixp24, 671, !taffo.info !50, !taffo.constinfo !46
  %1134 = fmul double 0x4190000000000000, %1132, !taffo.info !24
  %1135 = fptosi double %1134 to i32, !taffo.info !24
  %1136 = sext i32 %1135 to i64, !taffo.info !24
  %1137 = shl i64 %1136, 26, !taffo.info !24
  %1138 = sext i32 %s6_26fixp64 to i64
  %1139 = sdiv i64 %1137, %1138
  %s6_26fixp104 = trunc i64 %1139 to i32, !taffo.info !53
  %1140 = fmul double 0x4190000000000000, %1129, !taffo.info !24
  %1141 = fptosi double %1140 to i32, !taffo.info !24
  %s6_26fixp144 = add i32 %1141, %s6_26fixp104, !taffo.info !53
  %1142 = sitofp i32 %s6_26fixp144 to float, !taffo.info !53
  %1143 = fdiv float %1142, 0x4190000000000000, !taffo.info !53
  %1144 = getelementptr inbounds [2 x float], [2 x float]* %15, i64 0, i64 1, !taffo.info !24, !taffo.initweight !26
  store float %1143, float* %1144, align 4, !taffo.info !24
  br label %Flow12

; <label>:1145:                                   ; preds = %1111, %Flow12
  br label %Flow30

Flow23:                                           ; preds = %Flow24, %1055
  %1146 = phi i32 [ %1232, %Flow24 ], [ undef, %1055 ]
  %1147 = phi i1 [ %1233, %Flow24 ], [ false, %1055 ]
  %1148 = phi i1 [ %1234, %Flow24 ], [ %1057, %1055 ]
  br i1 %1148, label %1066, label %Flow30

; <label>:1149:                                   ; preds = %1062
  %1150 = fcmp une float %.07, 0.000000e+00, !taffo.info !24, !taffo.initweight !27
  %1151 = xor i1 %1150, true
  br i1 %1151, label %1235, label %Flow25

; <label>:1152:                                   ; preds = %Flow25
  %1153 = fsub float %.07, %.08, !taffo.info !24, !taffo.initweight !27
  %1154 = fsub float %.07, %.06, !taffo.info !24, !taffo.initweight !27
  %1155 = fcmp oge float %1153, 0.000000e+00, !taffo.info !24, !taffo.initweight !27
  %1156 = xor i1 %1155, true
  br i1 %1156, label %1175, label %Flow11

Flow11:                                           ; preds = %1175, %1152
  %1157 = phi i1 [ false, %1175 ], [ true, %1152 ]
  br i1 %1157, label %1158, label %1193

; <label>:1158:                                   ; preds = %Flow11
  %1159 = fpext float %435 to double, !taffo.info !24, !taffo.initweight !27
  %1160 = fsub float %432, %435, !taffo.info !24, !taffo.initweight !27
  %1161 = fmul float %1160, %.07, !taffo.info !24, !taffo.initweight !27
  %1162 = fpext float %1161 to double, !taffo.info !24, !taffo.initweight !28
  %1163 = fmul float 0x41A0000000000000, %1153, !taffo.info !24
  %u5_27fixp21 = fptoui float %1163 to i32, !taffo.info !43
  %u5_27fixp61 = add i32 %u5_27fixp21, 1342, !taffo.info !43, !taffo.constinfo !46
  %1164 = fmul double 0x41A0000000000000, %1162, !taffo.info !24
  %1165 = fptoui double %1164 to i32, !taffo.info !24
  %1166 = zext i32 %1165 to i64, !taffo.info !24
  %1167 = shl i64 %1166, 27, !taffo.info !24
  %1168 = zext i32 %u5_27fixp61 to i64
  %1169 = udiv i64 %1167, %1168
  %u5_27fixp101 = trunc i64 %1169 to i32, !taffo.info !49
  %1170 = fmul double 0x41A0000000000000, %1159, !taffo.info !24
  %1171 = fptoui double %1170 to i32, !taffo.info !24
  %u5_27fixp141 = add i32 %1171, %u5_27fixp101, !taffo.info !49
  %1172 = uitofp i32 %u5_27fixp141 to float, !taffo.info !49
  %1173 = fdiv float %1172, 0x41A0000000000000, !taffo.info !49
  %1174 = getelementptr inbounds [2 x float], [2 x float]* %15, i64 0, i64 0, !taffo.info !24, !taffo.initweight !26
  store float %1173, float* %1174, align 4, !taffo.info !24
  br label %1193

; <label>:1175:                                   ; preds = %1152
  %1176 = fpext float %435 to double, !taffo.info !24, !taffo.initweight !27
  %1177 = fsub float %432, %435, !taffo.info !24, !taffo.initweight !27
  %1178 = fmul float %1177, %.07, !taffo.info !24, !taffo.initweight !27
  %1179 = fpext float %1178 to double, !taffo.info !24, !taffo.initweight !28
  %1180 = fmul float 0x4190000000000000, %1153, !taffo.info !24
  %s6_26fixp14 = fptosi float %1180 to i32, !taffo.info !50
  %s6_26fixp54 = add i32 %s6_26fixp14, 671, !taffo.info !50, !taffo.constinfo !46
  %1181 = fmul double 0x4190000000000000, %1179, !taffo.info !24
  %1182 = fptosi double %1181 to i32, !taffo.info !24
  %1183 = sext i32 %1182 to i64, !taffo.info !24
  %1184 = shl i64 %1183, 26, !taffo.info !24
  %1185 = sext i32 %s6_26fixp54 to i64
  %1186 = sdiv i64 %1184, %1185
  %s6_26fixp94 = trunc i64 %1186 to i32, !taffo.info !53
  %1187 = fmul double 0x4190000000000000, %1176, !taffo.info !24
  %1188 = fptosi double %1187 to i32, !taffo.info !24
  %s6_26fixp134 = add i32 %1188, %s6_26fixp94, !taffo.info !53
  %1189 = sitofp i32 %s6_26fixp134 to float, !taffo.info !53
  %1190 = fdiv float %1189, 0x4190000000000000, !taffo.info !53
  %1191 = getelementptr inbounds [2 x float], [2 x float]* %15, i64 0, i64 0, !taffo.info !24, !taffo.initweight !26
  store float %1190, float* %1191, align 4, !taffo.info !24
  br label %Flow11

Flow28:                                           ; preds = %1231, %Flow25
  %1192 = phi i1 [ true, %1231 ], [ %1321, %Flow25 ]
  br i1 %1192, label %1327, label %Flow29

; <label>:1193:                                   ; preds = %1158, %Flow11
  %1194 = fcmp oge float %1154, 0.000000e+00, !taffo.info !24, !taffo.initweight !27
  %1195 = xor i1 %1194, true
  br i1 %1195, label %1214, label %Flow10

Flow10:                                           ; preds = %1214, %1193
  %1196 = phi i1 [ false, %1214 ], [ true, %1193 ]
  br i1 %1196, label %1197, label %1231

; <label>:1197:                                   ; preds = %Flow10
  %1198 = fpext float %435 to double, !taffo.info !24, !taffo.initweight !27
  %1199 = fsub float %438, %435, !taffo.info !24, !taffo.initweight !27
  %1200 = fmul float %1199, %.07, !taffo.info !24, !taffo.initweight !27
  %1201 = fpext float %1200 to double, !taffo.info !24, !taffo.initweight !28
  %1202 = fmul float 0x41A0000000000000, %1154, !taffo.info !24
  %u5_27fixp16 = fptoui float %1202 to i32, !taffo.info !43
  %u5_27fixp56 = add i32 %u5_27fixp16, 1342, !taffo.info !43, !taffo.constinfo !46
  %1203 = fmul double 0x41A0000000000000, %1201, !taffo.info !24
  %1204 = fptoui double %1203 to i32, !taffo.info !24
  %1205 = zext i32 %1204 to i64, !taffo.info !24
  %1206 = shl i64 %1205, 27, !taffo.info !24
  %1207 = zext i32 %u5_27fixp56 to i64
  %1208 = udiv i64 %1206, %1207
  %u5_27fixp96 = trunc i64 %1208 to i32, !taffo.info !49
  %1209 = fmul double 0x41A0000000000000, %1198, !taffo.info !24
  %1210 = fptoui double %1209 to i32, !taffo.info !24
  %u5_27fixp136 = add i32 %1210, %u5_27fixp96, !taffo.info !49
  %1211 = uitofp i32 %u5_27fixp136 to float, !taffo.info !49
  %1212 = fdiv float %1211, 0x41A0000000000000, !taffo.info !49
  %1213 = getelementptr inbounds [2 x float], [2 x float]* %15, i64 0, i64 1, !taffo.info !24, !taffo.initweight !26
  store float %1212, float* %1213, align 4, !taffo.info !24
  br label %1231

; <label>:1214:                                   ; preds = %1193
  %1215 = fpext float %435 to double, !taffo.info !24, !taffo.initweight !27
  %1216 = fsub float %438, %435, !taffo.info !24, !taffo.initweight !27
  %1217 = fmul float %1216, %.07, !taffo.info !24, !taffo.initweight !27
  %1218 = fpext float %1217 to double, !taffo.info !24, !taffo.initweight !28
  %1219 = fmul float 0x4190000000000000, %1154, !taffo.info !24
  %s6_26fixp2 = fptosi float %1219 to i32, !taffo.info !50
  %s6_26fixp42 = add i32 %s6_26fixp2, 671, !taffo.info !50, !taffo.constinfo !46
  %1220 = fmul double 0x4190000000000000, %1218, !taffo.info !24
  %1221 = fptosi double %1220 to i32, !taffo.info !24
  %1222 = sext i32 %1221 to i64, !taffo.info !24
  %1223 = shl i64 %1222, 26, !taffo.info !24
  %1224 = sext i32 %s6_26fixp42 to i64
  %1225 = sdiv i64 %1223, %1224
  %s6_26fixp82 = trunc i64 %1225 to i32, !taffo.info !53
  %1226 = fmul double 0x4190000000000000, %1215, !taffo.info !24
  %1227 = fptosi double %1226 to i32, !taffo.info !24
  %s6_26fixp122 = add i32 %1227, %s6_26fixp82, !taffo.info !53
  %1228 = sitofp i32 %s6_26fixp122 to float, !taffo.info !53
  %1229 = fdiv float %1228, 0x4190000000000000, !taffo.info !53
  %1230 = getelementptr inbounds [2 x float], [2 x float]* %15, i64 0, i64 1, !taffo.info !24, !taffo.initweight !26
  store float %1229, float* %1230, align 4, !taffo.info !24
  br label %Flow10

; <label>:1231:                                   ; preds = %1197, %Flow10
  br label %Flow28

Flow24:                                           ; preds = %Flow29, %1062
  %1232 = phi i32 [ %1320, %Flow29 ], [ undef, %1062 ]
  %1233 = phi i1 [ %1065, %Flow29 ], [ false, %1062 ]
  %1234 = phi i1 [ false, %Flow29 ], [ true, %1062 ]
  br label %Flow23

; <label>:1235:                                   ; preds = %1149
  %1236 = fcmp une float %.06, 0.000000e+00, !taffo.info !24, !taffo.initweight !27
  %1237 = xor i1 %1236, true
  br i1 %1237, label %1323, label %Flow26

Flow26:                                           ; preds = %1323, %1235
  %1238 = phi i32 [ %1325, %1323 ], [ undef, %1235 ]
  %1239 = phi i1 [ false, %1323 ], [ true, %1235 ]
  br i1 %1239, label %1240, label %Flow27

; <label>:1240:                                   ; preds = %Flow26
  %1241 = fsub float %.06, %.08, !taffo.info !24, !taffo.initweight !27
  %1242 = fsub float %.06, %.07, !taffo.info !24, !taffo.initweight !27
  %1243 = fcmp oge float %1241, 0.000000e+00, !taffo.info !24, !taffo.initweight !27
  %1244 = xor i1 %1243, true
  br i1 %1244, label %1263, label %Flow9

Flow9:                                            ; preds = %1263, %1240
  %1245 = phi i1 [ false, %1263 ], [ true, %1240 ]
  br i1 %1245, label %1246, label %1281

; <label>:1246:                                   ; preds = %Flow9
  %1247 = fpext float %438 to double, !taffo.info !24, !taffo.initweight !27
  %1248 = fsub float %432, %438, !taffo.info !24, !taffo.initweight !27
  %1249 = fmul float %1248, %.06, !taffo.info !24, !taffo.initweight !27
  %1250 = fpext float %1249 to double, !taffo.info !24, !taffo.initweight !28
  %1251 = fmul float 0x41A0000000000000, %1241, !taffo.info !24
  %u5_27fixp8 = fptoui float %1251 to i32, !taffo.info !43
  %u5_27fixp48 = add i32 %u5_27fixp8, 1342, !taffo.info !43, !taffo.constinfo !46
  %1252 = fmul double 0x41A0000000000000, %1250, !taffo.info !24
  %1253 = fptoui double %1252 to i32, !taffo.info !24
  %1254 = zext i32 %1253 to i64, !taffo.info !24
  %1255 = shl i64 %1254, 27, !taffo.info !24
  %1256 = zext i32 %u5_27fixp48 to i64
  %1257 = udiv i64 %1255, %1256
  %u5_27fixp88 = trunc i64 %1257 to i32, !taffo.info !49
  %1258 = fmul double 0x41A0000000000000, %1247, !taffo.info !24
  %1259 = fptoui double %1258 to i32, !taffo.info !24
  %u5_27fixp128 = add i32 %1259, %u5_27fixp88, !taffo.info !49
  %1260 = uitofp i32 %u5_27fixp128 to float, !taffo.info !49
  %1261 = fdiv float %1260, 0x41A0000000000000, !taffo.info !49
  %1262 = getelementptr inbounds [2 x float], [2 x float]* %15, i64 0, i64 0, !taffo.info !24, !taffo.initweight !26
  store float %1261, float* %1262, align 4, !taffo.info !24
  br label %1281

; <label>:1263:                                   ; preds = %1240
  %1264 = fpext float %438 to double, !taffo.info !24, !taffo.initweight !27
  %1265 = fsub float %432, %438, !taffo.info !24, !taffo.initweight !27
  %1266 = fmul float %1265, %.06, !taffo.info !24, !taffo.initweight !27
  %1267 = fpext float %1266 to double, !taffo.info !24, !taffo.initweight !28
  %1268 = fmul float 0x4190000000000000, %1241, !taffo.info !24
  %s6_26fixp32 = fptosi float %1268 to i32, !taffo.info !50
  %s6_26fixp72 = add i32 %s6_26fixp32, 671, !taffo.info !50, !taffo.constinfo !46
  %1269 = fmul double 0x4190000000000000, %1267, !taffo.info !24
  %1270 = fptosi double %1269 to i32, !taffo.info !24
  %1271 = sext i32 %1270 to i64, !taffo.info !24
  %1272 = shl i64 %1271, 26, !taffo.info !24
  %1273 = sext i32 %s6_26fixp72 to i64
  %1274 = sdiv i64 %1272, %1273
  %s6_26fixp112 = trunc i64 %1274 to i32, !taffo.info !53
  %1275 = fmul double 0x4190000000000000, %1264, !taffo.info !24
  %1276 = fptosi double %1275 to i32, !taffo.info !24
  %s6_26fixp152 = add i32 %1276, %s6_26fixp112, !taffo.info !53
  %1277 = sitofp i32 %s6_26fixp152 to float, !taffo.info !53
  %1278 = fdiv float %1277, 0x4190000000000000, !taffo.info !53
  %1279 = getelementptr inbounds [2 x float], [2 x float]* %15, i64 0, i64 0, !taffo.info !24, !taffo.initweight !26
  store float %1278, float* %1279, align 4, !taffo.info !24
  br label %Flow9

Flow27:                                           ; preds = %1326, %Flow26
  %1280 = phi i1 [ true, %1326 ], [ false, %Flow26 ]
  br label %Flow25

; <label>:1281:                                   ; preds = %1246, %Flow9
  %1282 = fcmp oge float %1242, 0.000000e+00, !taffo.info !24, !taffo.initweight !27
  %1283 = xor i1 %1282, true
  br i1 %1283, label %1302, label %Flow8

Flow8:                                            ; preds = %1302, %1281
  %1284 = phi i1 [ false, %1302 ], [ true, %1281 ]
  br i1 %1284, label %1285, label %1319

; <label>:1285:                                   ; preds = %Flow8
  %1286 = fpext float %438 to double, !taffo.info !24, !taffo.initweight !27
  %1287 = fsub float %435, %438, !taffo.info !24, !taffo.initweight !27
  %1288 = fmul float %1287, %.06, !taffo.info !24, !taffo.initweight !27
  %1289 = fpext float %1288 to double, !taffo.info !24, !taffo.initweight !28
  %1290 = fmul float 0x41A0000000000000, %1242, !taffo.info !24
  %u5_27fixp37 = fptoui float %1290 to i32, !taffo.info !43
  %u5_27fixp77 = add i32 %u5_27fixp37, 1342, !taffo.info !43, !taffo.constinfo !46
  %1291 = fmul double 0x41A0000000000000, %1289, !taffo.info !24
  %1292 = fptoui double %1291 to i32, !taffo.info !24
  %1293 = zext i32 %1292 to i64, !taffo.info !24
  %1294 = shl i64 %1293, 27, !taffo.info !24
  %1295 = zext i32 %u5_27fixp77 to i64
  %1296 = udiv i64 %1294, %1295
  %u5_27fixp117 = trunc i64 %1296 to i32, !taffo.info !49
  %1297 = fmul double 0x41A0000000000000, %1286, !taffo.info !24
  %1298 = fptoui double %1297 to i32, !taffo.info !24
  %u5_27fixp157 = add i32 %1298, %u5_27fixp117, !taffo.info !49
  %1299 = uitofp i32 %u5_27fixp157 to float, !taffo.info !49
  %1300 = fdiv float %1299, 0x41A0000000000000, !taffo.info !49
  %1301 = getelementptr inbounds [2 x float], [2 x float]* %15, i64 0, i64 1, !taffo.info !24, !taffo.initweight !26
  store float %1300, float* %1301, align 4, !taffo.info !24
  br label %1319

; <label>:1302:                                   ; preds = %1281
  %1303 = fpext float %438 to double, !taffo.info !24, !taffo.initweight !27
  %1304 = fsub float %435, %438, !taffo.info !24, !taffo.initweight !27
  %1305 = fmul float %1304, %.06, !taffo.info !24, !taffo.initweight !27
  %1306 = fpext float %1305 to double, !taffo.info !24, !taffo.initweight !28
  %1307 = fmul float 0x4190000000000000, %1242, !taffo.info !24
  %s6_26fixp34 = fptosi float %1307 to i32, !taffo.info !50
  %s6_26fixp74 = add i32 %s6_26fixp34, 671, !taffo.info !50, !taffo.constinfo !46
  %1308 = fmul double 0x4190000000000000, %1306, !taffo.info !24
  %1309 = fptosi double %1308 to i32, !taffo.info !24
  %1310 = sext i32 %1309 to i64, !taffo.info !24
  %1311 = shl i64 %1310, 26, !taffo.info !24
  %1312 = sext i32 %s6_26fixp74 to i64
  %1313 = sdiv i64 %1311, %1312
  %s6_26fixp114 = trunc i64 %1313 to i32, !taffo.info !53
  %1314 = fmul double 0x4190000000000000, %1303, !taffo.info !24
  %1315 = fptosi double %1314 to i32, !taffo.info !24
  %s6_26fixp154 = add i32 %1315, %s6_26fixp114, !taffo.info !53
  %1316 = sitofp i32 %s6_26fixp154 to float, !taffo.info !53
  %1317 = fdiv float %1316, 0x4190000000000000, !taffo.info !53
  %1318 = getelementptr inbounds [2 x float], [2 x float]* %15, i64 0, i64 1, !taffo.info !24, !taffo.initweight !26
  store float %1317, float* %1318, align 4, !taffo.info !24
  br label %Flow8

; <label>:1319:                                   ; preds = %1285, %Flow8
  br label %1326

Flow25:                                           ; preds = %Flow27, %1149
  %1320 = phi i32 [ %1238, %Flow27 ], [ undef, %1149 ]
  %1321 = phi i1 [ %1280, %Flow27 ], [ false, %1149 ]
  %1322 = phi i1 [ false, %Flow27 ], [ true, %1149 ]
  br i1 %1322, label %1152, label %Flow28

; <label>:1323:                                   ; preds = %1235
  %1324 = getelementptr inbounds [3 x float], [3 x float]* %11, i32 0, i32 0, !taffo.info !24, !taffo.initweight !26
  %1325 = call i32 @_Z16coplanar_tri_triPfS_S_S_S_S_S_.1(float* %1324, float* %0, float* %1, float* %2, float* %3, float* %4, float* %5), !taffo.info !24, !taffo.initweight !27, !taffo.constinfo !54, !taffo.originalCall !55
  br label %Flow26

; <label>:1326:                                   ; preds = %1319
  br label %Flow27

; <label>:1327:                                   ; preds = %Flow28
  br label %Flow29

; <label>:1328:                                   ; preds = %Flow30
  br label %Flow31

; <label>:1329:                                   ; preds = %Flow32
  br label %Flow33

; <label>:1330:                                   ; preds = %Flow34
  %1331 = getelementptr inbounds [2 x float], [2 x float]* %14, i64 0, i64 0, !taffo.info !24, !taffo.initweight !26
  %1332 = load float, float* %1331, align 4, !taffo.info !24, !taffo.initweight !27
  %1333 = getelementptr inbounds [2 x float], [2 x float]* %14, i64 0, i64 1, !taffo.info !24, !taffo.initweight !26
  %1334 = load float, float* %1333, align 4, !taffo.info !24, !taffo.initweight !27
  %1335 = fcmp ogt float %1332, %1334, !taffo.info !24, !taffo.initweight !28
  br i1 %1335, label %1336, label %1344

; <label>:1336:                                   ; preds = %1330
  %1337 = getelementptr inbounds [2 x float], [2 x float]* %14, i64 0, i64 0, !taffo.info !24, !taffo.initweight !26
  %1338 = load float, float* %1337, align 4, !taffo.info !24, !taffo.initweight !27
  %1339 = getelementptr inbounds [2 x float], [2 x float]* %14, i64 0, i64 1, !taffo.info !24, !taffo.initweight !26
  %1340 = load float, float* %1339, align 4, !taffo.info !24, !taffo.initweight !27
  %1341 = getelementptr inbounds [2 x float], [2 x float]* %14, i64 0, i64 0, !taffo.info !24, !taffo.initweight !26
  store float %1340, float* %1341, align 4, !taffo.info !24
  %1342 = getelementptr inbounds [2 x float], [2 x float]* %14, i64 0, i64 1, !taffo.info !24, !taffo.initweight !26
  store float %1338, float* %1342, align 4, !taffo.info !24
  br label %1344

Flow35:                                           ; preds = %Flow18, %Flow34
  %1343 = phi i32 [ %1383, %Flow18 ], [ %1052, %Flow34 ]
  br label %Flow52

; <label>:1344:                                   ; preds = %1336, %1330
  %1345 = getelementptr inbounds [2 x float], [2 x float]* %15, i64 0, i64 0, !taffo.info !24, !taffo.initweight !26
  %1346 = load float, float* %1345, align 4, !taffo.info !24, !taffo.initweight !27
  %1347 = getelementptr inbounds [2 x float], [2 x float]* %15, i64 0, i64 1, !taffo.info !24, !taffo.initweight !26
  %1348 = load float, float* %1347, align 4, !taffo.info !24, !taffo.initweight !27
  %1349 = fcmp ogt float %1346, %1348, !taffo.info !24, !taffo.initweight !28
  br i1 %1349, label %1350, label %1357

; <label>:1350:                                   ; preds = %1344
  %1351 = getelementptr inbounds [2 x float], [2 x float]* %15, i64 0, i64 0, !taffo.info !24, !taffo.initweight !26
  %1352 = load float, float* %1351, align 4, !taffo.info !24, !taffo.initweight !27
  %1353 = getelementptr inbounds [2 x float], [2 x float]* %15, i64 0, i64 1, !taffo.info !24, !taffo.initweight !26
  %1354 = load float, float* %1353, align 4, !taffo.info !24, !taffo.initweight !27
  %1355 = getelementptr inbounds [2 x float], [2 x float]* %15, i64 0, i64 0, !taffo.info !24, !taffo.initweight !26
  store float %1354, float* %1355, align 4, !taffo.info !24
  %1356 = getelementptr inbounds [2 x float], [2 x float]* %15, i64 0, i64 1, !taffo.info !24, !taffo.initweight !26
  store float %1352, float* %1356, align 4, !taffo.info !24
  br label %1357

; <label>:1357:                                   ; preds = %1350, %1344
  %1358 = getelementptr inbounds [2 x float], [2 x float]* %14, i64 0, i64 0, !taffo.info !24, !taffo.initweight !26
  %1359 = load float, float* %1358, align 4, !taffo.info !24, !taffo.initweight !27
  %1360 = getelementptr inbounds float, float* %6, i64 0, !taffo.info !24, !taffo.initweight !27
  store float %1359, float* %1360, align 4, !taffo.info !24
  %1361 = getelementptr inbounds [2 x float], [2 x float]* %14, i64 0, i64 1, !taffo.info !24, !taffo.initweight !26
  %1362 = load float, float* %1361, align 4, !taffo.info !24, !taffo.initweight !27
  %1363 = getelementptr inbounds float, float* %6, i64 1, !taffo.info !24, !taffo.initweight !27
  store float %1362, float* %1363, align 4, !taffo.info !24
  br label %1364

; <label>:1364:                                   ; preds = %1357
  br label %1365

; <label>:1365:                                   ; preds = %1364
  %1366 = getelementptr inbounds [2 x float], [2 x float]* %14, i64 0, i64 1, !taffo.info !24, !taffo.initweight !26
  %1367 = load float, float* %1366, align 4, !taffo.info !24, !taffo.initweight !27
  %1368 = getelementptr inbounds [2 x float], [2 x float]* %15, i64 0, i64 0, !taffo.info !24, !taffo.initweight !26
  %1369 = load float, float* %1368, align 4, !taffo.info !24, !taffo.initweight !27
  %1370 = fcmp olt float %1367, %1369, !taffo.info !24, !taffo.initweight !28
  %1371 = xor i1 %1370, true
  br i1 %1371, label %1372, label %Flow16

; <label>:1372:                                   ; preds = %1365
  %1373 = getelementptr inbounds [2 x float], [2 x float]* %15, i64 0, i64 1, !taffo.info !24, !taffo.initweight !26
  %1374 = load float, float* %1373, align 4, !taffo.info !24, !taffo.initweight !27
  %1375 = getelementptr inbounds [2 x float], [2 x float]* %14, i64 0, i64 0, !taffo.info !24, !taffo.initweight !26
  %1376 = load float, float* %1375, align 4, !taffo.info !24, !taffo.initweight !27
  %1377 = fcmp olt float %1374, %1376, !taffo.info !24, !taffo.initweight !28
  %1378 = xor i1 %1377, true
  br i1 %1378, label %1382, label %Flow17

Flow17:                                           ; preds = %1382, %1372
  %1379 = phi i1 [ false, %1382 ], [ true, %1372 ]
  br label %Flow16

; <label>:1380:                                   ; preds = %Flow16
  store i32 4, i32* %7, align 4, !taffo.constinfo !15
  br label %Flow18

Flow16:                                           ; preds = %Flow17, %1365
  %1381 = phi i1 [ %1379, %Flow17 ], [ %1370, %1365 ]
  br i1 %1381, label %1380, label %Flow18

; <label>:1382:                                   ; preds = %1372
  store i32 5, i32* %7, align 4, !taffo.constinfo !15
  br label %Flow17

Flow18:                                           ; preds = %1380, %Flow16
  %1383 = phi i32 [ 0, %1380 ], [ 1, %Flow16 ]
  br label %Flow35

Flow52:                                           ; preds = %Flow35, %Flow51
  %1384 = phi i32 [ %1343, %Flow35 ], [ %606, %Flow51 ]
  br label %Flow54

Flow55:                                           ; preds = %358, %Flow54
  %1385 = phi i32 [ 0, %358 ], [ %415, %Flow54 ]
  br label %Flow57

; <label>:1386:                                   ; preds = %184, %Flow57
  %.0 = phi i32 [ %336, %Flow57 ], [ 0, %184 ]
  ret i32 %.0
}

; Function Attrs: noinline uwtable
define internal void @_GLOBAL__sub_I_jmeint.cpp() #0 section ".text.startup" !taffo.initweight !13 !taffo.funinfo !13 {
  call void @__cxx_global_var_init.2(), !taffo.constinfo !14
  ret void
}

; Function Attrs: noinline uwtable
define internal void @__cxx_global_var_init.2() #0 section ".text.startup" !taffo.initweight !13 !taffo.funinfo !13 {
  call void @_ZNSt8ios_base4InitC1Ev(%"class.std::ios_base::Init"* @_ZStL8__ioinit.3), !taffo.constinfo !15
  %1 = call i32 @__cxa_atexit(void (i8*)* bitcast (void (%"class.std::ios_base::Init"*)* @_ZNSt8ios_base4InitD1Ev to void (i8*)*), i8* getelementptr inbounds (%"class.std::ios_base::Init", %"class.std::ios_base::Init"* @_ZStL8__ioinit.3, i32 0, i32 0), i8* @__dso_handle) #3, !taffo.constinfo !16
  ret void
}

; Function Attrs: noinline norecurse uwtable
define dso_local i32 @main(i32, i8**) #6 personality i8* bitcast (i32 (...)* @__gxx_personality_v0 to i8*) !taffo.initweight !56 !taffo.funinfo !57 !taffo.start !58 {
  %3 = alloca i32, align 4
  %4 = alloca %"class.std::__cxx11::basic_string", align 8
  %5 = alloca %"class.std::ios_base::Init", align 1
  %6 = alloca %"class.std::__cxx11::basic_string", align 8
  %7 = alloca %"class.std::ios_base::Init", align 1
  %8 = alloca %"class.std::basic_ofstream", align 8
  %9 = alloca %"class.std::basic_ifstream", align 8
  %10 = alloca [18 x float], align 16, !taffo.info !59, !taffo.initweight !25
  %11 = alloca [6 x i32], align 16
  %12 = alloca %class.AxBenchTimer, align 8
  %s15_17fixp = alloca [2 x i32], align 4, !taffo.info !61, !taffo.target !64
  %13 = alloca i32, align 4, !taffo.info !65
  %14 = load i8*, i8** bitcast (%"class.std::basic_ostream"* @_ZSt4cout to i8**), align 8
  %15 = getelementptr i8, i8* %14, i64 -24
  %16 = bitcast i8* %15 to i64*
  %17 = load i64, i64* %16, align 8
  %18 = getelementptr inbounds i8, i8* bitcast (%"class.std::basic_ostream"* @_ZSt4cout to i8*), i64 %17
  %19 = bitcast i8* %18 to %"class.std::ios_base"*, !taffo.structinfo !67
  %20 = call i64 @_ZNSt8ios_base9precisionEl(%"class.std::ios_base"* %19, i64 8), !taffo.constinfo !70
  %21 = getelementptr inbounds i8*, i8** %1, i64 1
  %22 = load i8*, i8** %21, align 8
  call void @_ZNSaIcEC1Ev(%"class.std::ios_base::Init"* %5) #3, !taffo.constinfo !15
  invoke void @_ZNSt7__cxx1112basic_stringIcSt11char_traitsIcESaIcEEC1EPKcRKS3_(%"class.std::__cxx11::basic_string"* %4, i8* %22, %"class.std::ios_base::Init"* dereferenceable(1) %5)
          to label %23 unwind label %55, !taffo.constinfo !71

; <label>:23:                                     ; preds = %2
  call void @_ZNSaIcED1Ev(%"class.std::ios_base::Init"* %5) #3, !taffo.constinfo !15
  %24 = getelementptr inbounds i8*, i8** %1, i64 2
  %25 = load i8*, i8** %24, align 8
  call void @_ZNSaIcEC1Ev(%"class.std::ios_base::Init"* %7) #3, !taffo.constinfo !15
  invoke void @_ZNSt7__cxx1112basic_stringIcSt11char_traitsIcESaIcEEC1EPKcRKS3_(%"class.std::__cxx11::basic_string"* %6, i8* %25, %"class.std::ios_base::Init"* dereferenceable(1) %7)
          to label %26 unwind label %59, !taffo.constinfo !71

; <label>:26:                                     ; preds = %23
  call void @_ZNSaIcED1Ev(%"class.std::ios_base::Init"* %7) #3, !taffo.constinfo !15
  invoke void @_ZNSt14basic_ofstreamIcSt11char_traitsIcEEC1Ev(%"class.std::basic_ofstream"* %8)
          to label %27 unwind label %63, !taffo.constinfo !16

; <label>:27:                                     ; preds = %26
  invoke void @_ZNSt14basic_ofstreamIcSt11char_traitsIcEE4openERKNSt7__cxx1112basic_stringIcS1_SaIcEEESt13_Ios_Openmode(%"class.std::basic_ofstream"* %8, %"class.std::__cxx11::basic_string"* dereferenceable(32) %6, i32 16)
          to label %28 unwind label %67, !taffo.constinfo !71

; <label>:28:                                     ; preds = %27
  %29 = bitcast %"class.std::basic_ofstream"* %8 to i8**
  %30 = load i8*, i8** %29, align 8
  %31 = getelementptr i8, i8* %30, i64 -24
  %32 = bitcast i8* %31 to i64*
  %33 = load i64, i64* %32, align 8
  %34 = bitcast %"class.std::basic_ofstream"* %8 to i8*
  %35 = getelementptr inbounds i8, i8* %34, i64 %33
  %36 = bitcast i8* %35 to %"class.std::ios_base"*, !taffo.structinfo !72
  %37 = invoke i64 @_ZNSt8ios_base9precisionEl(%"class.std::ios_base"* %36, i64 5)
          to label %38 unwind label %67, !taffo.constinfo !75

; <label>:38:                                     ; preds = %28
  invoke void @_ZNSt14basic_ifstreamIcSt11char_traitsIcEEC1ERKNSt7__cxx1112basic_stringIcS1_SaIcEEESt13_Ios_Openmode(%"class.std::basic_ifstream"* %9, %"class.std::__cxx11::basic_string"* dereferenceable(32) %4, i32 8)
          to label %39 unwind label %67, !taffo.constinfo !71

; <label>:39:                                     ; preds = %38
  %40 = bitcast %"class.std::basic_ifstream"* %9 to %"class.std::basic_istream"*
  %41 = invoke dereferenceable(280) %"class.std::basic_istream"* @_ZNSirsERi(%"class.std::basic_istream"* %40, i32* dereferenceable(4) %3)
          to label %42 unwind label %.loopexit.split-lp.loopexit.split-lp, !taffo.constinfo !75

; <label>:42:                                     ; preds = %39
  %43 = load i32, i32* %3, align 4
  %44 = mul nsw i32 %43, 6, !taffo.constinfo !15
  %45 = mul nsw i32 %44, 3, !taffo.constinfo !15
  %46 = sext i32 %45 to i64
  %47 = mul i64 %46, 4, !taffo.constinfo !15
  %48 = call noalias i8* @malloc(i64 %47) #3, !taffo.constinfo !15
  %u1_31fixp = bitcast i8* %48 to i32*, !taffo.info !76
  %49 = bitcast i32* %u1_31fixp to float*, !taffo.info !76
  %.flt = icmp eq float* %49, null, !taffo.info !76, !taffo.initweight !27
  br i1 %.flt, label %50, label %74, !taffo.info !79, !taffo.initweight !28

; <label>:50:                                     ; preds = %42
  %51 = invoke dereferenceable(272) %"class.std::basic_ostream"* @_ZStlsISt11char_traitsIcEERSt13basic_ostreamIcT_ES5_PKc(%"class.std::basic_ostream"* dereferenceable(272) @_ZSt4cout, i8* getelementptr inbounds ([53 x i8], [53 x i8]* @.str.2.17, i32 0, i32 0))
          to label %52 unwind label %.loopexit.split-lp.loopexit.split-lp, !taffo.constinfo !75

; <label>:52:                                     ; preds = %50
  %53 = invoke dereferenceable(272) %"class.std::basic_ostream"* @_ZNSolsEPFRSoS_E(%"class.std::basic_ostream"* %51, %"class.std::basic_ostream"* (%"class.std::basic_ostream"*)* @_ZSt4endlIcSt11char_traitsIcEERSt13basic_ostreamIT_T0_ES6_)
          to label %54 unwind label %.loopexit.split-lp.loopexit.split-lp, !taffo.constinfo !75

; <label>:54:                                     ; preds = %52
  br label %220

; <label>:55:                                     ; preds = %2
  %56 = landingpad { i8*, i32 }
          cleanup
  %57 = extractvalue { i8*, i32 } %56, 0
  %58 = extractvalue { i8*, i32 } %56, 1
  call void @_ZNSaIcED1Ev(%"class.std::ios_base::Init"* %5) #3, !taffo.constinfo !15
  br label %224

; <label>:59:                                     ; preds = %23
  %60 = landingpad { i8*, i32 }
          cleanup
  %61 = extractvalue { i8*, i32 } %60, 0
  %62 = extractvalue { i8*, i32 } %60, 1
  call void @_ZNSaIcED1Ev(%"class.std::ios_base::Init"* %7) #3, !taffo.constinfo !15
  br label %223

; <label>:63:                                     ; preds = %26
  %64 = landingpad { i8*, i32 }
          cleanup
  %65 = extractvalue { i8*, i32 } %64, 0
  %66 = extractvalue { i8*, i32 } %64, 1
  br label %222

; <label>:67:                                     ; preds = %38, %28, %27
  %68 = landingpad { i8*, i32 }
          cleanup
  %69 = extractvalue { i8*, i32 } %68, 0
  %70 = extractvalue { i8*, i32 } %68, 1
  br label %221

.loopexit:                                        ; preds = %159, %167, %178, %181, %183, %186, %188
  %lpad.loopexit = landingpad { i8*, i32 }
          cleanup
  br label %71

.loopexit.split-lp.loopexit:                      ; preds = %130, %127, %124, %121, %118, %115, %112, %109, %106, %103, %100, %97, %94, %91, %88, %85, %82, %78
  %lpad.loopexit2 = landingpad { i8*, i32 }
          cleanup
  br label %.loopexit.split-lp

.loopexit.split-lp.loopexit.split-lp:             ; preds = %217, %216, %214, %212, %208, %206, %192, %151, %52, %50, %39
  %lpad.loopexit.split-lp3 = landingpad { i8*, i32 }
          cleanup
  br label %.loopexit.split-lp

.loopexit.split-lp:                               ; preds = %.loopexit.split-lp.loopexit.split-lp, %.loopexit.split-lp.loopexit
  %lpad.phi4 = phi { i8*, i32 } [ %lpad.loopexit2, %.loopexit.split-lp.loopexit ], [ %lpad.loopexit.split-lp3, %.loopexit.split-lp.loopexit.split-lp ]
  br label %71

; <label>:71:                                     ; preds = %.loopexit.split-lp, %.loopexit
  %lpad.phi = phi { i8*, i32 } [ %lpad.loopexit, %.loopexit ], [ %lpad.phi4, %.loopexit.split-lp ]
  %72 = extractvalue { i8*, i32 } %lpad.phi, 0
  %73 = extractvalue { i8*, i32 } %lpad.phi, 1
  call void @_ZNSt14basic_ifstreamIcSt11char_traitsIcEED1Ev(%"class.std::basic_ifstream"* %9) #3, !taffo.constinfo !15
  br label %221

; <label>:74:                                     ; preds = %42
  br label %75

; <label>:75:                                     ; preds = %149, %74
  %.03 = phi i32 [ 0, %74 ], [ %150, %149 ], !taffo.info !80
  %76 = load i32, i32* %3, align 4
  %77 = icmp slt i32 %.03, %76, !taffo.info !80
  br i1 %77, label %78, label %151

; <label>:78:                                     ; preds = %75
  %79 = bitcast %"class.std::basic_ifstream"* %9 to %"class.std::basic_istream"*
  %80 = getelementptr inbounds [18 x float], [18 x float]* %10, i64 0, i64 0, !taffo.info !59, !taffo.initweight !26
  %81 = invoke dereferenceable(280) %"class.std::basic_istream"* @_ZNSirsERf(%"class.std::basic_istream"* %79, float* dereferenceable(4) %80)
          to label %82 unwind label %.loopexit.split-lp.loopexit, !taffo.structinfo !70, !taffo.initweight !27, !taffo.constinfo !75

; <label>:82:                                     ; preds = %78
  %83 = getelementptr inbounds [18 x float], [18 x float]* %10, i64 0, i64 1, !taffo.info !59, !taffo.initweight !26
  %84 = invoke dereferenceable(280) %"class.std::basic_istream"* @_ZNSirsERf(%"class.std::basic_istream"* %81, float* dereferenceable(4) %83)
          to label %85 unwind label %.loopexit.split-lp.loopexit, !taffo.structinfo !70, !taffo.initweight !27, !taffo.constinfo !75

; <label>:85:                                     ; preds = %82
  %86 = getelementptr inbounds [18 x float], [18 x float]* %10, i64 0, i64 2, !taffo.info !59, !taffo.initweight !26
  %87 = invoke dereferenceable(280) %"class.std::basic_istream"* @_ZNSirsERf(%"class.std::basic_istream"* %84, float* dereferenceable(4) %86)
          to label %88 unwind label %.loopexit.split-lp.loopexit, !taffo.structinfo !70, !taffo.initweight !27, !taffo.constinfo !75

; <label>:88:                                     ; preds = %85
  %89 = getelementptr inbounds [18 x float], [18 x float]* %10, i64 0, i64 3, !taffo.info !59, !taffo.initweight !26
  %90 = invoke dereferenceable(280) %"class.std::basic_istream"* @_ZNSirsERf(%"class.std::basic_istream"* %87, float* dereferenceable(4) %89)
          to label %91 unwind label %.loopexit.split-lp.loopexit, !taffo.structinfo !70, !taffo.initweight !27, !taffo.constinfo !75

; <label>:91:                                     ; preds = %88
  %92 = getelementptr inbounds [18 x float], [18 x float]* %10, i64 0, i64 4, !taffo.info !59, !taffo.initweight !26
  %93 = invoke dereferenceable(280) %"class.std::basic_istream"* @_ZNSirsERf(%"class.std::basic_istream"* %90, float* dereferenceable(4) %92)
          to label %94 unwind label %.loopexit.split-lp.loopexit, !taffo.structinfo !70, !taffo.initweight !27, !taffo.constinfo !75

; <label>:94:                                     ; preds = %91
  %95 = getelementptr inbounds [18 x float], [18 x float]* %10, i64 0, i64 5, !taffo.info !59, !taffo.initweight !26
  %96 = invoke dereferenceable(280) %"class.std::basic_istream"* @_ZNSirsERf(%"class.std::basic_istream"* %93, float* dereferenceable(4) %95)
          to label %97 unwind label %.loopexit.split-lp.loopexit, !taffo.structinfo !70, !taffo.initweight !27, !taffo.constinfo !75

; <label>:97:                                     ; preds = %94
  %98 = getelementptr inbounds [18 x float], [18 x float]* %10, i64 0, i64 6, !taffo.info !59, !taffo.initweight !26
  %99 = invoke dereferenceable(280) %"class.std::basic_istream"* @_ZNSirsERf(%"class.std::basic_istream"* %96, float* dereferenceable(4) %98)
          to label %100 unwind label %.loopexit.split-lp.loopexit, !taffo.structinfo !70, !taffo.initweight !27, !taffo.constinfo !75

; <label>:100:                                    ; preds = %97
  %101 = getelementptr inbounds [18 x float], [18 x float]* %10, i64 0, i64 7, !taffo.info !59, !taffo.initweight !26
  %102 = invoke dereferenceable(280) %"class.std::basic_istream"* @_ZNSirsERf(%"class.std::basic_istream"* %99, float* dereferenceable(4) %101)
          to label %103 unwind label %.loopexit.split-lp.loopexit, !taffo.structinfo !70, !taffo.initweight !27, !taffo.constinfo !75

; <label>:103:                                    ; preds = %100
  %104 = getelementptr inbounds [18 x float], [18 x float]* %10, i64 0, i64 8, !taffo.info !59, !taffo.initweight !26
  %105 = invoke dereferenceable(280) %"class.std::basic_istream"* @_ZNSirsERf(%"class.std::basic_istream"* %102, float* dereferenceable(4) %104)
          to label %106 unwind label %.loopexit.split-lp.loopexit, !taffo.structinfo !70, !taffo.initweight !27, !taffo.constinfo !75

; <label>:106:                                    ; preds = %103
  %107 = getelementptr inbounds [18 x float], [18 x float]* %10, i64 0, i64 9, !taffo.info !59, !taffo.initweight !26
  %108 = invoke dereferenceable(280) %"class.std::basic_istream"* @_ZNSirsERf(%"class.std::basic_istream"* %105, float* dereferenceable(4) %107)
          to label %109 unwind label %.loopexit.split-lp.loopexit, !taffo.structinfo !70, !taffo.initweight !27, !taffo.constinfo !75

; <label>:109:                                    ; preds = %106
  %110 = getelementptr inbounds [18 x float], [18 x float]* %10, i64 0, i64 10, !taffo.info !59, !taffo.initweight !26
  %111 = invoke dereferenceable(280) %"class.std::basic_istream"* @_ZNSirsERf(%"class.std::basic_istream"* %108, float* dereferenceable(4) %110)
          to label %112 unwind label %.loopexit.split-lp.loopexit, !taffo.structinfo !70, !taffo.initweight !27, !taffo.constinfo !75

; <label>:112:                                    ; preds = %109
  %113 = getelementptr inbounds [18 x float], [18 x float]* %10, i64 0, i64 11, !taffo.info !59, !taffo.initweight !26
  %114 = invoke dereferenceable(280) %"class.std::basic_istream"* @_ZNSirsERf(%"class.std::basic_istream"* %111, float* dereferenceable(4) %113)
          to label %115 unwind label %.loopexit.split-lp.loopexit, !taffo.structinfo !70, !taffo.initweight !27, !taffo.constinfo !75

; <label>:115:                                    ; preds = %112
  %116 = getelementptr inbounds [18 x float], [18 x float]* %10, i64 0, i64 12, !taffo.info !59, !taffo.initweight !26
  %117 = invoke dereferenceable(280) %"class.std::basic_istream"* @_ZNSirsERf(%"class.std::basic_istream"* %114, float* dereferenceable(4) %116)
          to label %118 unwind label %.loopexit.split-lp.loopexit, !taffo.structinfo !70, !taffo.initweight !27, !taffo.constinfo !75

; <label>:118:                                    ; preds = %115
  %119 = getelementptr inbounds [18 x float], [18 x float]* %10, i64 0, i64 13, !taffo.info !59, !taffo.initweight !26
  %120 = invoke dereferenceable(280) %"class.std::basic_istream"* @_ZNSirsERf(%"class.std::basic_istream"* %117, float* dereferenceable(4) %119)
          to label %121 unwind label %.loopexit.split-lp.loopexit, !taffo.structinfo !70, !taffo.initweight !27, !taffo.constinfo !75

; <label>:121:                                    ; preds = %118
  %122 = getelementptr inbounds [18 x float], [18 x float]* %10, i64 0, i64 14, !taffo.info !59, !taffo.initweight !26
  %123 = invoke dereferenceable(280) %"class.std::basic_istream"* @_ZNSirsERf(%"class.std::basic_istream"* %120, float* dereferenceable(4) %122)
          to label %124 unwind label %.loopexit.split-lp.loopexit, !taffo.structinfo !70, !taffo.initweight !27, !taffo.constinfo !75

; <label>:124:                                    ; preds = %121
  %125 = getelementptr inbounds [18 x float], [18 x float]* %10, i64 0, i64 15, !taffo.info !59, !taffo.initweight !26
  %126 = invoke dereferenceable(280) %"class.std::basic_istream"* @_ZNSirsERf(%"class.std::basic_istream"* %123, float* dereferenceable(4) %125)
          to label %127 unwind label %.loopexit.split-lp.loopexit, !taffo.structinfo !70, !taffo.initweight !27, !taffo.constinfo !75

; <label>:127:                                    ; preds = %124
  %128 = getelementptr inbounds [18 x float], [18 x float]* %10, i64 0, i64 16, !taffo.info !59, !taffo.initweight !26
  %129 = invoke dereferenceable(280) %"class.std::basic_istream"* @_ZNSirsERf(%"class.std::basic_istream"* %126, float* dereferenceable(4) %128)
          to label %130 unwind label %.loopexit.split-lp.loopexit, !taffo.structinfo !70, !taffo.initweight !27, !taffo.constinfo !75

; <label>:130:                                    ; preds = %127
  %131 = getelementptr inbounds [18 x float], [18 x float]* %10, i64 0, i64 17, !taffo.info !59, !taffo.initweight !26
  %132 = invoke dereferenceable(280) %"class.std::basic_istream"* @_ZNSirsERf(%"class.std::basic_istream"* %129, float* dereferenceable(4) %131)
          to label %133 unwind label %.loopexit.split-lp.loopexit, !taffo.structinfo !70, !taffo.initweight !27, !taffo.constinfo !75

; <label>:133:                                    ; preds = %130
  br label %134

; <label>:134:                                    ; preds = %Flow1, %133
  %.04 = phi i32 [ 0, %133 ], [ %145, %Flow1 ], !taffo.info !80
  %135 = icmp slt i32 %.04, 18, !taffo.info !82
  call void asm "# LLVM-MCA-BEGIN", "~{dirflag},~{fpsr},~{flags}"()
  br i1 %135, label %136, label %Flow1

; <label>:136:                                    ; preds = %134
  %137 = sext i32 %.04 to i64, !taffo.info !1
  %138 = getelementptr inbounds [18 x float], [18 x float]* %10, i64 0, i64 %137, !taffo.info !59, !taffo.initweight !26
  %139 = load float, float* %138, align 4, !taffo.info !59, !taffo.initweight !27
  %140 = fmul float 0x41E0000000000000, %139, !taffo.info !59
  %141 = fptoui float %140 to i32, !taffo.info !59
  %142 = mul nsw i32 %.03, 18, !taffo.info !1, !taffo.constinfo !15
  %143 = add nsw i32 %142, %.04, !taffo.info !1
  %144 = sext i32 %143 to i64, !taffo.info !1
  %u1_31fixp7 = getelementptr inbounds i32, i32* %u1_31fixp, i64 %144, !taffo.info !84
  store i32 %141, i32* %u1_31fixp7, align 4, !taffo.info !79
  br label %147

Flow1:                                            ; preds = %147, %134
  %145 = phi i32 [ %148, %147 ], [ undef, %134 ]
  %146 = phi i1 [ false, %147 ], [ true, %134 ]
  br i1 %146, label %149, label %134

; <label>:147:                                    ; preds = %136
  %148 = add nsw i32 %.04, 1, !taffo.info !82, !taffo.constinfo !15
  br label %Flow1

; <label>:149:                                    ; preds = %Flow1
  call void asm "# LLVM-MCA-END", "~{dirflag},~{fpsr},~{flags}"()
  %150 = add nsw i32 %.03, 1, !taffo.info !82, !taffo.constinfo !15
  br label %75

; <label>:151:                                    ; preds = %75
  %152 = bitcast [6 x i32]* %11 to i8*
  call void @llvm.memset.p0i8.i64(i8* align 16 %152, i8 0, i64 24, i1 false), !taffo.constinfo !75
  invoke void @_ZN12AxBenchTimerC2Ev(%class.AxBenchTimer* %12)
          to label %153 unwind label %.loopexit.split-lp.loopexit.split-lp, !taffo.constinfo !16

; <label>:153:                                    ; preds = %151
  br label %154

; <label>:154:                                    ; preds = %190, %153
  %.1 = phi i32 [ 0, %153 ], [ %191, %190 ], !taffo.info !85
  %.02 = phi i64 [ 0, %153 ], [ %170, %190 ], !taffo.info !1
  %155 = load i32, i32* %3, align 4
  %156 = mul nsw i32 %155, 6, !taffo.constinfo !15
  %157 = mul nsw i32 %156, 3, !taffo.constinfo !15
  %158 = icmp slt i32 %.1, %157, !taffo.info !80
  br i1 %158, label %159, label %192

; <label>:159:                                    ; preds = %154
  store i32 -1, i32* %13, align 4, !taffo.constinfo !15
  %160 = sext i32 %.1 to i64, !taffo.info !1
  %u1_31fixp6 = getelementptr inbounds i32, i32* %u1_31fixp, i64 %160, !taffo.info !84
  %u1_31fixp14 = getelementptr inbounds i32, i32* %u1_31fixp6, i64 0, !taffo.info !84
  %161 = sext i32 %.1 to i64, !taffo.info !1
  %u1_31fixp5 = getelementptr inbounds i32, i32* %u1_31fixp, i64 %161, !taffo.info !84
  %u1_31fixp13 = getelementptr inbounds i32, i32* %u1_31fixp5, i64 3, !taffo.info !84
  %162 = sext i32 %.1 to i64, !taffo.info !1
  %u1_31fixp4 = getelementptr inbounds i32, i32* %u1_31fixp, i64 %162, !taffo.info !84
  %u1_31fixp12 = getelementptr inbounds i32, i32* %u1_31fixp4, i64 6, !taffo.info !84
  %163 = sext i32 %.1 to i64, !taffo.info !1
  %u1_31fixp3 = getelementptr inbounds i32, i32* %u1_31fixp, i64 %163, !taffo.info !84
  %u1_31fixp11 = getelementptr inbounds i32, i32* %u1_31fixp3, i64 9, !taffo.info !84
  %164 = sext i32 %.1 to i64, !taffo.info !1
  %u1_31fixp2 = getelementptr inbounds i32, i32* %u1_31fixp, i64 %164, !taffo.info !84
  %u1_31fixp10 = getelementptr inbounds i32, i32* %u1_31fixp2, i64 12, !taffo.info !84
  %165 = sext i32 %.1 to i64, !taffo.info !1
  %u1_31fixp1 = getelementptr inbounds i32, i32* %u1_31fixp, i64 %165, !taffo.info !84
  %u1_31fixp9 = getelementptr inbounds i32, i32* %u1_31fixp1, i64 15, !taffo.info !84
  %s15_17fixp8 = getelementptr inbounds [2 x i32], [2 x i32]* %s15_17fixp, i32 0, i32 0, !taffo.info !61, !taffo.target !64
  %166 = invoke i32 @_Z17tri_tri_intersectPfS_S_S_S_S_S_Pi.3_fixp(i32* %u1_31fixp14, i32* %u1_31fixp13, i32* %u1_31fixp12, i32* %u1_31fixp11, i32* %u1_31fixp10, i32* %u1_31fixp9, i32* %s15_17fixp8, i32* %13)
          to label %167 unwind label %.loopexit, !taffo.info !87, !taffo.constinfo !88, !taffo.target !64

; <label>:167:                                    ; preds = %159
  %168 = invoke i64 @_ZN12AxBenchTimer20nanosecondsSinceInitEv(%class.AxBenchTimer* %12)
          to label %169 unwind label %.loopexit, !taffo.constinfo !16

; <label>:169:                                    ; preds = %167
  %170 = add i64 %.02, %168
  %171 = load i32, i32* %13, align 4, !taffo.info !65
  %172 = sext i32 %171 to i64, !taffo.info !65
  %173 = getelementptr inbounds [6 x i32], [6 x i32]* %11, i64 0, i64 %172
  %174 = load i32, i32* %173, align 4
  %175 = add nsw i32 %174, 1, !taffo.constinfo !15
  store i32 %175, i32* %173, align 4
  br label %176

; <label>:176:                                    ; preds = %169
  br label %177

; <label>:177:                                    ; preds = %176
  br label %178

; <label>:178:                                    ; preds = %177
  %179 = bitcast %"class.std::basic_ofstream"* %8 to %"class.std::basic_ostream"*
  %180 = invoke dereferenceable(272) %"class.std::basic_ostream"* @_ZNSolsEi(%"class.std::basic_ostream"* %179, i32 %166)
          to label %181 unwind label %.loopexit, !taffo.constinfo !75

; <label>:181:                                    ; preds = %178
  %182 = invoke dereferenceable(272) %"class.std::basic_ostream"* @_ZStlsISt11char_traitsIcEERSt13basic_ostreamIcT_ES5_PKc(%"class.std::basic_ostream"* dereferenceable(272) %180, i8* getelementptr inbounds ([6 x i8], [6 x i8]* @.str.5.20, i32 0, i32 0))
          to label %183 unwind label %.loopexit, !taffo.constinfo !75

; <label>:183:                                    ; preds = %181
  %184 = load i32, i32* %13, align 4, !taffo.info !65
  %185 = invoke dereferenceable(272) %"class.std::basic_ostream"* @_ZNSolsEi(%"class.std::basic_ostream"* %182, i32 %184)
          to label %186 unwind label %.loopexit, !taffo.constinfo !75

; <label>:186:                                    ; preds = %183
  %187 = invoke dereferenceable(272) %"class.std::basic_ostream"* @_ZNSolsEPFRSoS_E(%"class.std::basic_ostream"* %185, %"class.std::basic_ostream"* (%"class.std::basic_ostream"*)* @_ZSt4endlIcSt11char_traitsIcEERSt13basic_ostreamIT_T0_ES6_)
          to label %188 unwind label %.loopexit, !taffo.constinfo !75

; <label>:188:                                    ; preds = %186
  invoke void @_ZN12AxBenchTimer5resetEv(%class.AxBenchTimer* %12)
          to label %189 unwind label %.loopexit, !taffo.constinfo !16

; <label>:189:                                    ; preds = %188
  br label %190

; <label>:190:                                    ; preds = %189
  %191 = add nsw i32 %.1, 18, !taffo.info !89, !taffo.constinfo !15
  br label %154

; <label>:192:                                    ; preds = %154
  %193 = invoke i64 @_ZN12AxBenchTimer20nanosecondsSinceInitEv(%class.AxBenchTimer* %12)
          to label %194 unwind label %.loopexit.split-lp.loopexit.split-lp, !taffo.constinfo !16

; <label>:194:                                    ; preds = %192
  %195 = add i64 %.02, %193
  br label %196

; <label>:196:                                    ; preds = %Flow, %194
  %.01 = phi i32 [ 0, %194 ], [ %199, %Flow ], !taffo.info !80
  %197 = icmp slt i32 %.01, 6, !taffo.info !82
  call void asm "# LLVM-MCA-BEGIN", "~{dirflag},~{fpsr},~{flags}"()
  br i1 %197, label %198, label %Flow

; <label>:198:                                    ; preds = %196
  br label %201

Flow:                                             ; preds = %204, %196
  %199 = phi i32 [ %205, %204 ], [ undef, %196 ]
  %200 = phi i1 [ false, %204 ], [ true, %196 ]
  br i1 %200, label %206, label %196

; <label>:201:                                    ; preds = %198
  br label %202

; <label>:202:                                    ; preds = %201
  br label %203

; <label>:203:                                    ; preds = %202
  br label %204

; <label>:204:                                    ; preds = %203
  %205 = add nsw i32 %.01, 1, !taffo.info !82, !taffo.constinfo !15
  br label %Flow

; <label>:206:                                    ; preds = %Flow
  call void asm "# LLVM-MCA-END", "~{dirflag},~{fpsr},~{flags}"()
  %207 = invoke dereferenceable(272) %"class.std::basic_ostream"* @_ZStlsISt11char_traitsIcEERSt13basic_ostreamIcT_ES5_PKc(%"class.std::basic_ostream"* dereferenceable(272) @_ZSt4cout, i8* getelementptr inbounds ([15 x i8], [15 x i8]* @.str.6.21, i32 0, i32 0))
          to label %208 unwind label %.loopexit.split-lp.loopexit.split-lp, !taffo.constinfo !75

; <label>:208:                                    ; preds = %206
  %209 = uitofp i64 %195 to double
  %210 = fdiv double %209, 1.000000e+09, !taffo.constinfo !91
  %211 = invoke dereferenceable(272) %"class.std::basic_ostream"* @_ZNSolsEd(%"class.std::basic_ostream"* %207, double %210)
          to label %212 unwind label %.loopexit.split-lp.loopexit.split-lp, !taffo.constinfo !75

; <label>:212:                                    ; preds = %208
