; ModuleID = 'obj/main.ll'
source_filename = "llvm-link"
target datalayout = "e-m:e-i64:64-f80:128-n8:16:32:64-S128"
target triple = "x86_64-pc-linux-gnu"

%"class.std::ios_base::Init" = type { i8 }
%"class.std::basic_ostream" = type { i32 (...)**, %"class.std::basic_ios" }
%"class.std::basic_ios" = type { %"class.std::ios_base", %"class.std::basic_ostream"*, i8, i8, %"class.std::basic_streambuf"*, %"class.std::ctype"*, %"class.std::num_put"*, %"class.std::num_put"* }
%"class.std::ios_base" = type { i32 (...)**, i64, i64, i32, i32, i32, %"struct.std::ios_base::_Callback_list"*, %"struct.std::ios_base::_Words", [8 x %"struct.std::ios_base::_Words"], i32, %"struct.std::ios_base::_Words"*, %"class.std::locale" }
%"struct.std::ios_base::_Callback_list" = type { %"struct.std::ios_base::_Callback_list"*, void (i32, %"class.std::ios_base"*, i32)*, i32, i32 }
%"struct.std::ios_base::_Words" = type { i8*, i64 }
%"class.std::locale" = type { %"class.std::locale::_Impl"* }
%"class.std::locale::_Impl" = type { i32, %"class.std::locale::facet"**, i64, %"class.std::locale::facet"**, i8** }
%"class.std::locale::facet" = type <{ i32 (...)**, i32, [4 x i8] }>
%"class.std::basic_streambuf" = type { i32 (...)**, i8*, i8*, i8*, i8*, i8*, i8*, %"class.std::locale" }
%"class.std::ctype" = type <{ %"class.std::locale::facet.base", [4 x i8], %struct.__locale_struct*, i8, [7 x i8], i32*, i32*, i16*, i8, [256 x i8], [256 x i8], i8, [6 x i8] }>
%"class.std::locale::facet.base" = type <{ i32 (...)**, i32 }>
%struct.__locale_struct = type { [13 x %struct.__locale_data*], i16*, i32*, i32*, [13 x i8*] }
%struct.__locale_data = type opaque
%"class.std::num_put" = type { %"class.std::locale::facet.base", [4 x i8] }
%"class.std::__cxx11::basic_string" = type { %"struct.std::__cxx11::basic_string<char, std::char_traits<char>, std::allocator<char> >::_Alloc_hider", i64, %union.anon }
%"struct.std::__cxx11::basic_string<char, std::char_traits<char>, std::allocator<char> >::_Alloc_hider" = type { i8* }
%union.anon = type { i64, [8 x i8] }
%"class.std::basic_ofstream" = type { %"class.std::basic_ostream.base", %"class.std::basic_filebuf", %"class.std::basic_ios" }
%"class.std::basic_ostream.base" = type { i32 (...)** }
%"class.std::basic_filebuf" = type { %"class.std::basic_streambuf", %union.pthread_mutex_t, %"class.std::__basic_file", i32, %struct.__mbstate_t, %struct.__mbstate_t, %struct.__mbstate_t, i8*, i64, i8, i8, i8, i8, i8*, i8*, i8, %"class.std::codecvt"*, i8*, i64, i8*, i8* }
%union.pthread_mutex_t = type { %struct.__pthread_mutex_s }
%struct.__pthread_mutex_s = type { i32, i32, i32, i32, i32, i16, i16, %struct.__pthread_internal_list }
%struct.__pthread_internal_list = type { %struct.__pthread_internal_list*, %struct.__pthread_internal_list* }
%"class.std::__basic_file" = type <{ %struct._IO_FILE*, i8, [7 x i8] }>
%struct._IO_FILE = type { i32, i8*, i8*, i8*, i8*, i8*, i8*, i8*, i8*, i8*, i8*, i8*, %struct._IO_marker*, %struct._IO_FILE*, i32, i32, i64, i16, i8, [1 x i8], i8*, i64, %struct._IO_codecvt*, %struct._IO_wide_data*, %struct._IO_FILE*, i8*, i64, i32, [20 x i8] }
%struct._IO_marker = type opaque
%struct._IO_codecvt = type opaque
%struct._IO_wide_data = type opaque
%struct.__mbstate_t = type { i32, %union.anon.0 }
%union.anon.0 = type { i32 }
%"class.std::codecvt" = type { %"class.std::__codecvt_abstract_base.base", %struct.__locale_struct* }
%"class.std::__codecvt_abstract_base.base" = type { %"class.std::locale::facet.base" }
%"class.std::basic_ifstream" = type { %"class.std::basic_istream.base", %"class.std::basic_filebuf", %"class.std::basic_ios" }
%"class.std::basic_istream.base" = type { i32 (...)**, i64 }
%class.AxBenchTimer = type { %struct.timespec }
%struct.timespec = type { i64, i64 }
%"class.std::basic_istream" = type { i32 (...)**, i64, %"class.std::basic_ios" }

$_ZNSt8ios_base9precisionEl = comdat any

$_ZN12AxBenchTimerC2Ev = comdat any

$_ZN12AxBenchTimer20nanosecondsSinceInitEv = comdat any

$_ZN12AxBenchTimer5resetEv = comdat any

@llvm.global_ctors = appending global [2 x { i32, void ()*, i8* }] [{ i32, void ()*, i8* } { i32 65535, void ()* @_GLOBAL__sub_I_tritri.cpp, i8* null }, { i32, void ()*, i8* } { i32 65535, void ()* @_GLOBAL__sub_I_jmeint.cpp, i8* null }]
@_ZStL8__ioinit = internal global %"class.std::ios_base::Init" zeroinitializer, align 1
@__dso_handle = external hidden global i8
@.str = private unnamed_addr constant [9 x i8] c"scalar()\00", section "llvm.metadata"
@.str.1 = private unnamed_addr constant [15 x i8] c"src/tritri.cpp\00", section "llvm.metadata"
@.str.2 = private unnamed_addr constant [24 x i8] c"errtarget('e') scalar()\00", section "llvm.metadata"
@.str.3 = private unnamed_addr constant [24 x i8] c"errtarget('d') scalar()\00", section "llvm.metadata"
@.str.4 = private unnamed_addr constant [24 x i8] c"errtarget('f') scalar()\00", section "llvm.metadata"
@.str.5 = private unnamed_addr constant [28 x i8] c"errtarget('d0*d1') scalar()\00", section "llvm.metadata"
@.str.6 = private unnamed_addr constant [28 x i8] c"errtarget('d0*d2') scalar()\00", section "llvm.metadata"
@.str.7 = private unnamed_addr constant [29 x i8] c"errtarget('du0du1') scalar()\00", section "llvm.metadata"
@.str.8 = private unnamed_addr constant [29 x i8] c"errtarget('du0du2') scalar()\00", section "llvm.metadata"
@.str.9 = private unnamed_addr constant [29 x i8] c"errtarget('dv0dv1') scalar()\00", section "llvm.metadata"
@.str.10 = private unnamed_addr constant [29 x i8] c"errtarget('dv0dv2') scalar()\00", section "llvm.metadata"
@.str.11 = private unnamed_addr constant [37 x i8] c"scalar(range(1e-3, 23.522400) final)\00", section "llvm.metadata"
@.str.12 = private unnamed_addr constant [39 x i8] c"scalar(range(-23.522400, -1e-3) final)\00", section "llvm.metadata"
@.str.13 = private unnamed_addr constant [36 x i8] c"errtarget('delta_isect_1') scalar()\00", section "llvm.metadata"
@.str.14 = private unnamed_addr constant [36 x i8] c"errtarget('delta_isect_2') scalar()\00", section "llvm.metadata"
@_ZStL8__ioinit.3 = internal global %"class.std::ios_base::Init" zeroinitializer, align 1
@_ZSt4cout = external dso_local global %"class.std::basic_ostream", align 8
@.str.15 = private unnamed_addr constant [50 x i8] c"scalar(range(0.01,1) error(1e-8)) backtracking(2)\00", section "llvm.metadata"
@.str.1.16 = private unnamed_addr constant [15 x i8] c"src/jmeint.cpp\00", section "llvm.metadata"
@.str.2.17 = private unnamed_addr constant [53 x i8] c"cannot allocate memory for the triangle coordinates!\00", align 1
@.str.3.18 = private unnamed_addr constant [31 x i8] c"scalar(disabled range(0.01,1))\00", section "llvm.metadata"
@.str.4.19 = private unnamed_addr constant [23 x i8] c"target('res') scalar()\00", section "llvm.metadata"
@.str.5.20 = private unnamed_addr constant [6 x i8] c" 0 0 \00", align 1
@.str.6.21 = private unnamed_addr constant [15 x i8] c"kernel time = \00", align 1
@.str.7.22 = private unnamed_addr constant [3 x i8] c" s\00", align 1

; Function Attrs: noinline uwtable
define internal void @_GLOBAL__sub_I_tritri.cpp() #0 section ".text.startup" {
  call void @__cxx_global_var_init()
  ret void
}

; Function Attrs: noinline uwtable
define internal void @__cxx_global_var_init() #0 section ".text.startup" {
  call void @_ZNSt8ios_base4InitC1Ev(%"class.std::ios_base::Init"* @_ZStL8__ioinit)
  %1 = call i32 @__cxa_atexit(void (i8*)* bitcast (void (%"class.std::ios_base::Init"*)* @_ZNSt8ios_base4InitD1Ev to void (i8*)*), i8* getelementptr inbounds (%"class.std::ios_base::Init", %"class.std::ios_base::Init"* @_ZStL8__ioinit, i32 0, i32 0), i8* @__dso_handle) #3
  ret void
}

declare dso_local void @_ZNSt8ios_base4InitC1Ev(%"class.std::ios_base::Init"*) unnamed_addr #1

; Function Attrs: nounwind
declare dso_local void @_ZNSt8ios_base4InitD1Ev(%"class.std::ios_base::Init"*) unnamed_addr #2

; Function Attrs: nounwind
declare dso_local i32 @__cxa_atexit(void (i8*)*, i8*, i8*) #3

; Function Attrs: noinline nounwind optnone uwtable
define dso_local i32 @_Z16coplanar_tri_triPfS_S_S_S_S_S_(float*, float*, float*, float*, float*, float*, float*) #4 {
  %8 = alloca i32, align 4
  %9 = alloca float*, align 8
  %10 = alloca float*, align 8
  %11 = alloca float*, align 8
  %12 = alloca float*, align 8
  %13 = alloca float*, align 8
  %14 = alloca float*, align 8
  %15 = alloca float*, align 8
  %16 = alloca [3 x float], align 4
  %17 = alloca i16, align 2
  %18 = alloca i16, align 2
  %19 = alloca float, align 4
  %20 = alloca float, align 4
  %21 = alloca float, align 4
  %22 = alloca float, align 4
  %23 = alloca float, align 4
  %24 = alloca float, align 4
  %25 = alloca float, align 4
  %26 = alloca float, align 4
  %27 = alloca float, align 4
  %28 = alloca float, align 4
  %29 = alloca float, align 4
  %30 = alloca float, align 4
  %31 = alloca float, align 4
  %32 = alloca float, align 4
  %33 = alloca float, align 4
  %34 = alloca float, align 4
  %35 = alloca float, align 4
  %36 = alloca float, align 4
  %37 = alloca float, align 4
  %38 = alloca float, align 4
  %39 = alloca float, align 4
  %40 = alloca float, align 4
  %41 = alloca float, align 4
  %42 = alloca float, align 4
  %43 = alloca float, align 4
  %44 = alloca float, align 4
  %45 = alloca float, align 4
  %46 = alloca float, align 4
  %47 = alloca float, align 4
  %48 = alloca float, align 4
  %49 = alloca float, align 4
  %50 = alloca float, align 4
  %51 = alloca float, align 4
  %52 = alloca float, align 4
  %53 = alloca float, align 4
  %54 = alloca float, align 4
  %55 = alloca float, align 4
  %56 = alloca float, align 4
  %57 = alloca float, align 4
  %58 = alloca float, align 4
  %59 = alloca float, align 4
  %60 = alloca float, align 4
  %61 = alloca float, align 4
  store float* %0, float** %9, align 8
  store float* %1, float** %10, align 8
  store float* %2, float** %11, align 8
  store float* %3, float** %12, align 8
  store float* %4, float** %13, align 8
  store float* %5, float** %14, align 8
  store float* %6, float** %15, align 8
  %62 = bitcast [3 x float]* %16 to i8*
  call void @llvm.var.annotation(i8* %62, i8* getelementptr inbounds ([9 x i8], [9 x i8]* @.str, i32 0, i32 0), i8* getelementptr inbounds ([15 x i8], [15 x i8]* @.str.1, i32 0, i32 0), i32 186)
  %63 = load float*, float** %9, align 8
  %64 = getelementptr inbounds float, float* %63, i64 0
  %65 = load float, float* %64, align 4
  %66 = fpext float %65 to double
  %67 = call double @llvm.fabs.f64(double %66)
  %68 = fptrunc double %67 to float
  %69 = getelementptr inbounds [3 x float], [3 x float]* %16, i64 0, i64 0
  store float %68, float* %69, align 4
  %70 = load float*, float** %9, align 8
  %71 = getelementptr inbounds float, float* %70, i64 1
  %72 = load float, float* %71, align 4
  %73 = fpext float %72 to double
  %74 = call double @llvm.fabs.f64(double %73)
  %75 = fptrunc double %74 to float
  %76 = getelementptr inbounds [3 x float], [3 x float]* %16, i64 0, i64 1
  store float %75, float* %76, align 4
  %77 = load float*, float** %9, align 8
  %78 = getelementptr inbounds float, float* %77, i64 2
  %79 = load float, float* %78, align 4
  %80 = fpext float %79 to double
  %81 = call double @llvm.fabs.f64(double %80)
  %82 = fptrunc double %81 to float
  %83 = getelementptr inbounds [3 x float], [3 x float]* %16, i64 0, i64 2
  store float %82, float* %83, align 4
  %84 = getelementptr inbounds [3 x float], [3 x float]* %16, i64 0, i64 0
  %85 = load float, float* %84, align 4
  %86 = getelementptr inbounds [3 x float], [3 x float]* %16, i64 0, i64 1
  %87 = load float, float* %86, align 4
  %88 = fcmp ogt float %85, %87
  %89 = xor i1 %88, true
  br i1 %89, label %101, label %Flow153

; <label>:90:                                     ; preds = %Flow153
  %91 = getelementptr inbounds [3 x float], [3 x float]* %16, i64 0, i64 0
  %92 = load float, float* %91, align 4
  %93 = getelementptr inbounds [3 x float], [3 x float]* %16, i64 0, i64 2
  %94 = load float, float* %93, align 4
  %95 = fcmp ogt float %92, %94
  %96 = xor i1 %95, true
  br i1 %96, label %99, label %Flow152

Flow152:                                          ; preds = %99, %90
  %97 = phi i1 [ false, %99 ], [ true, %90 ]
  br i1 %97, label %98, label %100

; <label>:98:                                     ; preds = %Flow152
  store i16 1, i16* %17, align 2
  store i16 2, i16* %18, align 2
  br label %100

; <label>:99:                                     ; preds = %90
  store i16 0, i16* %17, align 2
  store i16 1, i16* %18, align 2
  br label %Flow152

Flow154:                                          ; preds = %100, %Flow153
  br label %113

; <label>:100:                                    ; preds = %98, %Flow152
  br label %Flow154

; <label>:101:                                    ; preds = %7
  %102 = getelementptr inbounds [3 x float], [3 x float]* %16, i64 0, i64 2
  %103 = load float, float* %102, align 4
  %104 = getelementptr inbounds [3 x float], [3 x float]* %16, i64 0, i64 1
  %105 = load float, float* %104, align 4
  %106 = fcmp ogt float %103, %105
  %107 = xor i1 %106, true
  br i1 %107, label %110, label %Flow151

Flow151:                                          ; preds = %110, %101
  %108 = phi i1 [ false, %110 ], [ true, %101 ]
  br i1 %108, label %109, label %112

; <label>:109:                                    ; preds = %Flow151
  store i16 0, i16* %17, align 2
  store i16 1, i16* %18, align 2
  br label %112

; <label>:110:                                    ; preds = %101
  store i16 0, i16* %17, align 2
  store i16 2, i16* %18, align 2
  br label %Flow151

Flow153:                                          ; preds = %112, %7
  %111 = phi i1 [ false, %112 ], [ true, %7 ]
  br i1 %111, label %90, label %Flow154

; <label>:112:                                    ; preds = %109, %Flow151
  br label %Flow153

; <label>:113:                                    ; preds = %Flow154
  %114 = bitcast float* %19 to i8*
  call void @llvm.var.annotation(i8* %114, i8* getelementptr inbounds ([9 x i8], [9 x i8]* @.str, i32 0, i32 0), i8* getelementptr inbounds ([15 x i8], [15 x i8]* @.str.1, i32 0, i32 0), i32 221)
  %115 = bitcast float* %20 to i8*
  call void @llvm.var.annotation(i8* %115, i8* getelementptr inbounds ([9 x i8], [9 x i8]* @.str, i32 0, i32 0), i8* getelementptr inbounds ([15 x i8], [15 x i8]* @.str.1, i32 0, i32 0), i32 221)
  %116 = bitcast float* %21 to i8*
  call void @llvm.var.annotation(i8* %116, i8* getelementptr inbounds ([9 x i8], [9 x i8]* @.str, i32 0, i32 0), i8* getelementptr inbounds ([15 x i8], [15 x i8]* @.str.1, i32 0, i32 0), i32 221)
  %117 = bitcast float* %22 to i8*
  call void @llvm.var.annotation(i8* %117, i8* getelementptr inbounds ([9 x i8], [9 x i8]* @.str, i32 0, i32 0), i8* getelementptr inbounds ([15 x i8], [15 x i8]* @.str.1, i32 0, i32 0), i32 221)
  %118 = bitcast float* %23 to i8*
  call void @llvm.var.annotation(i8* %118, i8* getelementptr inbounds ([9 x i8], [9 x i8]* @.str, i32 0, i32 0), i8* getelementptr inbounds ([15 x i8], [15 x i8]* @.str.1, i32 0, i32 0), i32 221)
  %119 = bitcast float* %24 to i8*
  call void @llvm.var.annotation(i8* %119, i8* getelementptr inbounds ([9 x i8], [9 x i8]* @.str, i32 0, i32 0), i8* getelementptr inbounds ([15 x i8], [15 x i8]* @.str.1, i32 0, i32 0), i32 221)
  %120 = bitcast float* %25 to i8*
  call void @llvm.var.annotation(i8* %120, i8* getelementptr inbounds ([24 x i8], [24 x i8]* @.str.2, i32 0, i32 0), i8* getelementptr inbounds ([15 x i8], [15 x i8]* @.str.1, i32 0, i32 0), i32 221)
  %121 = bitcast float* %26 to i8*
  call void @llvm.var.annotation(i8* %121, i8* getelementptr inbounds ([24 x i8], [24 x i8]* @.str.2, i32 0, i32 0), i8* getelementptr inbounds ([15 x i8], [15 x i8]* @.str.1, i32 0, i32 0), i32 221)
  %122 = bitcast float* %26 to i8*
  call void @llvm.var.annotation(i8* %122, i8* getelementptr inbounds ([24 x i8], [24 x i8]* @.str.3, i32 0, i32 0), i8* getelementptr inbounds ([15 x i8], [15 x i8]* @.str.1, i32 0, i32 0), i32 221)
  %123 = bitcast float* %27 to i8*
  call void @llvm.var.annotation(i8* %123, i8* getelementptr inbounds ([24 x i8], [24 x i8]* @.str.2, i32 0, i32 0), i8* getelementptr inbounds ([15 x i8], [15 x i8]* @.str.1, i32 0, i32 0), i32 221)
  %124 = bitcast float* %27 to i8*
  call void @llvm.var.annotation(i8* %124, i8* getelementptr inbounds ([24 x i8], [24 x i8]* @.str.4, i32 0, i32 0), i8* getelementptr inbounds ([15 x i8], [15 x i8]* @.str.1, i32 0, i32 0), i32 221)
  %125 = load float*, float** %11, align 8
  %126 = load i16, i16* %17, align 2
  %127 = sext i16 %126 to i64
  %128 = getelementptr inbounds float, float* %125, i64 %127
  %129 = load float, float* %128, align 4
  %130 = load float*, float** %10, align 8
  %131 = load i16, i16* %17, align 2
  %132 = sext i16 %131 to i64
  %133 = getelementptr inbounds float, float* %130, i64 %132
  %134 = load float, float* %133, align 4
  %135 = fsub float %129, %134
  store float %135, float* %19, align 4
  %136 = load float*, float** %11, align 8
  %137 = load i16, i16* %18, align 2
  %138 = sext i16 %137 to i64
  %139 = getelementptr inbounds float, float* %136, i64 %138
  %140 = load float, float* %139, align 4
  %141 = load float*, float** %10, align 8
  %142 = load i16, i16* %18, align 2
  %143 = sext i16 %142 to i64
  %144 = getelementptr inbounds float, float* %141, i64 %143
  %145 = load float, float* %144, align 4
  %146 = fsub float %140, %145
  store float %146, float* %20, align 4
  %147 = load float*, float** %13, align 8
  %148 = load i16, i16* %17, align 2
  %149 = sext i16 %148 to i64
  %150 = getelementptr inbounds float, float* %147, i64 %149
  %151 = load float, float* %150, align 4
  %152 = load float*, float** %14, align 8
  %153 = load i16, i16* %17, align 2
  %154 = sext i16 %153 to i64
  %155 = getelementptr inbounds float, float* %152, i64 %154
  %156 = load float, float* %155, align 4
  %157 = fsub float %151, %156
  store float %157, float* %21, align 4
  %158 = load float*, float** %13, align 8
  %159 = load i16, i16* %18, align 2
  %160 = sext i16 %159 to i64
  %161 = getelementptr inbounds float, float* %158, i64 %160
  %162 = load float, float* %161, align 4
  %163 = load float*, float** %14, align 8
  %164 = load i16, i16* %18, align 2
  %165 = sext i16 %164 to i64
  %166 = getelementptr inbounds float, float* %163, i64 %165
  %167 = load float, float* %166, align 4
  %168 = fsub float %162, %167
  store float %168, float* %22, align 4
  %169 = load float*, float** %10, align 8
  %170 = load i16, i16* %17, align 2
  %171 = sext i16 %170 to i64
  %172 = getelementptr inbounds float, float* %169, i64 %171
  %173 = load float, float* %172, align 4
  %174 = load float*, float** %13, align 8
  %175 = load i16, i16* %17, align 2
  %176 = sext i16 %175 to i64
  %177 = getelementptr inbounds float, float* %174, i64 %176
  %178 = load float, float* %177, align 4
  %179 = fsub float %173, %178
  store float %179, float* %23, align 4
  %180 = load float*, float** %10, align 8
  %181 = load i16, i16* %18, align 2
  %182 = sext i16 %181 to i64
  %183 = getelementptr inbounds float, float* %180, i64 %182
  %184 = load float, float* %183, align 4
  %185 = load float*, float** %13, align 8
  %186 = load i16, i16* %18, align 2
  %187 = sext i16 %186 to i64
  %188 = getelementptr inbounds float, float* %185, i64 %187
  %189 = load float, float* %188, align 4
  %190 = fsub float %184, %189
  store float %190, float* %24, align 4
  %191 = load float, float* %20, align 4
  %192 = load float, float* %21, align 4
  %193 = fmul float %191, %192
  %194 = load float, float* %19, align 4
  %195 = load float, float* %22, align 4
  %196 = fmul float %194, %195
  %197 = fsub float %193, %196
  store float %197, float* %27, align 4
  %198 = load float, float* %22, align 4
  %199 = load float, float* %23, align 4
  %200 = fmul float %198, %199
  %201 = load float, float* %21, align 4
  %202 = load float, float* %24, align 4
  %203 = fmul float %201, %202
  %204 = fsub float %200, %203
  store float %204, float* %26, align 4
  br label %205

; <label>:205:                                    ; preds = %113
  br label %206

; <label>:206:                                    ; preds = %205
  %207 = load float, float* %27, align 4
  %208 = fcmp ogt float %207, 0.000000e+00
  %209 = xor i1 %208, true
  br i1 %208, label %210, label %Flow136

; <label>:210:                                    ; preds = %206
  %211 = load float, float* %26, align 4
  %212 = fcmp oge float %211, 0.000000e+00
  %213 = xor i1 %212, true
  br i1 %212, label %216, label %Flow137

Flow136:                                          ; preds = %Flow137, %206
  %214 = phi i1 [ %221, %Flow137 ], [ false, %206 ]
  %215 = phi i1 [ %222, %Flow137 ], [ %209, %206 ]
  br i1 %215, label %223, label %Flow138

; <label>:216:                                    ; preds = %210
  %217 = load float, float* %26, align 4
  %218 = load float, float* %27, align 4
  %219 = fcmp ole float %217, %218
  %220 = xor i1 %219, true
  br label %Flow137

Flow137:                                          ; preds = %216, %210
  %221 = phi i1 [ true, %216 ], [ false, %210 ]
  %222 = phi i1 [ %220, %216 ], [ %213, %210 ]
  br label %Flow136

; <label>:223:                                    ; preds = %Flow136
  %224 = load float, float* %27, align 4
  %225 = fcmp olt float %224, 0.000000e+00
  %226 = xor i1 %225, true
  br i1 %225, label %229, label %Flow139

Flow138:                                          ; preds = %Flow139, %Flow136
  %227 = phi i1 [ %233, %Flow139 ], [ false, %Flow136 ]
  %228 = phi i1 [ %234, %Flow139 ], [ %214, %Flow136 ]
  br i1 %228, label %241, label %Flow141

; <label>:229:                                    ; preds = %223
  %230 = load float, float* %26, align 4
  %231 = fcmp ole float %230, 0.000000e+00
  %232 = xor i1 %231, true
  br i1 %231, label %235, label %Flow140

Flow139:                                          ; preds = %Flow140, %223
  %233 = phi i1 [ %239, %Flow140 ], [ %226, %223 ]
  %234 = phi i1 [ %240, %Flow140 ], [ false, %223 ]
  br label %Flow138

; <label>:235:                                    ; preds = %229
  %236 = load float, float* %26, align 4
  %237 = load float, float* %27, align 4
  %238 = fcmp oge float %236, %237
  br label %Flow140

Flow140:                                          ; preds = %235, %229
  %239 = phi i1 [ true, %235 ], [ %232, %229 ]
  %240 = phi i1 [ %238, %235 ], [ false, %229 ]
  br label %Flow139

; <label>:241:                                    ; preds = %Flow138
  %242 = load float, float* %19, align 4
  %243 = load float, float* %24, align 4
  %244 = fmul float %242, %243
  %245 = load float, float* %20, align 4
  %246 = load float, float* %23, align 4
  %247 = fmul float %245, %246
  %248 = fsub float %244, %247
  store float %248, float* %25, align 4
  br label %251

Flow141:                                          ; preds = %Flow149, %Flow138
  %249 = phi i1 [ %260, %Flow149 ], [ false, %Flow138 ]
  %250 = phi i1 [ %291, %Flow149 ], [ %227, %Flow138 ]
  br i1 %250, label %292, label %Flow150

; <label>:251:                                    ; preds = %241
  br label %252

; <label>:252:                                    ; preds = %251
  %253 = load float, float* %27, align 4
  %254 = fcmp ogt float %253, 0.000000e+00
  %255 = xor i1 %254, true
  br i1 %255, label %271, label %Flow142

Flow145:                                          ; preds = %284, %Flow144
  br label %Flow142

; <label>:256:                                    ; preds = %Flow142
  %257 = load float, float* %25, align 4
  %258 = fcmp oge float %257, 0.000000e+00
  %259 = xor i1 %258, true
  br i1 %258, label %262, label %Flow147

Flow146:                                          ; preds = %Flow148, %Flow142
  %260 = phi i1 [ %288, %Flow148 ], [ false, %Flow142 ]
  %261 = phi i1 [ %289, %Flow148 ], [ %275, %Flow142 ]
  br i1 %261, label %290, label %Flow149

; <label>:262:                                    ; preds = %256
  %263 = load float, float* %25, align 4
  %264 = load float, float* %27, align 4
  %265 = fcmp ole float %263, %264
  %266 = xor i1 %265, true
  br label %Flow147

; <label>:267:                                    ; preds = %Flow150
  store i32 1, i32* %8, align 4
  br label %1927

Flow147:                                          ; preds = %262, %256
  %268 = phi i1 [ true, %262 ], [ false, %256 ]
  %269 = phi i1 [ %266, %262 ], [ %259, %256 ]
  br i1 %269, label %270, label %Flow148

; <label>:270:                                    ; preds = %Flow147
  br label %Flow148

; <label>:271:                                    ; preds = %252
  %272 = load float, float* %25, align 4
  %273 = fcmp ole float %272, 0.000000e+00
  %274 = xor i1 %273, true
  br i1 %273, label %277, label %Flow143

Flow142:                                          ; preds = %Flow145, %252
  %275 = phi i1 [ %282, %Flow145 ], [ false, %252 ]
  %276 = phi i1 [ false, %Flow145 ], [ true, %252 ]
  br i1 %276, label %256, label %Flow146

; <label>:277:                                    ; preds = %271
  %278 = load float, float* %25, align 4
  %279 = load float, float* %27, align 4
  %280 = fcmp oge float %278, %279
  %281 = xor i1 %280, true
  br label %Flow143

Flow144:                                          ; preds = %287, %Flow143
  %282 = phi i1 [ true, %287 ], [ false, %Flow143 ]
  %283 = phi i1 [ false, %287 ], [ %285, %Flow143 ]
  br i1 %283, label %284, label %Flow145

; <label>:284:                                    ; preds = %Flow144
  store i32 1, i32* %8, align 4
  br label %Flow145

Flow143:                                          ; preds = %277, %271
  %285 = phi i1 [ true, %277 ], [ false, %271 ]
  %286 = phi i1 [ %281, %277 ], [ %274, %271 ]
  br i1 %286, label %287, label %Flow144

; <label>:287:                                    ; preds = %Flow143
  br label %Flow144

Flow148:                                          ; preds = %270, %Flow147
  %288 = phi i1 [ false, %270 ], [ %268, %Flow147 ]
  %289 = phi i1 [ true, %270 ], [ %275, %Flow147 ]
  br label %Flow146

; <label>:290:                                    ; preds = %Flow146
  br label %Flow149

Flow149:                                          ; preds = %290, %Flow146
  %291 = phi i1 [ true, %290 ], [ false, %Flow146 ]
  br label %Flow141

; <label>:292:                                    ; preds = %Flow141
  %293 = load float*, float** %14, align 8
  %294 = load i16, i16* %17, align 2
  %295 = sext i16 %294 to i64
  %296 = getelementptr inbounds float, float* %293, i64 %295
  %297 = load float, float* %296, align 4
  %298 = load float*, float** %15, align 8
  %299 = load i16, i16* %17, align 2
  %300 = sext i16 %299 to i64
  %301 = getelementptr inbounds float, float* %298, i64 %300
  %302 = load float, float* %301, align 4
  %303 = fsub float %297, %302
  store float %303, float* %21, align 4
  %304 = load float*, float** %14, align 8
  %305 = load i16, i16* %18, align 2
  %306 = sext i16 %305 to i64
  %307 = getelementptr inbounds float, float* %304, i64 %306
  %308 = load float, float* %307, align 4
  %309 = load float*, float** %15, align 8
  %310 = load i16, i16* %18, align 2
  %311 = sext i16 %310 to i64
  %312 = getelementptr inbounds float, float* %309, i64 %311
  %313 = load float, float* %312, align 4
  %314 = fsub float %308, %313
  store float %314, float* %22, align 4
  %315 = load float*, float** %10, align 8
  %316 = load i16, i16* %17, align 2
  %317 = sext i16 %316 to i64
  %318 = getelementptr inbounds float, float* %315, i64 %317
  %319 = load float, float* %318, align 4
  %320 = load float*, float** %14, align 8
  %321 = load i16, i16* %17, align 2
  %322 = sext i16 %321 to i64
  %323 = getelementptr inbounds float, float* %320, i64 %322
  %324 = load float, float* %323, align 4
  %325 = fsub float %319, %324
  store float %325, float* %23, align 4
  %326 = load float*, float** %10, align 8
  %327 = load i16, i16* %18, align 2
  %328 = sext i16 %327 to i64
  %329 = getelementptr inbounds float, float* %326, i64 %328
  %330 = load float, float* %329, align 4
  %331 = load float*, float** %14, align 8
  %332 = load i16, i16* %18, align 2
  %333 = sext i16 %332 to i64
  %334 = getelementptr inbounds float, float* %331, i64 %333
  %335 = load float, float* %334, align 4
  %336 = fsub float %330, %335
  store float %336, float* %24, align 4
  %337 = load float, float* %20, align 4
  %338 = load float, float* %21, align 4
  %339 = fmul float %337, %338
  %340 = load float, float* %19, align 4
  %341 = load float, float* %22, align 4
  %342 = fmul float %340, %341
  %343 = fsub float %339, %342
  store float %343, float* %27, align 4
  %344 = load float, float* %22, align 4
  %345 = load float, float* %23, align 4
  %346 = fmul float %344, %345
  %347 = load float, float* %21, align 4
  %348 = load float, float* %24, align 4
  %349 = fmul float %347, %348
  %350 = fsub float %346, %349
  store float %350, float* %26, align 4
  br label %351

Flow150:                                          ; preds = %Flow135, %Flow141
  br i1 %249, label %267, label %1927

; <label>:351:                                    ; preds = %292
  br label %352

; <label>:352:                                    ; preds = %351
  %353 = load float, float* %27, align 4
  %354 = fcmp ogt float %353, 0.000000e+00
  %355 = xor i1 %354, true
  br i1 %354, label %356, label %Flow120

; <label>:356:                                    ; preds = %352
  %357 = load float, float* %26, align 4
  %358 = fcmp oge float %357, 0.000000e+00
  %359 = xor i1 %358, true
  br i1 %358, label %362, label %Flow121

Flow120:                                          ; preds = %Flow121, %352
  %360 = phi i1 [ %367, %Flow121 ], [ false, %352 ]
  %361 = phi i1 [ %368, %Flow121 ], [ %355, %352 ]
  br i1 %361, label %369, label %Flow122

; <label>:362:                                    ; preds = %356
  %363 = load float, float* %26, align 4
  %364 = load float, float* %27, align 4
  %365 = fcmp ole float %363, %364
  %366 = xor i1 %365, true
  br label %Flow121

Flow121:                                          ; preds = %362, %356
  %367 = phi i1 [ true, %362 ], [ false, %356 ]
  %368 = phi i1 [ %366, %362 ], [ %359, %356 ]
  br label %Flow120

; <label>:369:                                    ; preds = %Flow120
  %370 = load float, float* %27, align 4
  %371 = fcmp olt float %370, 0.000000e+00
  %372 = xor i1 %371, true
  br i1 %371, label %375, label %Flow123

Flow122:                                          ; preds = %Flow123, %Flow120
  %373 = phi i1 [ %379, %Flow123 ], [ false, %Flow120 ]
  %374 = phi i1 [ %380, %Flow123 ], [ %360, %Flow120 ]
  br i1 %374, label %387, label %Flow125

; <label>:375:                                    ; preds = %369
  %376 = load float, float* %26, align 4
  %377 = fcmp ole float %376, 0.000000e+00
  %378 = xor i1 %377, true
  br i1 %377, label %381, label %Flow124

Flow123:                                          ; preds = %Flow124, %369
  %379 = phi i1 [ %385, %Flow124 ], [ %372, %369 ]
  %380 = phi i1 [ %386, %Flow124 ], [ false, %369 ]
  br label %Flow122

; <label>:381:                                    ; preds = %375
  %382 = load float, float* %26, align 4
  %383 = load float, float* %27, align 4
  %384 = fcmp oge float %382, %383
  br label %Flow124

Flow124:                                          ; preds = %381, %375
  %385 = phi i1 [ true, %381 ], [ %378, %375 ]
  %386 = phi i1 [ %384, %381 ], [ false, %375 ]
  br label %Flow123

; <label>:387:                                    ; preds = %Flow122
  %388 = load float, float* %19, align 4
  %389 = load float, float* %24, align 4
  %390 = fmul float %388, %389
  %391 = load float, float* %20, align 4
  %392 = load float, float* %23, align 4
  %393 = fmul float %391, %392
  %394 = fsub float %390, %393
  store float %394, float* %25, align 4
  br label %397

Flow125:                                          ; preds = %Flow133, %Flow122
  %395 = phi i1 [ %406, %Flow133 ], [ false, %Flow122 ]
  %396 = phi i1 [ %437, %Flow133 ], [ %373, %Flow122 ]
  br i1 %396, label %438, label %Flow134

; <label>:397:                                    ; preds = %387
  br label %398

; <label>:398:                                    ; preds = %397
  %399 = load float, float* %27, align 4
  %400 = fcmp ogt float %399, 0.000000e+00
  %401 = xor i1 %400, true
  br i1 %401, label %417, label %Flow126

Flow129:                                          ; preds = %430, %Flow128
  br label %Flow126

; <label>:402:                                    ; preds = %Flow126
  %403 = load float, float* %25, align 4
  %404 = fcmp oge float %403, 0.000000e+00
  %405 = xor i1 %404, true
  br i1 %404, label %408, label %Flow131

Flow130:                                          ; preds = %Flow132, %Flow126
  %406 = phi i1 [ %434, %Flow132 ], [ false, %Flow126 ]
  %407 = phi i1 [ %435, %Flow132 ], [ %421, %Flow126 ]
  br i1 %407, label %436, label %Flow133

; <label>:408:                                    ; preds = %402
  %409 = load float, float* %25, align 4
  %410 = load float, float* %27, align 4
  %411 = fcmp ole float %409, %410
  %412 = xor i1 %411, true
  br label %Flow131

; <label>:413:                                    ; preds = %Flow134
  store i32 1, i32* %8, align 4
  br label %Flow135

Flow131:                                          ; preds = %408, %402
  %414 = phi i1 [ true, %408 ], [ false, %402 ]
  %415 = phi i1 [ %412, %408 ], [ %405, %402 ]
  br i1 %415, label %416, label %Flow132

; <label>:416:                                    ; preds = %Flow131
  br label %Flow132

; <label>:417:                                    ; preds = %398
  %418 = load float, float* %25, align 4
  %419 = fcmp ole float %418, 0.000000e+00
  %420 = xor i1 %419, true
  br i1 %419, label %423, label %Flow127

Flow126:                                          ; preds = %Flow129, %398
  %421 = phi i1 [ %428, %Flow129 ], [ false, %398 ]
  %422 = phi i1 [ false, %Flow129 ], [ true, %398 ]
  br i1 %422, label %402, label %Flow130

; <label>:423:                                    ; preds = %417
  %424 = load float, float* %25, align 4
  %425 = load float, float* %27, align 4
  %426 = fcmp oge float %424, %425
  %427 = xor i1 %426, true
  br label %Flow127

Flow128:                                          ; preds = %433, %Flow127
  %428 = phi i1 [ true, %433 ], [ false, %Flow127 ]
  %429 = phi i1 [ false, %433 ], [ %431, %Flow127 ]
  br i1 %429, label %430, label %Flow129

; <label>:430:                                    ; preds = %Flow128
  store i32 1, i32* %8, align 4
  br label %Flow129

Flow127:                                          ; preds = %423, %417
  %431 = phi i1 [ true, %423 ], [ false, %417 ]
  %432 = phi i1 [ %427, %423 ], [ %420, %417 ]
  br i1 %432, label %433, label %Flow128

; <label>:433:                                    ; preds = %Flow127
  br label %Flow128

Flow132:                                          ; preds = %416, %Flow131
  %434 = phi i1 [ false, %416 ], [ %414, %Flow131 ]
  %435 = phi i1 [ true, %416 ], [ %421, %Flow131 ]
  br label %Flow130

; <label>:436:                                    ; preds = %Flow130
  br label %Flow133

Flow133:                                          ; preds = %436, %Flow130
  %437 = phi i1 [ true, %436 ], [ false, %Flow130 ]
  br label %Flow125

; <label>:438:                                    ; preds = %Flow125
  %439 = load float*, float** %15, align 8
  %440 = load i16, i16* %17, align 2
  %441 = sext i16 %440 to i64
  %442 = getelementptr inbounds float, float* %439, i64 %441
  %443 = load float, float* %442, align 4
  %444 = load float*, float** %13, align 8
  %445 = load i16, i16* %17, align 2
  %446 = sext i16 %445 to i64
  %447 = getelementptr inbounds float, float* %444, i64 %446
  %448 = load float, float* %447, align 4
  %449 = fsub float %443, %448
  store float %449, float* %21, align 4
  %450 = load float*, float** %15, align 8
  %451 = load i16, i16* %18, align 2
  %452 = sext i16 %451 to i64
  %453 = getelementptr inbounds float, float* %450, i64 %452
  %454 = load float, float* %453, align 4
  %455 = load float*, float** %13, align 8
  %456 = load i16, i16* %18, align 2
  %457 = sext i16 %456 to i64
  %458 = getelementptr inbounds float, float* %455, i64 %457
  %459 = load float, float* %458, align 4
  %460 = fsub float %454, %459
  store float %460, float* %22, align 4
  %461 = load float*, float** %10, align 8
  %462 = load i16, i16* %17, align 2
  %463 = sext i16 %462 to i64
  %464 = getelementptr inbounds float, float* %461, i64 %463
  %465 = load float, float* %464, align 4
  %466 = load float*, float** %15, align 8
  %467 = load i16, i16* %17, align 2
  %468 = sext i16 %467 to i64
  %469 = getelementptr inbounds float, float* %466, i64 %468
  %470 = load float, float* %469, align 4
  %471 = fsub float %465, %470
  store float %471, float* %23, align 4
  %472 = load float*, float** %10, align 8
  %473 = load i16, i16* %18, align 2
  %474 = sext i16 %473 to i64
  %475 = getelementptr inbounds float, float* %472, i64 %474
  %476 = load float, float* %475, align 4
  %477 = load float*, float** %15, align 8
  %478 = load i16, i16* %18, align 2
  %479 = sext i16 %478 to i64
  %480 = getelementptr inbounds float, float* %477, i64 %479
  %481 = load float, float* %480, align 4
  %482 = fsub float %476, %481
  store float %482, float* %24, align 4
  %483 = load float, float* %20, align 4
  %484 = load float, float* %21, align 4
  %485 = fmul float %483, %484
  %486 = load float, float* %19, align 4
  %487 = load float, float* %22, align 4
  %488 = fmul float %486, %487
  %489 = fsub float %485, %488
  store float %489, float* %27, align 4
  %490 = load float, float* %22, align 4
  %491 = load float, float* %23, align 4
  %492 = fmul float %490, %491
  %493 = load float, float* %21, align 4
  %494 = load float, float* %24, align 4
  %495 = fmul float %493, %494
  %496 = fsub float %492, %495
  store float %496, float* %26, align 4
  br label %497

Flow134:                                          ; preds = %Flow119, %Flow125
  br i1 %395, label %413, label %Flow135

; <label>:497:                                    ; preds = %438
  br label %498

; <label>:498:                                    ; preds = %497
  %499 = load float, float* %27, align 4
  %500 = fcmp ogt float %499, 0.000000e+00
  %501 = xor i1 %500, true
  br i1 %500, label %502, label %Flow104

; <label>:502:                                    ; preds = %498
  %503 = load float, float* %26, align 4
  %504 = fcmp oge float %503, 0.000000e+00
  %505 = xor i1 %504, true
  br i1 %504, label %508, label %Flow105

Flow104:                                          ; preds = %Flow105, %498
  %506 = phi i1 [ %513, %Flow105 ], [ false, %498 ]
  %507 = phi i1 [ %514, %Flow105 ], [ %501, %498 ]
  br i1 %507, label %515, label %Flow106

; <label>:508:                                    ; preds = %502
  %509 = load float, float* %26, align 4
  %510 = load float, float* %27, align 4
  %511 = fcmp ole float %509, %510
  %512 = xor i1 %511, true
  br label %Flow105

Flow105:                                          ; preds = %508, %502
  %513 = phi i1 [ true, %508 ], [ false, %502 ]
  %514 = phi i1 [ %512, %508 ], [ %505, %502 ]
  br label %Flow104

; <label>:515:                                    ; preds = %Flow104
  %516 = load float, float* %27, align 4
  %517 = fcmp olt float %516, 0.000000e+00
  %518 = xor i1 %517, true
  br i1 %517, label %521, label %Flow107

Flow106:                                          ; preds = %Flow107, %Flow104
  %519 = phi i1 [ %525, %Flow107 ], [ false, %Flow104 ]
  %520 = phi i1 [ %526, %Flow107 ], [ %506, %Flow104 ]
  br i1 %520, label %533, label %Flow109

; <label>:521:                                    ; preds = %515
  %522 = load float, float* %26, align 4
  %523 = fcmp ole float %522, 0.000000e+00
  %524 = xor i1 %523, true
  br i1 %523, label %527, label %Flow108

Flow107:                                          ; preds = %Flow108, %515
  %525 = phi i1 [ %531, %Flow108 ], [ %518, %515 ]
  %526 = phi i1 [ %532, %Flow108 ], [ false, %515 ]
  br label %Flow106

; <label>:527:                                    ; preds = %521
  %528 = load float, float* %26, align 4
  %529 = load float, float* %27, align 4
  %530 = fcmp oge float %528, %529
  br label %Flow108

Flow108:                                          ; preds = %527, %521
  %531 = phi i1 [ true, %527 ], [ %524, %521 ]
  %532 = phi i1 [ %530, %527 ], [ false, %521 ]
  br label %Flow107

; <label>:533:                                    ; preds = %Flow106
  %534 = load float, float* %19, align 4
  %535 = load float, float* %24, align 4
  %536 = fmul float %534, %535
  %537 = load float, float* %20, align 4
  %538 = load float, float* %23, align 4
  %539 = fmul float %537, %538
  %540 = fsub float %536, %539
  store float %540, float* %25, align 4
  br label %543

Flow109:                                          ; preds = %Flow117, %Flow106
  %541 = phi i1 [ %552, %Flow117 ], [ false, %Flow106 ]
  %542 = phi i1 [ %583, %Flow117 ], [ %519, %Flow106 ]
  br i1 %542, label %584, label %Flow118

; <label>:543:                                    ; preds = %533
  br label %544

; <label>:544:                                    ; preds = %543
  %545 = load float, float* %27, align 4
  %546 = fcmp ogt float %545, 0.000000e+00
  %547 = xor i1 %546, true
  br i1 %547, label %563, label %Flow110

Flow113:                                          ; preds = %576, %Flow112
  br label %Flow110

; <label>:548:                                    ; preds = %Flow110
  %549 = load float, float* %25, align 4
  %550 = fcmp oge float %549, 0.000000e+00
  %551 = xor i1 %550, true
  br i1 %550, label %554, label %Flow115

Flow114:                                          ; preds = %Flow116, %Flow110
  %552 = phi i1 [ %580, %Flow116 ], [ false, %Flow110 ]
  %553 = phi i1 [ %581, %Flow116 ], [ %567, %Flow110 ]
  br i1 %553, label %582, label %Flow117

; <label>:554:                                    ; preds = %548
  %555 = load float, float* %25, align 4
  %556 = load float, float* %27, align 4
  %557 = fcmp ole float %555, %556
  %558 = xor i1 %557, true
  br label %Flow115

; <label>:559:                                    ; preds = %Flow118
  store i32 1, i32* %8, align 4
  br label %Flow119

Flow115:                                          ; preds = %554, %548
  %560 = phi i1 [ true, %554 ], [ false, %548 ]
  %561 = phi i1 [ %558, %554 ], [ %551, %548 ]
  br i1 %561, label %562, label %Flow116

; <label>:562:                                    ; preds = %Flow115
  br label %Flow116

; <label>:563:                                    ; preds = %544
  %564 = load float, float* %25, align 4
  %565 = fcmp ole float %564, 0.000000e+00
  %566 = xor i1 %565, true
  br i1 %565, label %569, label %Flow111

Flow110:                                          ; preds = %Flow113, %544
  %567 = phi i1 [ %574, %Flow113 ], [ false, %544 ]
  %568 = phi i1 [ false, %Flow113 ], [ true, %544 ]
  br i1 %568, label %548, label %Flow114

; <label>:569:                                    ; preds = %563
  %570 = load float, float* %25, align 4
  %571 = load float, float* %27, align 4
  %572 = fcmp oge float %570, %571
  %573 = xor i1 %572, true
  br label %Flow111

Flow112:                                          ; preds = %579, %Flow111
  %574 = phi i1 [ true, %579 ], [ false, %Flow111 ]
  %575 = phi i1 [ false, %579 ], [ %577, %Flow111 ]
  br i1 %575, label %576, label %Flow113

; <label>:576:                                    ; preds = %Flow112
  store i32 1, i32* %8, align 4
  br label %Flow113

Flow111:                                          ; preds = %569, %563
  %577 = phi i1 [ true, %569 ], [ false, %563 ]
  %578 = phi i1 [ %573, %569 ], [ %566, %563 ]
  br i1 %578, label %579, label %Flow112

; <label>:579:                                    ; preds = %Flow111
  br label %Flow112

Flow116:                                          ; preds = %562, %Flow115
  %580 = phi i1 [ false, %562 ], [ %560, %Flow115 ]
  %581 = phi i1 [ true, %562 ], [ %567, %Flow115 ]
  br label %Flow114

; <label>:582:                                    ; preds = %Flow114
  br label %Flow117

Flow117:                                          ; preds = %582, %Flow114
  %583 = phi i1 [ true, %582 ], [ false, %Flow114 ]
  br label %Flow109

; <label>:584:                                    ; preds = %Flow109
  %585 = bitcast float* %28 to i8*
  call void @llvm.var.annotation(i8* %585, i8* getelementptr inbounds ([9 x i8], [9 x i8]* @.str, i32 0, i32 0), i8* getelementptr inbounds ([15 x i8], [15 x i8]* @.str.1, i32 0, i32 0), i32 222)
  %586 = bitcast float* %29 to i8*
  call void @llvm.var.annotation(i8* %586, i8* getelementptr inbounds ([9 x i8], [9 x i8]* @.str, i32 0, i32 0), i8* getelementptr inbounds ([15 x i8], [15 x i8]* @.str.1, i32 0, i32 0), i32 222)
  %587 = bitcast float* %30 to i8*
  call void @llvm.var.annotation(i8* %587, i8* getelementptr inbounds ([9 x i8], [9 x i8]* @.str, i32 0, i32 0), i8* getelementptr inbounds ([15 x i8], [15 x i8]* @.str.1, i32 0, i32 0), i32 222)
  %588 = bitcast float* %31 to i8*
  call void @llvm.var.annotation(i8* %588, i8* getelementptr inbounds ([9 x i8], [9 x i8]* @.str, i32 0, i32 0), i8* getelementptr inbounds ([15 x i8], [15 x i8]* @.str.1, i32 0, i32 0), i32 222)
  %589 = bitcast float* %32 to i8*
  call void @llvm.var.annotation(i8* %589, i8* getelementptr inbounds ([9 x i8], [9 x i8]* @.str, i32 0, i32 0), i8* getelementptr inbounds ([15 x i8], [15 x i8]* @.str.1, i32 0, i32 0), i32 222)
  %590 = bitcast float* %33 to i8*
  call void @llvm.var.annotation(i8* %590, i8* getelementptr inbounds ([9 x i8], [9 x i8]* @.str, i32 0, i32 0), i8* getelementptr inbounds ([15 x i8], [15 x i8]* @.str.1, i32 0, i32 0), i32 222)
  %591 = bitcast float* %34 to i8*
  call void @llvm.var.annotation(i8* %591, i8* getelementptr inbounds ([24 x i8], [24 x i8]* @.str.2, i32 0, i32 0), i8* getelementptr inbounds ([15 x i8], [15 x i8]* @.str.1, i32 0, i32 0), i32 222)
  %592 = bitcast float* %35 to i8*
  call void @llvm.var.annotation(i8* %592, i8* getelementptr inbounds ([24 x i8], [24 x i8]* @.str.2, i32 0, i32 0), i8* getelementptr inbounds ([15 x i8], [15 x i8]* @.str.1, i32 0, i32 0), i32 222)
  %593 = bitcast float* %35 to i8*
  call void @llvm.var.annotation(i8* %593, i8* getelementptr inbounds ([24 x i8], [24 x i8]* @.str.3, i32 0, i32 0), i8* getelementptr inbounds ([15 x i8], [15 x i8]* @.str.1, i32 0, i32 0), i32 222)
  %594 = bitcast float* %36 to i8*
  call void @llvm.var.annotation(i8* %594, i8* getelementptr inbounds ([24 x i8], [24 x i8]* @.str.2, i32 0, i32 0), i8* getelementptr inbounds ([15 x i8], [15 x i8]* @.str.1, i32 0, i32 0), i32 222)
  %595 = bitcast float* %36 to i8*
  call void @llvm.var.annotation(i8* %595, i8* getelementptr inbounds ([24 x i8], [24 x i8]* @.str.4, i32 0, i32 0), i8* getelementptr inbounds ([15 x i8], [15 x i8]* @.str.1, i32 0, i32 0), i32 222)
  %596 = load float*, float** %12, align 8
  %597 = load i16, i16* %17, align 2
  %598 = sext i16 %597 to i64
  %599 = getelementptr inbounds float, float* %596, i64 %598
  %600 = load float, float* %599, align 4
  %601 = load float*, float** %11, align 8
  %602 = load i16, i16* %17, align 2
  %603 = sext i16 %602 to i64
  %604 = getelementptr inbounds float, float* %601, i64 %603
  %605 = load float, float* %604, align 4
  %606 = fsub float %600, %605
  store float %606, float* %28, align 4
  %607 = load float*, float** %12, align 8
  %608 = load i16, i16* %18, align 2
  %609 = sext i16 %608 to i64
  %610 = getelementptr inbounds float, float* %607, i64 %609
  %611 = load float, float* %610, align 4
  %612 = load float*, float** %11, align 8
  %613 = load i16, i16* %18, align 2
  %614 = sext i16 %613 to i64
  %615 = getelementptr inbounds float, float* %612, i64 %614
  %616 = load float, float* %615, align 4
  %617 = fsub float %611, %616
  store float %617, float* %29, align 4
  %618 = load float*, float** %13, align 8
  %619 = load i16, i16* %17, align 2
  %620 = sext i16 %619 to i64
  %621 = getelementptr inbounds float, float* %618, i64 %620
  %622 = load float, float* %621, align 4
  %623 = load float*, float** %14, align 8
  %624 = load i16, i16* %17, align 2
  %625 = sext i16 %624 to i64
  %626 = getelementptr inbounds float, float* %623, i64 %625
  %627 = load float, float* %626, align 4
  %628 = fsub float %622, %627
  store float %628, float* %30, align 4
  %629 = load float*, float** %13, align 8
  %630 = load i16, i16* %18, align 2
  %631 = sext i16 %630 to i64
  %632 = getelementptr inbounds float, float* %629, i64 %631
  %633 = load float, float* %632, align 4
  %634 = load float*, float** %14, align 8
  %635 = load i16, i16* %18, align 2
  %636 = sext i16 %635 to i64
  %637 = getelementptr inbounds float, float* %634, i64 %636
  %638 = load float, float* %637, align 4
  %639 = fsub float %633, %638
  store float %639, float* %31, align 4
  %640 = load float*, float** %11, align 8
  %641 = load i16, i16* %17, align 2
  %642 = sext i16 %641 to i64
  %643 = getelementptr inbounds float, float* %640, i64 %642
  %644 = load float, float* %643, align 4
  %645 = load float*, float** %13, align 8
  %646 = load i16, i16* %17, align 2
  %647 = sext i16 %646 to i64
  %648 = getelementptr inbounds float, float* %645, i64 %647
  %649 = load float, float* %648, align 4
  %650 = fsub float %644, %649
  store float %650, float* %32, align 4
  %651 = load float*, float** %11, align 8
  %652 = load i16, i16* %18, align 2
  %653 = sext i16 %652 to i64
  %654 = getelementptr inbounds float, float* %651, i64 %653
  %655 = load float, float* %654, align 4
  %656 = load float*, float** %13, align 8
  %657 = load i16, i16* %18, align 2
  %658 = sext i16 %657 to i64
  %659 = getelementptr inbounds float, float* %656, i64 %658
  %660 = load float, float* %659, align 4
  %661 = fsub float %655, %660
  store float %661, float* %33, align 4
  %662 = load float, float* %29, align 4
  %663 = load float, float* %30, align 4
  %664 = fmul float %662, %663
  %665 = load float, float* %28, align 4
  %666 = load float, float* %31, align 4
  %667 = fmul float %665, %666
  %668 = fsub float %664, %667
  store float %668, float* %36, align 4
  %669 = load float, float* %31, align 4
  %670 = load float, float* %32, align 4
  %671 = fmul float %669, %670
  %672 = load float, float* %30, align 4
  %673 = load float, float* %33, align 4
  %674 = fmul float %672, %673
  %675 = fsub float %671, %674
  store float %675, float* %35, align 4
  br label %676

Flow118:                                          ; preds = %Flow103, %Flow109
  br i1 %541, label %559, label %Flow119

; <label>:676:                                    ; preds = %584
  br label %677

; <label>:677:                                    ; preds = %676
  %678 = load float, float* %36, align 4
  %679 = fcmp ogt float %678, 0.000000e+00
  %680 = xor i1 %679, true
  br i1 %679, label %681, label %Flow88

; <label>:681:                                    ; preds = %677
  %682 = load float, float* %35, align 4
  %683 = fcmp oge float %682, 0.000000e+00
  %684 = xor i1 %683, true
  br i1 %683, label %687, label %Flow89

Flow88:                                           ; preds = %Flow89, %677
  %685 = phi i1 [ %692, %Flow89 ], [ false, %677 ]
  %686 = phi i1 [ %693, %Flow89 ], [ %680, %677 ]
  br i1 %686, label %694, label %Flow90

; <label>:687:                                    ; preds = %681
  %688 = load float, float* %35, align 4
  %689 = load float, float* %36, align 4
  %690 = fcmp ole float %688, %689
  %691 = xor i1 %690, true
  br label %Flow89

Flow89:                                           ; preds = %687, %681
  %692 = phi i1 [ true, %687 ], [ false, %681 ]
  %693 = phi i1 [ %691, %687 ], [ %684, %681 ]
  br label %Flow88

; <label>:694:                                    ; preds = %Flow88
  %695 = load float, float* %36, align 4
  %696 = fcmp olt float %695, 0.000000e+00
  %697 = xor i1 %696, true
  br i1 %696, label %700, label %Flow91

Flow90:                                           ; preds = %Flow91, %Flow88
  %698 = phi i1 [ %704, %Flow91 ], [ false, %Flow88 ]
  %699 = phi i1 [ %705, %Flow91 ], [ %685, %Flow88 ]
  br i1 %699, label %712, label %Flow93

; <label>:700:                                    ; preds = %694
  %701 = load float, float* %35, align 4
  %702 = fcmp ole float %701, 0.000000e+00
  %703 = xor i1 %702, true
  br i1 %702, label %706, label %Flow92

Flow91:                                           ; preds = %Flow92, %694
  %704 = phi i1 [ %710, %Flow92 ], [ %697, %694 ]
  %705 = phi i1 [ %711, %Flow92 ], [ false, %694 ]
  br label %Flow90

; <label>:706:                                    ; preds = %700
  %707 = load float, float* %35, align 4
  %708 = load float, float* %36, align 4
  %709 = fcmp oge float %707, %708
  br label %Flow92

Flow92:                                           ; preds = %706, %700
  %710 = phi i1 [ true, %706 ], [ %703, %700 ]
  %711 = phi i1 [ %709, %706 ], [ false, %700 ]
  br label %Flow91

; <label>:712:                                    ; preds = %Flow90
  %713 = load float, float* %28, align 4
  %714 = load float, float* %33, align 4
  %715 = fmul float %713, %714
  %716 = load float, float* %29, align 4
  %717 = load float, float* %32, align 4
  %718 = fmul float %716, %717
  %719 = fsub float %715, %718
  store float %719, float* %34, align 4
  br label %722

Flow93:                                           ; preds = %Flow101, %Flow90
  %720 = phi i1 [ %731, %Flow101 ], [ false, %Flow90 ]
  %721 = phi i1 [ %762, %Flow101 ], [ %698, %Flow90 ]
  br i1 %721, label %763, label %Flow102

; <label>:722:                                    ; preds = %712
  br label %723

; <label>:723:                                    ; preds = %722
  %724 = load float, float* %36, align 4
  %725 = fcmp ogt float %724, 0.000000e+00
  %726 = xor i1 %725, true
  br i1 %726, label %742, label %Flow94

Flow97:                                           ; preds = %755, %Flow96
  br label %Flow94

; <label>:727:                                    ; preds = %Flow94
  %728 = load float, float* %34, align 4
  %729 = fcmp oge float %728, 0.000000e+00
  %730 = xor i1 %729, true
  br i1 %729, label %733, label %Flow99

Flow98:                                           ; preds = %Flow100, %Flow94
  %731 = phi i1 [ %759, %Flow100 ], [ false, %Flow94 ]
  %732 = phi i1 [ %760, %Flow100 ], [ %746, %Flow94 ]
  br i1 %732, label %761, label %Flow101

; <label>:733:                                    ; preds = %727
  %734 = load float, float* %34, align 4
  %735 = load float, float* %36, align 4
  %736 = fcmp ole float %734, %735
  %737 = xor i1 %736, true
  br label %Flow99

; <label>:738:                                    ; preds = %Flow102
  store i32 1, i32* %8, align 4
  br label %Flow103

Flow99:                                           ; preds = %733, %727
  %739 = phi i1 [ true, %733 ], [ false, %727 ]
  %740 = phi i1 [ %737, %733 ], [ %730, %727 ]
  br i1 %740, label %741, label %Flow100

; <label>:741:                                    ; preds = %Flow99
  br label %Flow100

; <label>:742:                                    ; preds = %723
  %743 = load float, float* %34, align 4
  %744 = fcmp ole float %743, 0.000000e+00
  %745 = xor i1 %744, true
  br i1 %744, label %748, label %Flow95

Flow94:                                           ; preds = %Flow97, %723
  %746 = phi i1 [ %753, %Flow97 ], [ false, %723 ]
  %747 = phi i1 [ false, %Flow97 ], [ true, %723 ]
  br i1 %747, label %727, label %Flow98

; <label>:748:                                    ; preds = %742
  %749 = load float, float* %34, align 4
  %750 = load float, float* %36, align 4
  %751 = fcmp oge float %749, %750
  %752 = xor i1 %751, true
  br label %Flow95

Flow96:                                           ; preds = %758, %Flow95
  %753 = phi i1 [ true, %758 ], [ false, %Flow95 ]
  %754 = phi i1 [ false, %758 ], [ %756, %Flow95 ]
  br i1 %754, label %755, label %Flow97

; <label>:755:                                    ; preds = %Flow96
  store i32 1, i32* %8, align 4
  br label %Flow97

Flow95:                                           ; preds = %748, %742
  %756 = phi i1 [ true, %748 ], [ false, %742 ]
  %757 = phi i1 [ %752, %748 ], [ %745, %742 ]
  br i1 %757, label %758, label %Flow96

; <label>:758:                                    ; preds = %Flow95
  br label %Flow96

Flow100:                                          ; preds = %741, %Flow99
  %759 = phi i1 [ false, %741 ], [ %739, %Flow99 ]
  %760 = phi i1 [ true, %741 ], [ %746, %Flow99 ]
  br label %Flow98

; <label>:761:                                    ; preds = %Flow98
  br label %Flow101

Flow101:                                          ; preds = %761, %Flow98
  %762 = phi i1 [ true, %761 ], [ false, %Flow98 ]
  br label %Flow93

; <label>:763:                                    ; preds = %Flow93
  %764 = load float*, float** %14, align 8
  %765 = load i16, i16* %17, align 2
  %766 = sext i16 %765 to i64
  %767 = getelementptr inbounds float, float* %764, i64 %766
  %768 = load float, float* %767, align 4
  %769 = load float*, float** %15, align 8
  %770 = load i16, i16* %17, align 2
  %771 = sext i16 %770 to i64
  %772 = getelementptr inbounds float, float* %769, i64 %771
  %773 = load float, float* %772, align 4
  %774 = fsub float %768, %773
  store float %774, float* %30, align 4
  %775 = load float*, float** %14, align 8
  %776 = load i16, i16* %18, align 2
  %777 = sext i16 %776 to i64
  %778 = getelementptr inbounds float, float* %775, i64 %777
  %779 = load float, float* %778, align 4
  %780 = load float*, float** %15, align 8
  %781 = load i16, i16* %18, align 2
  %782 = sext i16 %781 to i64
  %783 = getelementptr inbounds float, float* %780, i64 %782
  %784 = load float, float* %783, align 4
  %785 = fsub float %779, %784
  store float %785, float* %31, align 4
  %786 = load float*, float** %11, align 8
  %787 = load i16, i16* %17, align 2
  %788 = sext i16 %787 to i64
  %789 = getelementptr inbounds float, float* %786, i64 %788
  %790 = load float, float* %789, align 4
  %791 = load float*, float** %14, align 8
  %792 = load i16, i16* %17, align 2
  %793 = sext i16 %792 to i64
  %794 = getelementptr inbounds float, float* %791, i64 %793
  %795 = load float, float* %794, align 4
  %796 = fsub float %790, %795
  store float %796, float* %32, align 4
  %797 = load float*, float** %11, align 8
  %798 = load i16, i16* %18, align 2
  %799 = sext i16 %798 to i64
  %800 = getelementptr inbounds float, float* %797, i64 %799
  %801 = load float, float* %800, align 4
  %802 = load float*, float** %14, align 8
  %803 = load i16, i16* %18, align 2
  %804 = sext i16 %803 to i64
  %805 = getelementptr inbounds float, float* %802, i64 %804
  %806 = load float, float* %805, align 4
  %807 = fsub float %801, %806
  store float %807, float* %33, align 4
  %808 = load float, float* %29, align 4
  %809 = load float, float* %30, align 4
  %810 = fmul float %808, %809
  %811 = load float, float* %28, align 4
  %812 = load float, float* %31, align 4
  %813 = fmul float %811, %812
  %814 = fsub float %810, %813
  store float %814, float* %36, align 4
  %815 = load float, float* %31, align 4
  %816 = load float, float* %32, align 4
  %817 = fmul float %815, %816
  %818 = load float, float* %30, align 4
  %819 = load float, float* %33, align 4
  %820 = fmul float %818, %819
  %821 = fsub float %817, %820
  store float %821, float* %35, align 4
  br label %822

Flow102:                                          ; preds = %Flow87, %Flow93
  br i1 %720, label %738, label %Flow103

; <label>:822:                                    ; preds = %763
  br label %823

; <label>:823:                                    ; preds = %822
  %824 = load float, float* %36, align 4
  %825 = fcmp ogt float %824, 0.000000e+00
  %826 = xor i1 %825, true
  br i1 %825, label %827, label %Flow72

; <label>:827:                                    ; preds = %823
  %828 = load float, float* %35, align 4
  %829 = fcmp oge float %828, 0.000000e+00
  %830 = xor i1 %829, true
  br i1 %829, label %833, label %Flow73

Flow72:                                           ; preds = %Flow73, %823
  %831 = phi i1 [ %838, %Flow73 ], [ false, %823 ]
  %832 = phi i1 [ %839, %Flow73 ], [ %826, %823 ]
  br i1 %832, label %840, label %Flow74

; <label>:833:                                    ; preds = %827
  %834 = load float, float* %35, align 4
  %835 = load float, float* %36, align 4
  %836 = fcmp ole float %834, %835
  %837 = xor i1 %836, true
  br label %Flow73

Flow73:                                           ; preds = %833, %827
  %838 = phi i1 [ true, %833 ], [ false, %827 ]
  %839 = phi i1 [ %837, %833 ], [ %830, %827 ]
  br label %Flow72

; <label>:840:                                    ; preds = %Flow72
  %841 = load float, float* %36, align 4
  %842 = fcmp olt float %841, 0.000000e+00
  %843 = xor i1 %842, true
  br i1 %842, label %846, label %Flow75

Flow74:                                           ; preds = %Flow75, %Flow72
  %844 = phi i1 [ %850, %Flow75 ], [ false, %Flow72 ]
  %845 = phi i1 [ %851, %Flow75 ], [ %831, %Flow72 ]
  br i1 %845, label %858, label %Flow77

; <label>:846:                                    ; preds = %840
  %847 = load float, float* %35, align 4
  %848 = fcmp ole float %847, 0.000000e+00
  %849 = xor i1 %848, true
  br i1 %848, label %852, label %Flow76

Flow75:                                           ; preds = %Flow76, %840
  %850 = phi i1 [ %856, %Flow76 ], [ %843, %840 ]
  %851 = phi i1 [ %857, %Flow76 ], [ false, %840 ]
  br label %Flow74

; <label>:852:                                    ; preds = %846
  %853 = load float, float* %35, align 4
  %854 = load float, float* %36, align 4
  %855 = fcmp oge float %853, %854
  br label %Flow76

Flow76:                                           ; preds = %852, %846
  %856 = phi i1 [ true, %852 ], [ %849, %846 ]
  %857 = phi i1 [ %855, %852 ], [ false, %846 ]
  br label %Flow75

; <label>:858:                                    ; preds = %Flow74
  %859 = load float, float* %28, align 4
  %860 = load float, float* %33, align 4
  %861 = fmul float %859, %860
  %862 = load float, float* %29, align 4
  %863 = load float, float* %32, align 4
  %864 = fmul float %862, %863
  %865 = fsub float %861, %864
  store float %865, float* %34, align 4
  br label %868

Flow77:                                           ; preds = %Flow85, %Flow74
  %866 = phi i1 [ %877, %Flow85 ], [ false, %Flow74 ]
  %867 = phi i1 [ %908, %Flow85 ], [ %844, %Flow74 ]
  br i1 %867, label %909, label %Flow86

; <label>:868:                                    ; preds = %858
  br label %869

; <label>:869:                                    ; preds = %868
  %870 = load float, float* %36, align 4
  %871 = fcmp ogt float %870, 0.000000e+00
  %872 = xor i1 %871, true
  br i1 %872, label %888, label %Flow78

Flow81:                                           ; preds = %901, %Flow80
  br label %Flow78

; <label>:873:                                    ; preds = %Flow78
  %874 = load float, float* %34, align 4
  %875 = fcmp oge float %874, 0.000000e+00
  %876 = xor i1 %875, true
  br i1 %875, label %879, label %Flow83

Flow82:                                           ; preds = %Flow84, %Flow78
  %877 = phi i1 [ %905, %Flow84 ], [ false, %Flow78 ]
  %878 = phi i1 [ %906, %Flow84 ], [ %892, %Flow78 ]
  br i1 %878, label %907, label %Flow85

; <label>:879:                                    ; preds = %873
  %880 = load float, float* %34, align 4
  %881 = load float, float* %36, align 4
  %882 = fcmp ole float %880, %881
  %883 = xor i1 %882, true
  br label %Flow83

; <label>:884:                                    ; preds = %Flow86
  store i32 1, i32* %8, align 4
  br label %Flow87

Flow83:                                           ; preds = %879, %873
  %885 = phi i1 [ true, %879 ], [ false, %873 ]
  %886 = phi i1 [ %883, %879 ], [ %876, %873 ]
  br i1 %886, label %887, label %Flow84

; <label>:887:                                    ; preds = %Flow83
  br label %Flow84

; <label>:888:                                    ; preds = %869
  %889 = load float, float* %34, align 4
  %890 = fcmp ole float %889, 0.000000e+00
  %891 = xor i1 %890, true
  br i1 %890, label %894, label %Flow79

Flow78:                                           ; preds = %Flow81, %869
  %892 = phi i1 [ %899, %Flow81 ], [ false, %869 ]
  %893 = phi i1 [ false, %Flow81 ], [ true, %869 ]
  br i1 %893, label %873, label %Flow82

; <label>:894:                                    ; preds = %888
  %895 = load float, float* %34, align 4
  %896 = load float, float* %36, align 4
  %897 = fcmp oge float %895, %896
  %898 = xor i1 %897, true
  br label %Flow79

Flow80:                                           ; preds = %904, %Flow79
  %899 = phi i1 [ true, %904 ], [ false, %Flow79 ]
  %900 = phi i1 [ false, %904 ], [ %902, %Flow79 ]
  br i1 %900, label %901, label %Flow81

; <label>:901:                                    ; preds = %Flow80
  store i32 1, i32* %8, align 4
  br label %Flow81

Flow79:                                           ; preds = %894, %888
  %902 = phi i1 [ true, %894 ], [ false, %888 ]
  %903 = phi i1 [ %898, %894 ], [ %891, %888 ]
  br i1 %903, label %904, label %Flow80

; <label>:904:                                    ; preds = %Flow79
  br label %Flow80

Flow84:                                           ; preds = %887, %Flow83
  %905 = phi i1 [ false, %887 ], [ %885, %Flow83 ]
  %906 = phi i1 [ true, %887 ], [ %892, %Flow83 ]
  br label %Flow82

; <label>:907:                                    ; preds = %Flow82
  br label %Flow85

Flow85:                                           ; preds = %907, %Flow82
  %908 = phi i1 [ true, %907 ], [ false, %Flow82 ]
  br label %Flow77

; <label>:909:                                    ; preds = %Flow77
  %910 = load float*, float** %15, align 8
  %911 = load i16, i16* %17, align 2
  %912 = sext i16 %911 to i64
  %913 = getelementptr inbounds float, float* %910, i64 %912
  %914 = load float, float* %913, align 4
  %915 = load float*, float** %13, align 8
  %916 = load i16, i16* %17, align 2
  %917 = sext i16 %916 to i64
  %918 = getelementptr inbounds float, float* %915, i64 %917
  %919 = load float, float* %918, align 4
  %920 = fsub float %914, %919
  store float %920, float* %30, align 4
  %921 = load float*, float** %15, align 8
  %922 = load i16, i16* %18, align 2
  %923 = sext i16 %922 to i64
  %924 = getelementptr inbounds float, float* %921, i64 %923
  %925 = load float, float* %924, align 4
  %926 = load float*, float** %13, align 8
  %927 = load i16, i16* %18, align 2
  %928 = sext i16 %927 to i64
  %929 = getelementptr inbounds float, float* %926, i64 %928
  %930 = load float, float* %929, align 4
  %931 = fsub float %925, %930
  store float %931, float* %31, align 4
  %932 = load float*, float** %11, align 8
  %933 = load i16, i16* %17, align 2
  %934 = sext i16 %933 to i64
  %935 = getelementptr inbounds float, float* %932, i64 %934
  %936 = load float, float* %935, align 4
  %937 = load float*, float** %15, align 8
  %938 = load i16, i16* %17, align 2
  %939 = sext i16 %938 to i64
  %940 = getelementptr inbounds float, float* %937, i64 %939
  %941 = load float, float* %940, align 4
  %942 = fsub float %936, %941
  store float %942, float* %32, align 4
  %943 = load float*, float** %11, align 8
  %944 = load i16, i16* %18, align 2
  %945 = sext i16 %944 to i64
  %946 = getelementptr inbounds float, float* %943, i64 %945
  %947 = load float, float* %946, align 4
  %948 = load float*, float** %15, align 8
  %949 = load i16, i16* %18, align 2
  %950 = sext i16 %949 to i64
  %951 = getelementptr inbounds float, float* %948, i64 %950
  %952 = load float, float* %951, align 4
  %953 = fsub float %947, %952
  store float %953, float* %33, align 4
  %954 = load float, float* %29, align 4
  %955 = load float, float* %30, align 4
  %956 = fmul float %954, %955
  %957 = load float, float* %28, align 4
  %958 = load float, float* %31, align 4
  %959 = fmul float %957, %958
  %960 = fsub float %956, %959
  store float %960, float* %36, align 4
  %961 = load float, float* %31, align 4
  %962 = load float, float* %32, align 4
  %963 = fmul float %961, %962
  %964 = load float, float* %30, align 4
  %965 = load float, float* %33, align 4
  %966 = fmul float %964, %965
  %967 = fsub float %963, %966
  store float %967, float* %35, align 4
  br label %968

Flow86:                                           ; preds = %Flow71, %Flow77
  br i1 %866, label %884, label %Flow87

; <label>:968:                                    ; preds = %909
  br label %969

; <label>:969:                                    ; preds = %968
  %970 = load float, float* %36, align 4
  %971 = fcmp ogt float %970, 0.000000e+00
  %972 = xor i1 %971, true
  br i1 %971, label %973, label %Flow56

; <label>:973:                                    ; preds = %969
  %974 = load float, float* %35, align 4
  %975 = fcmp oge float %974, 0.000000e+00
  %976 = xor i1 %975, true
  br i1 %975, label %979, label %Flow57

Flow56:                                           ; preds = %Flow57, %969
  %977 = phi i1 [ %984, %Flow57 ], [ false, %969 ]
  %978 = phi i1 [ %985, %Flow57 ], [ %972, %969 ]
  br i1 %978, label %986, label %Flow58

; <label>:979:                                    ; preds = %973
  %980 = load float, float* %35, align 4
  %981 = load float, float* %36, align 4
  %982 = fcmp ole float %980, %981
  %983 = xor i1 %982, true
  br label %Flow57

Flow57:                                           ; preds = %979, %973
  %984 = phi i1 [ true, %979 ], [ false, %973 ]
  %985 = phi i1 [ %983, %979 ], [ %976, %973 ]
  br label %Flow56

; <label>:986:                                    ; preds = %Flow56
  %987 = load float, float* %36, align 4
  %988 = fcmp olt float %987, 0.000000e+00
  %989 = xor i1 %988, true
  br i1 %988, label %992, label %Flow59

Flow58:                                           ; preds = %Flow59, %Flow56
  %990 = phi i1 [ %996, %Flow59 ], [ false, %Flow56 ]
  %991 = phi i1 [ %997, %Flow59 ], [ %977, %Flow56 ]
  br i1 %991, label %1004, label %Flow61

; <label>:992:                                    ; preds = %986
  %993 = load float, float* %35, align 4
  %994 = fcmp ole float %993, 0.000000e+00
  %995 = xor i1 %994, true
  br i1 %994, label %998, label %Flow60

Flow59:                                           ; preds = %Flow60, %986
  %996 = phi i1 [ %1002, %Flow60 ], [ %989, %986 ]
  %997 = phi i1 [ %1003, %Flow60 ], [ false, %986 ]
  br label %Flow58

; <label>:998:                                    ; preds = %992
  %999 = load float, float* %35, align 4
  %1000 = load float, float* %36, align 4
  %1001 = fcmp oge float %999, %1000
  br label %Flow60

Flow60:                                           ; preds = %998, %992
  %1002 = phi i1 [ true, %998 ], [ %995, %992 ]
  %1003 = phi i1 [ %1001, %998 ], [ false, %992 ]
  br label %Flow59

; <label>:1004:                                   ; preds = %Flow58
  %1005 = load float, float* %28, align 4
  %1006 = load float, float* %33, align 4
  %1007 = fmul float %1005, %1006
  %1008 = load float, float* %29, align 4
  %1009 = load float, float* %32, align 4
  %1010 = fmul float %1008, %1009
  %1011 = fsub float %1007, %1010
  store float %1011, float* %34, align 4
  br label %1014

Flow61:                                           ; preds = %Flow69, %Flow58
  %1012 = phi i1 [ %1023, %Flow69 ], [ false, %Flow58 ]
  %1013 = phi i1 [ %1054, %Flow69 ], [ %990, %Flow58 ]
  br i1 %1013, label %1055, label %Flow70

; <label>:1014:                                   ; preds = %1004
  br label %1015

; <label>:1015:                                   ; preds = %1014
  %1016 = load float, float* %36, align 4
  %1017 = fcmp ogt float %1016, 0.000000e+00
  %1018 = xor i1 %1017, true
  br i1 %1018, label %1034, label %Flow62

Flow65:                                           ; preds = %1047, %Flow64
  br label %Flow62

; <label>:1019:                                   ; preds = %Flow62
  %1020 = load float, float* %34, align 4
  %1021 = fcmp oge float %1020, 0.000000e+00
  %1022 = xor i1 %1021, true
  br i1 %1021, label %1025, label %Flow67

Flow66:                                           ; preds = %Flow68, %Flow62
  %1023 = phi i1 [ %1051, %Flow68 ], [ false, %Flow62 ]
  %1024 = phi i1 [ %1052, %Flow68 ], [ %1038, %Flow62 ]
  br i1 %1024, label %1053, label %Flow69

; <label>:1025:                                   ; preds = %1019
  %1026 = load float, float* %34, align 4
  %1027 = load float, float* %36, align 4
  %1028 = fcmp ole float %1026, %1027
  %1029 = xor i1 %1028, true
  br label %Flow67

; <label>:1030:                                   ; preds = %Flow70
  store i32 1, i32* %8, align 4
  br label %Flow71

Flow67:                                           ; preds = %1025, %1019
  %1031 = phi i1 [ true, %1025 ], [ false, %1019 ]
  %1032 = phi i1 [ %1029, %1025 ], [ %1022, %1019 ]
  br i1 %1032, label %1033, label %Flow68

; <label>:1033:                                   ; preds = %Flow67
  br label %Flow68

; <label>:1034:                                   ; preds = %1015
  %1035 = load float, float* %34, align 4
  %1036 = fcmp ole float %1035, 0.000000e+00
  %1037 = xor i1 %1036, true
  br i1 %1036, label %1040, label %Flow63

Flow62:                                           ; preds = %Flow65, %1015
  %1038 = phi i1 [ %1045, %Flow65 ], [ false, %1015 ]
  %1039 = phi i1 [ false, %Flow65 ], [ true, %1015 ]
  br i1 %1039, label %1019, label %Flow66

; <label>:1040:                                   ; preds = %1034
  %1041 = load float, float* %34, align 4
  %1042 = load float, float* %36, align 4
  %1043 = fcmp oge float %1041, %1042
  %1044 = xor i1 %1043, true
  br label %Flow63

Flow64:                                           ; preds = %1050, %Flow63
  %1045 = phi i1 [ true, %1050 ], [ false, %Flow63 ]
  %1046 = phi i1 [ false, %1050 ], [ %1048, %Flow63 ]
  br i1 %1046, label %1047, label %Flow65

; <label>:1047:                                   ; preds = %Flow64
  store i32 1, i32* %8, align 4
  br label %Flow65

Flow63:                                           ; preds = %1040, %1034
  %1048 = phi i1 [ true, %1040 ], [ false, %1034 ]
  %1049 = phi i1 [ %1044, %1040 ], [ %1037, %1034 ]
  br i1 %1049, label %1050, label %Flow64

; <label>:1050:                                   ; preds = %Flow63
  br label %Flow64

Flow68:                                           ; preds = %1033, %Flow67
  %1051 = phi i1 [ false, %1033 ], [ %1031, %Flow67 ]
  %1052 = phi i1 [ true, %1033 ], [ %1038, %Flow67 ]
  br label %Flow66

; <label>:1053:                                   ; preds = %Flow66
  br label %Flow69

Flow69:                                           ; preds = %1053, %Flow66
  %1054 = phi i1 [ true, %1053 ], [ false, %Flow66 ]
  br label %Flow61

; <label>:1055:                                   ; preds = %Flow61
  %1056 = bitcast float* %37 to i8*
  call void @llvm.var.annotation(i8* %1056, i8* getelementptr inbounds ([9 x i8], [9 x i8]* @.str, i32 0, i32 0), i8* getelementptr inbounds ([15 x i8], [15 x i8]* @.str.1, i32 0, i32 0), i32 223)
  %1057 = bitcast float* %38 to i8*
  call void @llvm.var.annotation(i8* %1057, i8* getelementptr inbounds ([9 x i8], [9 x i8]* @.str, i32 0, i32 0), i8* getelementptr inbounds ([15 x i8], [15 x i8]* @.str.1, i32 0, i32 0), i32 223)
  %1058 = bitcast float* %39 to i8*
  call void @llvm.var.annotation(i8* %1058, i8* getelementptr inbounds ([9 x i8], [9 x i8]* @.str, i32 0, i32 0), i8* getelementptr inbounds ([15 x i8], [15 x i8]* @.str.1, i32 0, i32 0), i32 223)
  %1059 = bitcast float* %40 to i8*
  call void @llvm.var.annotation(i8* %1059, i8* getelementptr inbounds ([9 x i8], [9 x i8]* @.str, i32 0, i32 0), i8* getelementptr inbounds ([15 x i8], [15 x i8]* @.str.1, i32 0, i32 0), i32 223)
  %1060 = bitcast float* %41 to i8*
  call void @llvm.var.annotation(i8* %1060, i8* getelementptr inbounds ([9 x i8], [9 x i8]* @.str, i32 0, i32 0), i8* getelementptr inbounds ([15 x i8], [15 x i8]* @.str.1, i32 0, i32 0), i32 223)
  %1061 = bitcast float* %42 to i8*
  call void @llvm.var.annotation(i8* %1061, i8* getelementptr inbounds ([9 x i8], [9 x i8]* @.str, i32 0, i32 0), i8* getelementptr inbounds ([15 x i8], [15 x i8]* @.str.1, i32 0, i32 0), i32 223)
  %1062 = bitcast float* %43 to i8*
  call void @llvm.var.annotation(i8* %1062, i8* getelementptr inbounds ([24 x i8], [24 x i8]* @.str.2, i32 0, i32 0), i8* getelementptr inbounds ([15 x i8], [15 x i8]* @.str.1, i32 0, i32 0), i32 223)
  %1063 = bitcast float* %44 to i8*
  call void @llvm.var.annotation(i8* %1063, i8* getelementptr inbounds ([24 x i8], [24 x i8]* @.str.2, i32 0, i32 0), i8* getelementptr inbounds ([15 x i8], [15 x i8]* @.str.1, i32 0, i32 0), i32 223)
  %1064 = bitcast float* %44 to i8*
  call void @llvm.var.annotation(i8* %1064, i8* getelementptr inbounds ([24 x i8], [24 x i8]* @.str.3, i32 0, i32 0), i8* getelementptr inbounds ([15 x i8], [15 x i8]* @.str.1, i32 0, i32 0), i32 223)
  %1065 = bitcast float* %45 to i8*
  call void @llvm.var.annotation(i8* %1065, i8* getelementptr inbounds ([24 x i8], [24 x i8]* @.str.2, i32 0, i32 0), i8* getelementptr inbounds ([15 x i8], [15 x i8]* @.str.1, i32 0, i32 0), i32 223)
  %1066 = bitcast float* %45 to i8*
  call void @llvm.var.annotation(i8* %1066, i8* getelementptr inbounds ([24 x i8], [24 x i8]* @.str.4, i32 0, i32 0), i8* getelementptr inbounds ([15 x i8], [15 x i8]* @.str.1, i32 0, i32 0), i32 223)
  %1067 = load float*, float** %10, align 8
  %1068 = load i16, i16* %17, align 2
  %1069 = sext i16 %1068 to i64
  %1070 = getelementptr inbounds float, float* %1067, i64 %1069
  %1071 = load float, float* %1070, align 4
  %1072 = load float*, float** %12, align 8
  %1073 = load i16, i16* %17, align 2
  %1074 = sext i16 %1073 to i64
  %1075 = getelementptr inbounds float, float* %1072, i64 %1074
  %1076 = load float, float* %1075, align 4
  %1077 = fsub float %1071, %1076
  store float %1077, float* %37, align 4
  %1078 = load float*, float** %10, align 8
  %1079 = load i16, i16* %18, align 2
  %1080 = sext i16 %1079 to i64
  %1081 = getelementptr inbounds float, float* %1078, i64 %1080
  %1082 = load float, float* %1081, align 4
  %1083 = load float*, float** %12, align 8
  %1084 = load i16, i16* %18, align 2
  %1085 = sext i16 %1084 to i64
  %1086 = getelementptr inbounds float, float* %1083, i64 %1085
  %1087 = load float, float* %1086, align 4
  %1088 = fsub float %1082, %1087
  store float %1088, float* %38, align 4
  %1089 = load float*, float** %13, align 8
  %1090 = load i16, i16* %17, align 2
  %1091 = sext i16 %1090 to i64
  %1092 = getelementptr inbounds float, float* %1089, i64 %1091
  %1093 = load float, float* %1092, align 4
  %1094 = load float*, float** %14, align 8
  %1095 = load i16, i16* %17, align 2
  %1096 = sext i16 %1095 to i64
  %1097 = getelementptr inbounds float, float* %1094, i64 %1096
  %1098 = load float, float* %1097, align 4
  %1099 = fsub float %1093, %1098
  store float %1099, float* %39, align 4
  %1100 = load float*, float** %13, align 8
  %1101 = load i16, i16* %18, align 2
  %1102 = sext i16 %1101 to i64
  %1103 = getelementptr inbounds float, float* %1100, i64 %1102
  %1104 = load float, float* %1103, align 4
  %1105 = load float*, float** %14, align 8
  %1106 = load i16, i16* %18, align 2
  %1107 = sext i16 %1106 to i64
  %1108 = getelementptr inbounds float, float* %1105, i64 %1107
  %1109 = load float, float* %1108, align 4
  %1110 = fsub float %1104, %1109
  store float %1110, float* %40, align 4
  %1111 = load float*, float** %12, align 8
  %1112 = load i16, i16* %17, align 2
  %1113 = sext i16 %1112 to i64
  %1114 = getelementptr inbounds float, float* %1111, i64 %1113
  %1115 = load float, float* %1114, align 4
  %1116 = load float*, float** %13, align 8
  %1117 = load i16, i16* %17, align 2
  %1118 = sext i16 %1117 to i64
  %1119 = getelementptr inbounds float, float* %1116, i64 %1118
  %1120 = load float, float* %1119, align 4
  %1121 = fsub float %1115, %1120
  store float %1121, float* %41, align 4
  %1122 = load float*, float** %12, align 8
  %1123 = load i16, i16* %18, align 2
  %1124 = sext i16 %1123 to i64
  %1125 = getelementptr inbounds float, float* %1122, i64 %1124
  %1126 = load float, float* %1125, align 4
  %1127 = load float*, float** %13, align 8
  %1128 = load i16, i16* %18, align 2
  %1129 = sext i16 %1128 to i64
  %1130 = getelementptr inbounds float, float* %1127, i64 %1129
  %1131 = load float, float* %1130, align 4
  %1132 = fsub float %1126, %1131
  store float %1132, float* %42, align 4
  %1133 = load float, float* %38, align 4
  %1134 = load float, float* %39, align 4
  %1135 = fmul float %1133, %1134
  %1136 = load float, float* %37, align 4
  %1137 = load float, float* %40, align 4
  %1138 = fmul float %1136, %1137
  %1139 = fsub float %1135, %1138
  store float %1139, float* %45, align 4
  %1140 = load float, float* %40, align 4
  %1141 = load float, float* %41, align 4
  %1142 = fmul float %1140, %1141
  %1143 = load float, float* %39, align 4
  %1144 = load float, float* %42, align 4
  %1145 = fmul float %1143, %1144
  %1146 = fsub float %1142, %1145
  store float %1146, float* %44, align 4
  br label %1147

Flow70:                                           ; preds = %Flow55, %Flow61
  br i1 %1012, label %1030, label %Flow71

; <label>:1147:                                   ; preds = %1055
  br label %1148

; <label>:1148:                                   ; preds = %1147
  %1149 = load float, float* %45, align 4
  %1150 = fcmp ogt float %1149, 0.000000e+00
  %1151 = xor i1 %1150, true
  br i1 %1150, label %1152, label %Flow40

; <label>:1152:                                   ; preds = %1148
  %1153 = load float, float* %44, align 4
  %1154 = fcmp oge float %1153, 0.000000e+00
  %1155 = xor i1 %1154, true
  br i1 %1154, label %1158, label %Flow41

Flow40:                                           ; preds = %Flow41, %1148
  %1156 = phi i1 [ %1163, %Flow41 ], [ false, %1148 ]
  %1157 = phi i1 [ %1164, %Flow41 ], [ %1151, %1148 ]
  br i1 %1157, label %1165, label %Flow42

; <label>:1158:                                   ; preds = %1152
  %1159 = load float, float* %44, align 4
  %1160 = load float, float* %45, align 4
  %1161 = fcmp ole float %1159, %1160
  %1162 = xor i1 %1161, true
  br label %Flow41

Flow41:                                           ; preds = %1158, %1152
  %1163 = phi i1 [ true, %1158 ], [ false, %1152 ]
  %1164 = phi i1 [ %1162, %1158 ], [ %1155, %1152 ]
  br label %Flow40

; <label>:1165:                                   ; preds = %Flow40
  %1166 = load float, float* %45, align 4
  %1167 = fcmp olt float %1166, 0.000000e+00
  %1168 = xor i1 %1167, true
  br i1 %1167, label %1171, label %Flow43

Flow42:                                           ; preds = %Flow43, %Flow40
  %1169 = phi i1 [ %1175, %Flow43 ], [ false, %Flow40 ]
  %1170 = phi i1 [ %1176, %Flow43 ], [ %1156, %Flow40 ]
  br i1 %1170, label %1183, label %Flow45

; <label>:1171:                                   ; preds = %1165
  %1172 = load float, float* %44, align 4
  %1173 = fcmp ole float %1172, 0.000000e+00
  %1174 = xor i1 %1173, true
  br i1 %1173, label %1177, label %Flow44

Flow43:                                           ; preds = %Flow44, %1165
  %1175 = phi i1 [ %1181, %Flow44 ], [ %1168, %1165 ]
  %1176 = phi i1 [ %1182, %Flow44 ], [ false, %1165 ]
  br label %Flow42

; <label>:1177:                                   ; preds = %1171
  %1178 = load float, float* %44, align 4
  %1179 = load float, float* %45, align 4
  %1180 = fcmp oge float %1178, %1179
  br label %Flow44

Flow44:                                           ; preds = %1177, %1171
  %1181 = phi i1 [ true, %1177 ], [ %1174, %1171 ]
  %1182 = phi i1 [ %1180, %1177 ], [ false, %1171 ]
  br label %Flow43

; <label>:1183:                                   ; preds = %Flow42
  %1184 = load float, float* %37, align 4
  %1185 = load float, float* %42, align 4
  %1186 = fmul float %1184, %1185
  %1187 = load float, float* %38, align 4
  %1188 = load float, float* %41, align 4
  %1189 = fmul float %1187, %1188
  %1190 = fsub float %1186, %1189
  store float %1190, float* %43, align 4
  br label %1193

Flow45:                                           ; preds = %Flow53, %Flow42
  %1191 = phi i1 [ %1202, %Flow53 ], [ false, %Flow42 ]
  %1192 = phi i1 [ %1233, %Flow53 ], [ %1169, %Flow42 ]
  br i1 %1192, label %1234, label %Flow54

; <label>:1193:                                   ; preds = %1183
  br label %1194

; <label>:1194:                                   ; preds = %1193
  %1195 = load float, float* %45, align 4
  %1196 = fcmp ogt float %1195, 0.000000e+00
  %1197 = xor i1 %1196, true
  br i1 %1197, label %1213, label %Flow46

Flow49:                                           ; preds = %1226, %Flow48
  br label %Flow46

; <label>:1198:                                   ; preds = %Flow46
  %1199 = load float, float* %43, align 4
  %1200 = fcmp oge float %1199, 0.000000e+00
  %1201 = xor i1 %1200, true
  br i1 %1200, label %1204, label %Flow51

Flow50:                                           ; preds = %Flow52, %Flow46
  %1202 = phi i1 [ %1230, %Flow52 ], [ false, %Flow46 ]
  %1203 = phi i1 [ %1231, %Flow52 ], [ %1217, %Flow46 ]
  br i1 %1203, label %1232, label %Flow53

; <label>:1204:                                   ; preds = %1198
  %1205 = load float, float* %43, align 4
  %1206 = load float, float* %45, align 4
  %1207 = fcmp ole float %1205, %1206
  %1208 = xor i1 %1207, true
  br label %Flow51

; <label>:1209:                                   ; preds = %Flow54
  store i32 1, i32* %8, align 4
  br label %Flow55

Flow51:                                           ; preds = %1204, %1198
  %1210 = phi i1 [ true, %1204 ], [ false, %1198 ]
  %1211 = phi i1 [ %1208, %1204 ], [ %1201, %1198 ]
  br i1 %1211, label %1212, label %Flow52

; <label>:1212:                                   ; preds = %Flow51
  br label %Flow52

; <label>:1213:                                   ; preds = %1194
  %1214 = load float, float* %43, align 4
  %1215 = fcmp ole float %1214, 0.000000e+00
  %1216 = xor i1 %1215, true
  br i1 %1215, label %1219, label %Flow47

Flow46:                                           ; preds = %Flow49, %1194
  %1217 = phi i1 [ %1224, %Flow49 ], [ false, %1194 ]
  %1218 = phi i1 [ false, %Flow49 ], [ true, %1194 ]
  br i1 %1218, label %1198, label %Flow50

; <label>:1219:                                   ; preds = %1213
  %1220 = load float, float* %43, align 4
  %1221 = load float, float* %45, align 4
  %1222 = fcmp oge float %1220, %1221
  %1223 = xor i1 %1222, true
  br label %Flow47

Flow48:                                           ; preds = %1229, %Flow47
  %1224 = phi i1 [ true, %1229 ], [ false, %Flow47 ]
  %1225 = phi i1 [ false, %1229 ], [ %1227, %Flow47 ]
  br i1 %1225, label %1226, label %Flow49

; <label>:1226:                                   ; preds = %Flow48
  store i32 1, i32* %8, align 4
  br label %Flow49

Flow47:                                           ; preds = %1219, %1213
  %1227 = phi i1 [ true, %1219 ], [ false, %1213 ]
  %1228 = phi i1 [ %1223, %1219 ], [ %1216, %1213 ]
  br i1 %1228, label %1229, label %Flow48

; <label>:1229:                                   ; preds = %Flow47
  br label %Flow48

Flow52:                                           ; preds = %1212, %Flow51
  %1230 = phi i1 [ false, %1212 ], [ %1210, %Flow51 ]
  %1231 = phi i1 [ true, %1212 ], [ %1217, %Flow51 ]
  br label %Flow50

; <label>:1232:                                   ; preds = %Flow50
  br label %Flow53

Flow53:                                           ; preds = %1232, %Flow50
  %1233 = phi i1 [ true, %1232 ], [ false, %Flow50 ]
  br label %Flow45

; <label>:1234:                                   ; preds = %Flow45
  %1235 = load float*, float** %14, align 8
  %1236 = load i16, i16* %17, align 2
  %1237 = sext i16 %1236 to i64
  %1238 = getelementptr inbounds float, float* %1235, i64 %1237
  %1239 = load float, float* %1238, align 4
  %1240 = load float*, float** %15, align 8
  %1241 = load i16, i16* %17, align 2
  %1242 = sext i16 %1241 to i64
  %1243 = getelementptr inbounds float, float* %1240, i64 %1242
  %1244 = load float, float* %1243, align 4
  %1245 = fsub float %1239, %1244
  store float %1245, float* %39, align 4
  %1246 = load float*, float** %14, align 8
  %1247 = load i16, i16* %18, align 2
  %1248 = sext i16 %1247 to i64
  %1249 = getelementptr inbounds float, float* %1246, i64 %1248
  %1250 = load float, float* %1249, align 4
  %1251 = load float*, float** %15, align 8
  %1252 = load i16, i16* %18, align 2
  %1253 = sext i16 %1252 to i64
  %1254 = getelementptr inbounds float, float* %1251, i64 %1253
  %1255 = load float, float* %1254, align 4
  %1256 = fsub float %1250, %1255
  store float %1256, float* %40, align 4
  %1257 = load float*, float** %12, align 8
  %1258 = load i16, i16* %17, align 2
  %1259 = sext i16 %1258 to i64
  %1260 = getelementptr inbounds float, float* %1257, i64 %1259
  %1261 = load float, float* %1260, align 4
  %1262 = load float*, float** %14, align 8
  %1263 = load i16, i16* %17, align 2
  %1264 = sext i16 %1263 to i64
  %1265 = getelementptr inbounds float, float* %1262, i64 %1264
  %1266 = load float, float* %1265, align 4
  %1267 = fsub float %1261, %1266
  store float %1267, float* %41, align 4
  %1268 = load float*, float** %12, align 8
  %1269 = load i16, i16* %18, align 2
  %1270 = sext i16 %1269 to i64
  %1271 = getelementptr inbounds float, float* %1268, i64 %1270
  %1272 = load float, float* %1271, align 4
  %1273 = load float*, float** %14, align 8
  %1274 = load i16, i16* %18, align 2
  %1275 = sext i16 %1274 to i64
  %1276 = getelementptr inbounds float, float* %1273, i64 %1275
  %1277 = load float, float* %1276, align 4
  %1278 = fsub float %1272, %1277
  store float %1278, float* %42, align 4
  %1279 = load float, float* %38, align 4
  %1280 = load float, float* %39, align 4
  %1281 = fmul float %1279, %1280
  %1282 = load float, float* %37, align 4
  %1283 = load float, float* %40, align 4
  %1284 = fmul float %1282, %1283
  %1285 = fsub float %1281, %1284
  store float %1285, float* %45, align 4
  %1286 = load float, float* %40, align 4
  %1287 = load float, float* %41, align 4
  %1288 = fmul float %1286, %1287
  %1289 = load float, float* %39, align 4
  %1290 = load float, float* %42, align 4
  %1291 = fmul float %1289, %1290
  %1292 = fsub float %1288, %1291
  store float %1292, float* %44, align 4
  br label %1293

Flow54:                                           ; preds = %Flow39, %Flow45
  br i1 %1191, label %1209, label %Flow55

; <label>:1293:                                   ; preds = %1234
  br label %1294

; <label>:1294:                                   ; preds = %1293
  %1295 = load float, float* %45, align 4
  %1296 = fcmp ogt float %1295, 0.000000e+00
  %1297 = xor i1 %1296, true
  br i1 %1296, label %1298, label %Flow24

; <label>:1298:                                   ; preds = %1294
  %1299 = load float, float* %44, align 4
  %1300 = fcmp oge float %1299, 0.000000e+00
  %1301 = xor i1 %1300, true
  br i1 %1300, label %1304, label %Flow25

Flow24:                                           ; preds = %Flow25, %1294
  %1302 = phi i1 [ %1309, %Flow25 ], [ false, %1294 ]
  %1303 = phi i1 [ %1310, %Flow25 ], [ %1297, %1294 ]
  br i1 %1303, label %1311, label %Flow26

; <label>:1304:                                   ; preds = %1298
  %1305 = load float, float* %44, align 4
  %1306 = load float, float* %45, align 4
  %1307 = fcmp ole float %1305, %1306
  %1308 = xor i1 %1307, true
  br label %Flow25

Flow25:                                           ; preds = %1304, %1298
  %1309 = phi i1 [ true, %1304 ], [ false, %1298 ]
  %1310 = phi i1 [ %1308, %1304 ], [ %1301, %1298 ]
  br label %Flow24

; <label>:1311:                                   ; preds = %Flow24
  %1312 = load float, float* %45, align 4
  %1313 = fcmp olt float %1312, 0.000000e+00
  %1314 = xor i1 %1313, true
  br i1 %1313, label %1317, label %Flow27

Flow26:                                           ; preds = %Flow27, %Flow24
  %1315 = phi i1 [ %1321, %Flow27 ], [ false, %Flow24 ]
  %1316 = phi i1 [ %1322, %Flow27 ], [ %1302, %Flow24 ]
  br i1 %1316, label %1329, label %Flow29

; <label>:1317:                                   ; preds = %1311
  %1318 = load float, float* %44, align 4
  %1319 = fcmp ole float %1318, 0.000000e+00
  %1320 = xor i1 %1319, true
  br i1 %1319, label %1323, label %Flow28

Flow27:                                           ; preds = %Flow28, %1311
  %1321 = phi i1 [ %1327, %Flow28 ], [ %1314, %1311 ]
  %1322 = phi i1 [ %1328, %Flow28 ], [ false, %1311 ]
  br label %Flow26

; <label>:1323:                                   ; preds = %1317
  %1324 = load float, float* %44, align 4
  %1325 = load float, float* %45, align 4
  %1326 = fcmp oge float %1324, %1325
  br label %Flow28

Flow28:                                           ; preds = %1323, %1317
  %1327 = phi i1 [ true, %1323 ], [ %1320, %1317 ]
  %1328 = phi i1 [ %1326, %1323 ], [ false, %1317 ]
  br label %Flow27

; <label>:1329:                                   ; preds = %Flow26
  %1330 = load float, float* %37, align 4
  %1331 = load float, float* %42, align 4
  %1332 = fmul float %1330, %1331
  %1333 = load float, float* %38, align 4
  %1334 = load float, float* %41, align 4
  %1335 = fmul float %1333, %1334
  %1336 = fsub float %1332, %1335
  store float %1336, float* %43, align 4
  br label %1339

Flow29:                                           ; preds = %Flow37, %Flow26
  %1337 = phi i1 [ %1348, %Flow37 ], [ false, %Flow26 ]
  %1338 = phi i1 [ %1379, %Flow37 ], [ %1315, %Flow26 ]
  br i1 %1338, label %1380, label %Flow38

; <label>:1339:                                   ; preds = %1329
  br label %1340

; <label>:1340:                                   ; preds = %1339
  %1341 = load float, float* %45, align 4
  %1342 = fcmp ogt float %1341, 0.000000e+00
  %1343 = xor i1 %1342, true
  br i1 %1343, label %1359, label %Flow30

Flow33:                                           ; preds = %1372, %Flow32
  br label %Flow30

; <label>:1344:                                   ; preds = %Flow30
  %1345 = load float, float* %43, align 4
  %1346 = fcmp oge float %1345, 0.000000e+00
  %1347 = xor i1 %1346, true
  br i1 %1346, label %1350, label %Flow35

Flow34:                                           ; preds = %Flow36, %Flow30
  %1348 = phi i1 [ %1376, %Flow36 ], [ false, %Flow30 ]
  %1349 = phi i1 [ %1377, %Flow36 ], [ %1363, %Flow30 ]
  br i1 %1349, label %1378, label %Flow37

; <label>:1350:                                   ; preds = %1344
  %1351 = load float, float* %43, align 4
  %1352 = load float, float* %45, align 4
  %1353 = fcmp ole float %1351, %1352
  %1354 = xor i1 %1353, true
  br label %Flow35

; <label>:1355:                                   ; preds = %Flow38
  store i32 1, i32* %8, align 4
  br label %Flow39

Flow35:                                           ; preds = %1350, %1344
  %1356 = phi i1 [ true, %1350 ], [ false, %1344 ]
  %1357 = phi i1 [ %1354, %1350 ], [ %1347, %1344 ]
  br i1 %1357, label %1358, label %Flow36

; <label>:1358:                                   ; preds = %Flow35
  br label %Flow36

; <label>:1359:                                   ; preds = %1340
  %1360 = load float, float* %43, align 4
  %1361 = fcmp ole float %1360, 0.000000e+00
  %1362 = xor i1 %1361, true
  br i1 %1361, label %1365, label %Flow31

Flow30:                                           ; preds = %Flow33, %1340
  %1363 = phi i1 [ %1370, %Flow33 ], [ false, %1340 ]
  %1364 = phi i1 [ false, %Flow33 ], [ true, %1340 ]
  br i1 %1364, label %1344, label %Flow34

; <label>:1365:                                   ; preds = %1359
  %1366 = load float, float* %43, align 4
  %1367 = load float, float* %45, align 4
  %1368 = fcmp oge float %1366, %1367
  %1369 = xor i1 %1368, true
  br label %Flow31

Flow32:                                           ; preds = %1375, %Flow31
  %1370 = phi i1 [ true, %1375 ], [ false, %Flow31 ]
  %1371 = phi i1 [ false, %1375 ], [ %1373, %Flow31 ]
  br i1 %1371, label %1372, label %Flow33

; <label>:1372:                                   ; preds = %Flow32
  store i32 1, i32* %8, align 4
  br label %Flow33

Flow31:                                           ; preds = %1365, %1359
  %1373 = phi i1 [ true, %1365 ], [ false, %1359 ]
  %1374 = phi i1 [ %1369, %1365 ], [ %1362, %1359 ]
  br i1 %1374, label %1375, label %Flow32

; <label>:1375:                                   ; preds = %Flow31
  br label %Flow32

Flow36:                                           ; preds = %1358, %Flow35
  %1376 = phi i1 [ false, %1358 ], [ %1356, %Flow35 ]
  %1377 = phi i1 [ true, %1358 ], [ %1363, %Flow35 ]
  br label %Flow34

; <label>:1378:                                   ; preds = %Flow34
  br label %Flow37

Flow37:                                           ; preds = %1378, %Flow34
  %1379 = phi i1 [ true, %1378 ], [ false, %Flow34 ]
  br label %Flow29

; <label>:1380:                                   ; preds = %Flow29
  %1381 = load float*, float** %15, align 8
  %1382 = load i16, i16* %17, align 2
  %1383 = sext i16 %1382 to i64
  %1384 = getelementptr inbounds float, float* %1381, i64 %1383
  %1385 = load float, float* %1384, align 4
  %1386 = load float*, float** %13, align 8
  %1387 = load i16, i16* %17, align 2
  %1388 = sext i16 %1387 to i64
  %1389 = getelementptr inbounds float, float* %1386, i64 %1388
  %1390 = load float, float* %1389, align 4
  %1391 = fsub float %1385, %1390
  store float %1391, float* %39, align 4
  %1392 = load float*, float** %15, align 8
  %1393 = load i16, i16* %18, align 2
  %1394 = sext i16 %1393 to i64
  %1395 = getelementptr inbounds float, float* %1392, i64 %1394
  %1396 = load float, float* %1395, align 4
  %1397 = load float*, float** %13, align 8
  %1398 = load i16, i16* %18, align 2
  %1399 = sext i16 %1398 to i64
  %1400 = getelementptr inbounds float, float* %1397, i64 %1399
  %1401 = load float, float* %1400, align 4
  %1402 = fsub float %1396, %1401
  store float %1402, float* %40, align 4
  %1403 = load float*, float** %12, align 8
  %1404 = load i16, i16* %17, align 2
  %1405 = sext i16 %1404 to i64
  %1406 = getelementptr inbounds float, float* %1403, i64 %1405
  %1407 = load float, float* %1406, align 4
  %1408 = load float*, float** %15, align 8
  %1409 = load i16, i16* %17, align 2
  %1410 = sext i16 %1409 to i64
  %1411 = getelementptr inbounds float, float* %1408, i64 %1410
  %1412 = load float, float* %1411, align 4
  %1413 = fsub float %1407, %1412
  store float %1413, float* %41, align 4
  %1414 = load float*, float** %12, align 8
  %1415 = load i16, i16* %18, align 2
  %1416 = sext i16 %1415 to i64
  %1417 = getelementptr inbounds float, float* %1414, i64 %1416
  %1418 = load float, float* %1417, align 4
  %1419 = load float*, float** %15, align 8
  %1420 = load i16, i16* %18, align 2
  %1421 = sext i16 %1420 to i64
  %1422 = getelementptr inbounds float, float* %1419, i64 %1421
  %1423 = load float, float* %1422, align 4
  %1424 = fsub float %1418, %1423
  store float %1424, float* %42, align 4
  %1425 = load float, float* %38, align 4
  %1426 = load float, float* %39, align 4
  %1427 = fmul float %1425, %1426
  %1428 = load float, float* %37, align 4
  %1429 = load float, float* %40, align 4
  %1430 = fmul float %1428, %1429
  %1431 = fsub float %1427, %1430
  store float %1431, float* %45, align 4
  %1432 = load float, float* %40, align 4
  %1433 = load float, float* %41, align 4
  %1434 = fmul float %1432, %1433
  %1435 = load float, float* %39, align 4
  %1436 = load float, float* %42, align 4
  %1437 = fmul float %1435, %1436
  %1438 = fsub float %1434, %1437
  store float %1438, float* %44, align 4
  br label %1439

Flow38:                                           ; preds = %Flow23, %Flow29
  br i1 %1337, label %1355, label %Flow39

; <label>:1439:                                   ; preds = %1380
  br label %1440

; <label>:1440:                                   ; preds = %1439
  %1441 = load float, float* %45, align 4
  %1442 = fcmp ogt float %1441, 0.000000e+00
  %1443 = xor i1 %1442, true
  br i1 %1442, label %1444, label %Flow8

; <label>:1444:                                   ; preds = %1440
  %1445 = load float, float* %44, align 4
  %1446 = fcmp oge float %1445, 0.000000e+00
  %1447 = xor i1 %1446, true
  br i1 %1446, label %1450, label %Flow9

Flow8:                                            ; preds = %Flow9, %1440
  %1448 = phi i1 [ %1455, %Flow9 ], [ false, %1440 ]
  %1449 = phi i1 [ %1456, %Flow9 ], [ %1443, %1440 ]
  br i1 %1449, label %1457, label %Flow10

; <label>:1450:                                   ; preds = %1444
  %1451 = load float, float* %44, align 4
  %1452 = load float, float* %45, align 4
  %1453 = fcmp ole float %1451, %1452
  %1454 = xor i1 %1453, true
  br label %Flow9

Flow9:                                            ; preds = %1450, %1444
  %1455 = phi i1 [ true, %1450 ], [ false, %1444 ]
  %1456 = phi i1 [ %1454, %1450 ], [ %1447, %1444 ]
  br label %Flow8

; <label>:1457:                                   ; preds = %Flow8
  %1458 = load float, float* %45, align 4
  %1459 = fcmp olt float %1458, 0.000000e+00
  %1460 = xor i1 %1459, true
  br i1 %1459, label %1463, label %Flow11

Flow10:                                           ; preds = %Flow11, %Flow8
  %1461 = phi i1 [ %1467, %Flow11 ], [ false, %Flow8 ]
  %1462 = phi i1 [ %1468, %Flow11 ], [ %1448, %Flow8 ]
  br i1 %1462, label %1475, label %Flow13

; <label>:1463:                                   ; preds = %1457
  %1464 = load float, float* %44, align 4
  %1465 = fcmp ole float %1464, 0.000000e+00
  %1466 = xor i1 %1465, true
  br i1 %1465, label %1469, label %Flow12

Flow11:                                           ; preds = %Flow12, %1457
  %1467 = phi i1 [ %1473, %Flow12 ], [ %1460, %1457 ]
  %1468 = phi i1 [ %1474, %Flow12 ], [ false, %1457 ]
  br label %Flow10

; <label>:1469:                                   ; preds = %1463
  %1470 = load float, float* %44, align 4
  %1471 = load float, float* %45, align 4
  %1472 = fcmp oge float %1470, %1471
  br label %Flow12

Flow12:                                           ; preds = %1469, %1463
  %1473 = phi i1 [ true, %1469 ], [ %1466, %1463 ]
  %1474 = phi i1 [ %1472, %1469 ], [ false, %1463 ]
  br label %Flow11

; <label>:1475:                                   ; preds = %Flow10
  %1476 = load float, float* %37, align 4
  %1477 = load float, float* %42, align 4
  %1478 = fmul float %1476, %1477
  %1479 = load float, float* %38, align 4
  %1480 = load float, float* %41, align 4
  %1481 = fmul float %1479, %1480
  %1482 = fsub float %1478, %1481
  store float %1482, float* %43, align 4
  br label %1485

Flow13:                                           ; preds = %Flow21, %Flow10
  %1483 = phi i1 [ %1494, %Flow21 ], [ false, %Flow10 ]
  %1484 = phi i1 [ %1525, %Flow21 ], [ %1461, %Flow10 ]
  br i1 %1484, label %1526, label %Flow22

; <label>:1485:                                   ; preds = %1475
  br label %1486

; <label>:1486:                                   ; preds = %1485
  %1487 = load float, float* %45, align 4
  %1488 = fcmp ogt float %1487, 0.000000e+00
  %1489 = xor i1 %1488, true
  br i1 %1489, label %1505, label %Flow14

Flow17:                                           ; preds = %1518, %Flow16
  br label %Flow14

; <label>:1490:                                   ; preds = %Flow14
  %1491 = load float, float* %43, align 4
  %1492 = fcmp oge float %1491, 0.000000e+00
  %1493 = xor i1 %1492, true
  br i1 %1492, label %1496, label %Flow19

Flow18:                                           ; preds = %Flow20, %Flow14
  %1494 = phi i1 [ %1522, %Flow20 ], [ false, %Flow14 ]
  %1495 = phi i1 [ %1523, %Flow20 ], [ %1509, %Flow14 ]
  br i1 %1495, label %1524, label %Flow21

; <label>:1496:                                   ; preds = %1490
  %1497 = load float, float* %43, align 4
  %1498 = load float, float* %45, align 4
  %1499 = fcmp ole float %1497, %1498
  %1500 = xor i1 %1499, true
  br label %Flow19

; <label>:1501:                                   ; preds = %Flow22
  store i32 1, i32* %8, align 4
  br label %Flow23

Flow19:                                           ; preds = %1496, %1490
  %1502 = phi i1 [ true, %1496 ], [ false, %1490 ]
  %1503 = phi i1 [ %1500, %1496 ], [ %1493, %1490 ]
  br i1 %1503, label %1504, label %Flow20

; <label>:1504:                                   ; preds = %Flow19
  br label %Flow20

; <label>:1505:                                   ; preds = %1486
  %1506 = load float, float* %43, align 4
  %1507 = fcmp ole float %1506, 0.000000e+00
  %1508 = xor i1 %1507, true
  br i1 %1507, label %1511, label %Flow15

Flow14:                                           ; preds = %Flow17, %1486
  %1509 = phi i1 [ %1516, %Flow17 ], [ false, %1486 ]
  %1510 = phi i1 [ false, %Flow17 ], [ true, %1486 ]
  br i1 %1510, label %1490, label %Flow18

; <label>:1511:                                   ; preds = %1505
  %1512 = load float, float* %43, align 4
  %1513 = load float, float* %45, align 4
  %1514 = fcmp oge float %1512, %1513
  %1515 = xor i1 %1514, true
  br label %Flow15

Flow16:                                           ; preds = %1521, %Flow15
  %1516 = phi i1 [ true, %1521 ], [ false, %Flow15 ]
  %1517 = phi i1 [ false, %1521 ], [ %1519, %Flow15 ]
  br i1 %1517, label %1518, label %Flow17

; <label>:1518:                                   ; preds = %Flow16
  store i32 1, i32* %8, align 4
  br label %Flow17

Flow15:                                           ; preds = %1511, %1505
  %1519 = phi i1 [ true, %1511 ], [ false, %1505 ]
  %1520 = phi i1 [ %1515, %1511 ], [ %1508, %1505 ]
  br i1 %1520, label %1521, label %Flow16

; <label>:1521:                                   ; preds = %Flow15
  br label %Flow16

Flow20:                                           ; preds = %1504, %Flow19
  %1522 = phi i1 [ false, %1504 ], [ %1502, %Flow19 ]
  %1523 = phi i1 [ true, %1504 ], [ %1509, %Flow19 ]
  br label %Flow18

; <label>:1524:                                   ; preds = %Flow18
  br label %Flow21

Flow21:                                           ; preds = %1524, %Flow18
  %1525 = phi i1 [ true, %1524 ], [ false, %Flow18 ]
  br label %Flow13

; <label>:1526:                                   ; preds = %Flow13
  %1527 = bitcast float* %46 to i8*
  call void @llvm.var.annotation(i8* %1527, i8* getelementptr inbounds ([9 x i8], [9 x i8]* @.str, i32 0, i32 0), i8* getelementptr inbounds ([15 x i8], [15 x i8]* @.str.1, i32 0, i32 0), i32 226)
  %1528 = bitcast float* %47 to i8*
  call void @llvm.var.annotation(i8* %1528, i8* getelementptr inbounds ([9 x i8], [9 x i8]* @.str, i32 0, i32 0), i8* getelementptr inbounds ([15 x i8], [15 x i8]* @.str.1, i32 0, i32 0), i32 226)
  %1529 = bitcast float* %48 to i8*
  call void @llvm.var.annotation(i8* %1529, i8* getelementptr inbounds ([9 x i8], [9 x i8]* @.str, i32 0, i32 0), i8* getelementptr inbounds ([15 x i8], [15 x i8]* @.str.1, i32 0, i32 0), i32 226)
  %1530 = bitcast float* %49 to i8*
  call void @llvm.var.annotation(i8* %1530, i8* getelementptr inbounds ([9 x i8], [9 x i8]* @.str, i32 0, i32 0), i8* getelementptr inbounds ([15 x i8], [15 x i8]* @.str.1, i32 0, i32 0), i32 226)
  %1531 = bitcast float* %50 to i8*
  call void @llvm.var.annotation(i8* %1531, i8* getelementptr inbounds ([9 x i8], [9 x i8]* @.str, i32 0, i32 0), i8* getelementptr inbounds ([15 x i8], [15 x i8]* @.str.1, i32 0, i32 0), i32 226)
  %1532 = bitcast float* %51 to i8*
  call void @llvm.var.annotation(i8* %1532, i8* getelementptr inbounds ([9 x i8], [9 x i8]* @.str, i32 0, i32 0), i8* getelementptr inbounds ([15 x i8], [15 x i8]* @.str.1, i32 0, i32 0), i32 226)
  %1533 = load float*, float** %14, align 8
  %1534 = load i16, i16* %18, align 2
  %1535 = sext i16 %1534 to i64
  %1536 = getelementptr inbounds float, float* %1533, i64 %1535
  %1537 = load float, float* %1536, align 4
  %1538 = load float*, float** %13, align 8
  %1539 = load i16, i16* %18, align 2
  %1540 = sext i16 %1539 to i64
  %1541 = getelementptr inbounds float, float* %1538, i64 %1540
  %1542 = load float, float* %1541, align 4
  %1543 = fsub float %1537, %1542
  store float %1543, float* %46, align 4
  %1544 = load float*, float** %14, align 8
  %1545 = load i16, i16* %17, align 2
  %1546 = sext i16 %1545 to i64
  %1547 = getelementptr inbounds float, float* %1544, i64 %1546
  %1548 = load float, float* %1547, align 4
  %1549 = load float*, float** %13, align 8
  %1550 = load i16, i16* %17, align 2
  %1551 = sext i16 %1550 to i64
  %1552 = getelementptr inbounds float, float* %1549, i64 %1551
  %1553 = load float, float* %1552, align 4
  %1554 = fsub float %1548, %1553
  %1555 = fsub float -0.000000e+00, %1554
  store float %1555, float* %47, align 4
  %1556 = load float, float* %46, align 4
  %1557 = fsub float -0.000000e+00, %1556
  %1558 = load float*, float** %13, align 8
  %1559 = load i16, i16* %17, align 2
  %1560 = sext i16 %1559 to i64
  %1561 = getelementptr inbounds float, float* %1558, i64 %1560
  %1562 = load float, float* %1561, align 4
  %1563 = fmul float %1557, %1562
  %1564 = load float, float* %47, align 4
  %1565 = load float*, float** %13, align 8
  %1566 = load i16, i16* %18, align 2
  %1567 = sext i16 %1566 to i64
  %1568 = getelementptr inbounds float, float* %1565, i64 %1567
  %1569 = load float, float* %1568, align 4
  %1570 = fmul float %1564, %1569
  %1571 = fsub float %1563, %1570
  store float %1571, float* %48, align 4
  %1572 = load float, float* %46, align 4
  %1573 = load float*, float** %10, align 8
  %1574 = load i16, i16* %17, align 2
  %1575 = sext i16 %1574 to i64
  %1576 = getelementptr inbounds float, float* %1573, i64 %1575
  %1577 = load float, float* %1576, align 4
  %1578 = fmul float %1572, %1577
  %1579 = load float, float* %47, align 4
  %1580 = load float*, float** %10, align 8
  %1581 = load i16, i16* %18, align 2
  %1582 = sext i16 %1581 to i64
  %1583 = getelementptr inbounds float, float* %1580, i64 %1582
  %1584 = load float, float* %1583, align 4
  %1585 = fmul float %1579, %1584
  %1586 = fadd float %1578, %1585
  %1587 = load float, float* %48, align 4
  %1588 = fadd float %1586, %1587
  store float %1588, float* %49, align 4
  %1589 = load float*, float** %15, align 8
  %1590 = load i16, i16* %18, align 2
  %1591 = sext i16 %1590 to i64
  %1592 = getelementptr inbounds float, float* %1589, i64 %1591
  %1593 = load float, float* %1592, align 4
  %1594 = load float*, float** %14, align 8
  %1595 = load i16, i16* %18, align 2
  %1596 = sext i16 %1595 to i64
  %1597 = getelementptr inbounds float, float* %1594, i64 %1596
  %1598 = load float, float* %1597, align 4
  %1599 = fsub float %1593, %1598
  store float %1599, float* %46, align 4
  %1600 = load float*, float** %15, align 8
  %1601 = load i16, i16* %17, align 2
  %1602 = sext i16 %1601 to i64
  %1603 = getelementptr inbounds float, float* %1600, i64 %1602
  %1604 = load float, float* %1603, align 4
  %1605 = load float*, float** %14, align 8
  %1606 = load i16, i16* %17, align 2
  %1607 = sext i16 %1606 to i64
  %1608 = getelementptr inbounds float, float* %1605, i64 %1607
  %1609 = load float, float* %1608, align 4
  %1610 = fsub float %1604, %1609
  %1611 = fsub float -0.000000e+00, %1610
  store float %1611, float* %47, align 4
  %1612 = load float, float* %46, align 4
  %1613 = fsub float -0.000000e+00, %1612
  %1614 = load float*, float** %14, align 8
  %1615 = load i16, i16* %17, align 2
  %1616 = sext i16 %1615 to i64
  %1617 = getelementptr inbounds float, float* %1614, i64 %1616
  %1618 = load float, float* %1617, align 4
  %1619 = fmul float %1613, %1618
  %1620 = load float, float* %47, align 4
  %1621 = load float*, float** %14, align 8
  %1622 = load i16, i16* %18, align 2
  %1623 = sext i16 %1622 to i64
  %1624 = getelementptr inbounds float, float* %1621, i64 %1623
  %1625 = load float, float* %1624, align 4
  %1626 = fmul float %1620, %1625
  %1627 = fsub float %1619, %1626
  store float %1627, float* %48, align 4
  %1628 = load float, float* %46, align 4
  %1629 = load float*, float** %10, align 8
  %1630 = load i16, i16* %17, align 2
  %1631 = sext i16 %1630 to i64
  %1632 = getelementptr inbounds float, float* %1629, i64 %1631
  %1633 = load float, float* %1632, align 4
  %1634 = fmul float %1628, %1633
  %1635 = load float, float* %47, align 4
  %1636 = load float*, float** %10, align 8
  %1637 = load i16, i16* %18, align 2
  %1638 = sext i16 %1637 to i64
  %1639 = getelementptr inbounds float, float* %1636, i64 %1638
  %1640 = load float, float* %1639, align 4
  %1641 = fmul float %1635, %1640
  %1642 = fadd float %1634, %1641
  %1643 = load float, float* %48, align 4
  %1644 = fadd float %1642, %1643
  store float %1644, float* %50, align 4
  %1645 = load float*, float** %13, align 8
  %1646 = load i16, i16* %18, align 2
  %1647 = sext i16 %1646 to i64
  %1648 = getelementptr inbounds float, float* %1645, i64 %1647
  %1649 = load float, float* %1648, align 4
  %1650 = load float*, float** %15, align 8
  %1651 = load i16, i16* %18, align 2
  %1652 = sext i16 %1651 to i64
  %1653 = getelementptr inbounds float, float* %1650, i64 %1652
  %1654 = load float, float* %1653, align 4
  %1655 = fsub float %1649, %1654
  store float %1655, float* %46, align 4
  %1656 = load float*, float** %13, align 8
  %1657 = load i16, i16* %17, align 2
  %1658 = sext i16 %1657 to i64
  %1659 = getelementptr inbounds float, float* %1656, i64 %1658
  %1660 = load float, float* %1659, align 4
  %1661 = load float*, float** %15, align 8
  %1662 = load i16, i16* %17, align 2
  %1663 = sext i16 %1662 to i64
  %1664 = getelementptr inbounds float, float* %1661, i64 %1663
  %1665 = load float, float* %1664, align 4
  %1666 = fsub float %1660, %1665
  %1667 = fsub float -0.000000e+00, %1666
  store float %1667, float* %47, align 4
  %1668 = load float, float* %46, align 4
  %1669 = fsub float -0.000000e+00, %1668
  %1670 = load float*, float** %15, align 8
  %1671 = load i16, i16* %17, align 2
  %1672 = sext i16 %1671 to i64
  %1673 = getelementptr inbounds float, float* %1670, i64 %1672
  %1674 = load float, float* %1673, align 4
  %1675 = fmul float %1669, %1674
  %1676 = load float, float* %47, align 4
  %1677 = load float*, float** %15, align 8
  %1678 = load i16, i16* %18, align 2
  %1679 = sext i16 %1678 to i64
  %1680 = getelementptr inbounds float, float* %1677, i64 %1679
  %1681 = load float, float* %1680, align 4
  %1682 = fmul float %1676, %1681
  %1683 = fsub float %1675, %1682
  store float %1683, float* %48, align 4
  %1684 = load float, float* %46, align 4
  %1685 = load float*, float** %10, align 8
  %1686 = load i16, i16* %17, align 2
  %1687 = sext i16 %1686 to i64
  %1688 = getelementptr inbounds float, float* %1685, i64 %1687
  %1689 = load float, float* %1688, align 4
  %1690 = fmul float %1684, %1689
  %1691 = load float, float* %47, align 4
  %1692 = load float*, float** %10, align 8
  %1693 = load i16, i16* %18, align 2
  %1694 = sext i16 %1693 to i64
  %1695 = getelementptr inbounds float, float* %1692, i64 %1694
  %1696 = load float, float* %1695, align 4
  %1697 = fmul float %1691, %1696
  %1698 = fadd float %1690, %1697
  %1699 = load float, float* %48, align 4
  %1700 = fadd float %1698, %1699
  store float %1700, float* %51, align 4
  %1701 = bitcast float* %52 to i8*
  call void @llvm.var.annotation(i8* %1701, i8* getelementptr inbounds ([28 x i8], [28 x i8]* @.str.5, i32 0, i32 0), i8* getelementptr inbounds ([15 x i8], [15 x i8]* @.str.1, i32 0, i32 0), i32 226)
  %1702 = bitcast float* %53 to i8*
  call void @llvm.var.annotation(i8* %1702, i8* getelementptr inbounds ([28 x i8], [28 x i8]* @.str.5, i32 0, i32 0), i8* getelementptr inbounds ([15 x i8], [15 x i8]* @.str.1, i32 0, i32 0), i32 226)
  %1703 = bitcast float* %53 to i8*
  call void @llvm.var.annotation(i8* %1703, i8* getelementptr inbounds ([28 x i8], [28 x i8]* @.str.6, i32 0, i32 0), i8* getelementptr inbounds ([15 x i8], [15 x i8]* @.str.1, i32 0, i32 0), i32 226)
  %1704 = load float, float* %49, align 4
  %1705 = load float, float* %50, align 4
  %1706 = fmul float %1704, %1705
  store float %1706, float* %52, align 4
  %1707 = load float, float* %49, align 4
  %1708 = load float, float* %51, align 4
  %1709 = fmul float %1707, %1708
  store float %1709, float* %53, align 4
  br label %1710

Flow22:                                           ; preds = %Flow7, %Flow13
  br i1 %1483, label %1501, label %Flow23

; <label>:1710:                                   ; preds = %1526
  br label %1711

; <label>:1711:                                   ; preds = %1710
  %1712 = load float, float* %52, align 4
  %1713 = fpext float %1712 to double
  %1714 = fcmp ogt double %1713, 0.000000e+00
  br i1 %1714, label %1715, label %Flow4

; <label>:1715:                                   ; preds = %1711
  %1716 = load float, float* %53, align 4
  %1717 = fpext float %1716 to double
  %1718 = fcmp ogt double %1717, 0.000000e+00
  %1719 = xor i1 %1718, true
  br i1 %1719, label %1723, label %Flow5

; <label>:1720:                                   ; preds = %Flow6
  store i32 1, i32* %8, align 4
  br label %Flow7

Flow4:                                            ; preds = %Flow5, %1711
  %1721 = phi i1 [ %1724, %Flow5 ], [ false, %1711 ]
  %1722 = phi i1 [ %1725, %Flow5 ], [ true, %1711 ]
  br i1 %1722, label %1726, label %Flow6

; <label>:1723:                                   ; preds = %1715
  br label %Flow5

Flow5:                                            ; preds = %1723, %1715
  %1724 = phi i1 [ false, %1723 ], [ true, %1715 ]
  %1725 = phi i1 [ true, %1723 ], [ false, %1715 ]
  br label %Flow4

; <label>:1726:                                   ; preds = %Flow4
  %1727 = bitcast float* %54 to i8*
  call void @llvm.var.annotation(i8* %1727, i8* getelementptr inbounds ([9 x i8], [9 x i8]* @.str, i32 0, i32 0), i8* getelementptr inbounds ([15 x i8], [15 x i8]* @.str.1, i32 0, i32 0), i32 227)
  %1728 = bitcast float* %55 to i8*
  call void @llvm.var.annotation(i8* %1728, i8* getelementptr inbounds ([9 x i8], [9 x i8]* @.str, i32 0, i32 0), i8* getelementptr inbounds ([15 x i8], [15 x i8]* @.str.1, i32 0, i32 0), i32 227)
  %1729 = bitcast float* %56 to i8*
  call void @llvm.var.annotation(i8* %1729, i8* getelementptr inbounds ([9 x i8], [9 x i8]* @.str, i32 0, i32 0), i8* getelementptr inbounds ([15 x i8], [15 x i8]* @.str.1, i32 0, i32 0), i32 227)
  %1730 = bitcast float* %57 to i8*
  call void @llvm.var.annotation(i8* %1730, i8* getelementptr inbounds ([9 x i8], [9 x i8]* @.str, i32 0, i32 0), i8* getelementptr inbounds ([15 x i8], [15 x i8]* @.str.1, i32 0, i32 0), i32 227)
  %1731 = bitcast float* %58 to i8*
  call void @llvm.var.annotation(i8* %1731, i8* getelementptr inbounds ([9 x i8], [9 x i8]* @.str, i32 0, i32 0), i8* getelementptr inbounds ([15 x i8], [15 x i8]* @.str.1, i32 0, i32 0), i32 227)
  %1732 = bitcast float* %59 to i8*
  call void @llvm.var.annotation(i8* %1732, i8* getelementptr inbounds ([9 x i8], [9 x i8]* @.str, i32 0, i32 0), i8* getelementptr inbounds ([15 x i8], [15 x i8]* @.str.1, i32 0, i32 0), i32 227)
  %1733 = load float*, float** %11, align 8
  %1734 = load i16, i16* %18, align 2
  %1735 = sext i16 %1734 to i64
  %1736 = getelementptr inbounds float, float* %1733, i64 %1735
  %1737 = load float, float* %1736, align 4
  %1738 = load float*, float** %10, align 8
  %1739 = load i16, i16* %18, align 2
  %1740 = sext i16 %1739 to i64
  %1741 = getelementptr inbounds float, float* %1738, i64 %1740
  %1742 = load float, float* %1741, align 4
  %1743 = fsub float %1737, %1742
  store float %1743, float* %54, align 4
  %1744 = load float*, float** %11, align 8
  %1745 = load i16, i16* %17, align 2
  %1746 = sext i16 %1745 to i64
  %1747 = getelementptr inbounds float, float* %1744, i64 %1746
  %1748 = load float, float* %1747, align 4
  %1749 = load float*, float** %10, align 8
  %1750 = load i16, i16* %17, align 2
  %1751 = sext i16 %1750 to i64
  %1752 = getelementptr inbounds float, float* %1749, i64 %1751
  %1753 = load float, float* %1752, align 4
  %1754 = fsub float %1748, %1753
  %1755 = fsub float -0.000000e+00, %1754
  store float %1755, float* %55, align 4
  %1756 = load float, float* %54, align 4
  %1757 = fsub float -0.000000e+00, %1756
  %1758 = load float*, float** %10, align 8
  %1759 = load i16, i16* %17, align 2
  %1760 = sext i16 %1759 to i64
  %1761 = getelementptr inbounds float, float* %1758, i64 %1760
  %1762 = load float, float* %1761, align 4
  %1763 = fmul float %1757, %1762
  %1764 = load float, float* %55, align 4
  %1765 = load float*, float** %10, align 8
  %1766 = load i16, i16* %18, align 2
  %1767 = sext i16 %1766 to i64
  %1768 = getelementptr inbounds float, float* %1765, i64 %1767
  %1769 = load float, float* %1768, align 4
  %1770 = fmul float %1764, %1769
  %1771 = fsub float %1763, %1770
  store float %1771, float* %56, align 4
  %1772 = load float, float* %54, align 4
  %1773 = load float*, float** %13, align 8
  %1774 = load i16, i16* %17, align 2
  %1775 = sext i16 %1774 to i64
  %1776 = getelementptr inbounds float, float* %1773, i64 %1775
  %1777 = load float, float* %1776, align 4
  %1778 = fmul float %1772, %1777
  %1779 = load float, float* %55, align 4
  %1780 = load float*, float** %13, align 8
  %1781 = load i16, i16* %18, align 2
  %1782 = sext i16 %1781 to i64
  %1783 = getelementptr inbounds float, float* %1780, i64 %1782
  %1784 = load float, float* %1783, align 4
  %1785 = fmul float %1779, %1784
  %1786 = fadd float %1778, %1785
  %1787 = load float, float* %56, align 4
  %1788 = fadd float %1786, %1787
  store float %1788, float* %57, align 4
  %1789 = load float*, float** %12, align 8
  %1790 = load i16, i16* %18, align 2
  %1791 = sext i16 %1790 to i64
  %1792 = getelementptr inbounds float, float* %1789, i64 %1791
  %1793 = load float, float* %1792, align 4
  %1794 = load float*, float** %11, align 8
  %1795 = load i16, i16* %18, align 2
  %1796 = sext i16 %1795 to i64
  %1797 = getelementptr inbounds float, float* %1794, i64 %1796
  %1798 = load float, float* %1797, align 4
  %1799 = fsub float %1793, %1798
  store float %1799, float* %54, align 4
  %1800 = load float*, float** %12, align 8
  %1801 = load i16, i16* %17, align 2
  %1802 = sext i16 %1801 to i64
  %1803 = getelementptr inbounds float, float* %1800, i64 %1802
  %1804 = load float, float* %1803, align 4
  %1805 = load float*, float** %11, align 8
  %1806 = load i16, i16* %17, align 2
  %1807 = sext i16 %1806 to i64
  %1808 = getelementptr inbounds float, float* %1805, i64 %1807
  %1809 = load float, float* %1808, align 4
  %1810 = fsub float %1804, %1809
  %1811 = fsub float -0.000000e+00, %1810
  store float %1811, float* %55, align 4
  %1812 = load float, float* %54, align 4
  %1813 = fsub float -0.000000e+00, %1812
  %1814 = load float*, float** %11, align 8
  %1815 = load i16, i16* %17, align 2
  %1816 = sext i16 %1815 to i64
  %1817 = getelementptr inbounds float, float* %1814, i64 %1816
  %1818 = load float, float* %1817, align 4
  %1819 = fmul float %1813, %1818
  %1820 = load float, float* %55, align 4
  %1821 = load float*, float** %11, align 8
  %1822 = load i16, i16* %18, align 2
  %1823 = sext i16 %1822 to i64
  %1824 = getelementptr inbounds float, float* %1821, i64 %1823
  %1825 = load float, float* %1824, align 4
  %1826 = fmul float %1820, %1825
  %1827 = fsub float %1819, %1826
  store float %1827, float* %56, align 4
  %1828 = load float, float* %54, align 4
  %1829 = load float*, float** %13, align 8
  %1830 = load i16, i16* %17, align 2
  %1831 = sext i16 %1830 to i64
  %1832 = getelementptr inbounds float, float* %1829, i64 %1831
  %1833 = load float, float* %1832, align 4
  %1834 = fmul float %1828, %1833
  %1835 = load float, float* %55, align 4
  %1836 = load float*, float** %13, align 8
  %1837 = load i16, i16* %18, align 2
  %1838 = sext i16 %1837 to i64
  %1839 = getelementptr inbounds float, float* %1836, i64 %1838
  %1840 = load float, float* %1839, align 4
  %1841 = fmul float %1835, %1840
  %1842 = fadd float %1834, %1841
  %1843 = load float, float* %56, align 4
  %1844 = fadd float %1842, %1843
  store float %1844, float* %58, align 4
  %1845 = load float*, float** %10, align 8
  %1846 = load i16, i16* %18, align 2
  %1847 = sext i16 %1846 to i64
  %1848 = getelementptr inbounds float, float* %1845, i64 %1847
  %1849 = load float, float* %1848, align 4
  %1850 = load float*, float** %12, align 8
  %1851 = load i16, i16* %18, align 2
  %1852 = sext i16 %1851 to i64
  %1853 = getelementptr inbounds float, float* %1850, i64 %1852
  %1854 = load float, float* %1853, align 4
  %1855 = fsub float %1849, %1854
  store float %1855, float* %54, align 4
  %1856 = load float*, float** %10, align 8
  %1857 = load i16, i16* %17, align 2
  %1858 = sext i16 %1857 to i64
  %1859 = getelementptr inbounds float, float* %1856, i64 %1858
  %1860 = load float, float* %1859, align 4
  %1861 = load float*, float** %12, align 8
  %1862 = load i16, i16* %17, align 2
  %1863 = sext i16 %1862 to i64
  %1864 = getelementptr inbounds float, float* %1861, i64 %1863
  %1865 = load float, float* %1864, align 4
  %1866 = fsub float %1860, %1865
  %1867 = fsub float -0.000000e+00, %1866
  store float %1867, float* %55, align 4
  %1868 = load float, float* %54, align 4
  %1869 = fsub float -0.000000e+00, %1868
  %1870 = load float*, float** %12, align 8
  %1871 = load i16, i16* %17, align 2
  %1872 = sext i16 %1871 to i64
  %1873 = getelementptr inbounds float, float* %1870, i64 %1872
  %1874 = load float, float* %1873, align 4
  %1875 = fmul float %1869, %1874
  %1876 = load float, float* %55, align 4
  %1877 = load float*, float** %12, align 8
  %1878 = load i16, i16* %18, align 2
  %1879 = sext i16 %1878 to i64
  %1880 = getelementptr inbounds float, float* %1877, i64 %1879
  %1881 = load float, float* %1880, align 4
  %1882 = fmul float %1876, %1881
  %1883 = fsub float %1875, %1882
  store float %1883, float* %56, align 4
  %1884 = load float, float* %54, align 4
  %1885 = load float*, float** %13, align 8
  %1886 = load i16, i16* %17, align 2
  %1887 = sext i16 %1886 to i64
  %1888 = getelementptr inbounds float, float* %1885, i64 %1887
  %1889 = load float, float* %1888, align 4
  %1890 = fmul float %1884, %1889
  %1891 = load float, float* %55, align 4
  %1892 = load float*, float** %13, align 8
  %1893 = load i16, i16* %18, align 2
  %1894 = sext i16 %1893 to i64
  %1895 = getelementptr inbounds float, float* %1892, i64 %1894
  %1896 = load float, float* %1895, align 4
  %1897 = fmul float %1891, %1896
  %1898 = fadd float %1890, %1897
  %1899 = load float, float* %56, align 4
  %1900 = fadd float %1898, %1899
  store float %1900, float* %59, align 4
  %1901 = bitcast float* %60 to i8*
  call void @llvm.var.annotation(i8* %1901, i8* getelementptr inbounds ([28 x i8], [28 x i8]* @.str.5, i32 0, i32 0), i8* getelementptr inbounds ([15 x i8], [15 x i8]* @.str.1, i32 0, i32 0), i32 227)
  %1902 = bitcast float* %61 to i8*
  call void @llvm.var.annotation(i8* %1902, i8* getelementptr inbounds ([28 x i8], [28 x i8]* @.str.5, i32 0, i32 0), i8* getelementptr inbounds ([15 x i8], [15 x i8]* @.str.1, i32 0, i32 0), i32 227)
  %1903 = bitcast float* %61 to i8*
  call void @llvm.var.annotation(i8* %1903, i8* getelementptr inbounds ([28 x i8], [28 x i8]* @.str.6, i32 0, i32 0), i8* getelementptr inbounds ([15 x i8], [15 x i8]* @.str.1, i32 0, i32 0), i32 227)
  %1904 = load float, float* %57, align 4
  %1905 = load float, float* %58, align 4
  %1906 = fmul float %1904, %1905
  store float %1906, float* %60, align 4
  %1907 = load float, float* %57, align 4
  %1908 = load float, float* %59, align 4
  %1909 = fmul float %1907, %1908
  store float %1909, float* %61, align 4
  br label %1910

Flow6:                                            ; preds = %Flow3, %Flow4
  br i1 %1721, label %1720, label %Flow7

; <label>:1910:                                   ; preds = %1726
  br label %1911

; <label>:1911:                                   ; preds = %1910
  %1912 = load float, float* %60, align 4
  %1913 = fpext float %1912 to double
  %1914 = fcmp ogt double %1913, 0.000000e+00
  br i1 %1914, label %1915, label %Flow

; <label>:1915:                                   ; preds = %1911
  %1916 = load float, float* %61, align 4
  %1917 = fpext float %1916 to double
  %1918 = fcmp ogt double %1917, 0.000000e+00
  %1919 = xor i1 %1918, true
  br i1 %1919, label %1923, label %Flow1

Flow2:                                            ; preds = %1926, %Flow
  br i1 %1921, label %1920, label %Flow3

; <label>:1920:                                   ; preds = %Flow2
  store i32 1, i32* %8, align 4
  br label %Flow3

Flow:                                             ; preds = %Flow1, %1911
  %1921 = phi i1 [ %1924, %Flow1 ], [ false, %1911 ]
  %1922 = phi i1 [ %1925, %Flow1 ], [ true, %1911 ]
  br i1 %1922, label %1926, label %Flow2

; <label>:1923:                                   ; preds = %1915
  br label %Flow1

Flow1:                                            ; preds = %1923, %1915
  %1924 = phi i1 [ false, %1923 ], [ true, %1915 ]
  %1925 = phi i1 [ true, %1923 ], [ false, %1915 ]
  br label %Flow

; <label>:1926:                                   ; preds = %Flow
  store i32 0, i32* %8, align 4
  br label %Flow2

Flow3:                                            ; preds = %1920, %Flow2
  br label %Flow6

Flow7:                                            ; preds = %1720, %Flow6
  br label %Flow22

Flow23:                                           ; preds = %1501, %Flow22
  br label %Flow38

Flow39:                                           ; preds = %1355, %Flow38
  br label %Flow54

Flow55:                                           ; preds = %1209, %Flow54
  br label %Flow70

Flow71:                                           ; preds = %1030, %Flow70
  br label %Flow86

Flow87:                                           ; preds = %884, %Flow86
  br label %Flow102

Flow103:                                          ; preds = %738, %Flow102
  br label %Flow118

Flow119:                                          ; preds = %559, %Flow118
  br label %Flow134

Flow135:                                          ; preds = %413, %Flow134
  br label %Flow150

; <label>:1927:                                   ; preds = %267, %Flow150
  %1928 = load i32, i32* %8, align 4
  ret i32 %1928
}

; Function Attrs: nounwind
declare void @llvm.var.annotation(i8*, i8*, i8*, i32) #3

; Function Attrs: nounwind readnone speculatable
declare double @llvm.fabs.f64(double) #5

; Function Attrs: noinline nounwind optnone uwtable
define dso_local i32 @_Z17tri_tri_intersectPfS_S_S_S_S_S_Pi(float*, float*, float*, float*, float*, float*, float*, i32*) #4 {
  %9 = alloca i32, align 4
  %10 = alloca float*, align 8
  %11 = alloca float*, align 8
  %12 = alloca float*, align 8
  %13 = alloca float*, align 8
  %14 = alloca float*, align 8
  %15 = alloca float*, align 8
  %16 = alloca float*, align 8
  %17 = alloca i32*, align 8
  %18 = alloca [3 x float], align 4
  %19 = alloca [3 x float], align 4
  %20 = alloca [3 x float], align 4
  %21 = alloca [3 x float], align 4
  %22 = alloca float, align 4
  %23 = alloca float, align 4
  %24 = alloca float, align 4
  %25 = alloca float, align 4
  %26 = alloca float, align 4
  %27 = alloca float, align 4
  %28 = alloca float, align 4
  %29 = alloca float, align 4
  %30 = alloca [3 x float], align 4
  %31 = alloca [2 x float], align 4
  %32 = alloca [2 x float], align 4
  %33 = alloca float, align 4
  %34 = alloca float, align 4
  %35 = alloca float, align 4
  %36 = alloca float, align 4
  %37 = alloca float, align 4
  %38 = alloca float, align 4
  %39 = alloca float, align 4
  %40 = alloca float, align 4
  %41 = alloca float, align 4
  %42 = alloca float, align 4
  %43 = alloca float, align 4
  %44 = alloca float, align 4
  %45 = alloca float, align 4
  %46 = alloca i16, align 2
  %47 = alloca float, align 4
  %48 = alloca float, align 4
  %49 = alloca float, align 4
  %50 = alloca float, align 4
  %51 = alloca float, align 4
  %52 = alloca float, align 4
  %53 = alloca float, align 4
  %54 = alloca float, align 4
  %55 = alloca float, align 4
  %56 = alloca float, align 4
  %57 = alloca float, align 4
  %58 = alloca float, align 4
  %59 = alloca float, align 4
  %60 = alloca float, align 4
  %61 = alloca float, align 4
  %62 = alloca float, align 4
  %63 = alloca float, align 4
  %64 = alloca float, align 4
  %65 = alloca float, align 4
  %66 = alloca float, align 4
  %67 = alloca float, align 4
  %68 = alloca float, align 4
  %69 = alloca float, align 4
  %70 = alloca float, align 4
  %71 = alloca float, align 4
  %72 = alloca float, align 4
  %73 = alloca float, align 4
  %74 = alloca float, align 4
  %75 = alloca float, align 4
  %76 = alloca float, align 4
  %77 = alloca float, align 4
  %78 = alloca float, align 4
  %79 = alloca float, align 4
  %80 = alloca float, align 4
  %81 = alloca float, align 4
  %82 = alloca float, align 4
  %83 = alloca float, align 4
  %84 = alloca float, align 4
  %85 = alloca float, align 4
  %86 = alloca float, align 4
  %87 = alloca float, align 4
  %88 = alloca float, align 4
  %89 = alloca float, align 4
  %90 = alloca float, align 4
  %91 = alloca float, align 4
  %92 = alloca float, align 4
  %93 = alloca float, align 4
  %94 = alloca float, align 4
  %95 = alloca float, align 4
  %96 = alloca float, align 4
  %97 = alloca float, align 4
  %98 = alloca float, align 4
  %99 = alloca float, align 4
  %100 = alloca float, align 4
  %101 = alloca float, align 4
  %102 = alloca float, align 4
  %103 = alloca float, align 4
  %104 = alloca float, align 4
  %105 = alloca float, align 4
  %106 = alloca float, align 4
  %107 = alloca float, align 4
  %108 = alloca float, align 4
  %109 = alloca float, align 4
  %110 = alloca float, align 4
  store float* %0, float** %10, align 8
  %111 = bitcast float** %10 to i8*
  call void @llvm.var.annotation(i8* %111, i8* getelementptr inbounds ([9 x i8], [9 x i8]* @.str, i32 0, i32 0), i8* getelementptr inbounds ([15 x i8], [15 x i8]* @.str.1, i32 0, i32 0), i32 232)
  store float* %1, float** %11, align 8
  %112 = bitcast float** %11 to i8*
  call void @llvm.var.annotation(i8* %112, i8* getelementptr inbounds ([9 x i8], [9 x i8]* @.str, i32 0, i32 0), i8* getelementptr inbounds ([15 x i8], [15 x i8]* @.str.1, i32 0, i32 0), i32 232)
  store float* %2, float** %12, align 8
  %113 = bitcast float** %12 to i8*
  call void @llvm.var.annotation(i8* %113, i8* getelementptr inbounds ([9 x i8], [9 x i8]* @.str, i32 0, i32 0), i8* getelementptr inbounds ([15 x i8], [15 x i8]* @.str.1, i32 0, i32 0), i32 232)
  store float* %3, float** %13, align 8
  %114 = bitcast float** %13 to i8*
  call void @llvm.var.annotation(i8* %114, i8* getelementptr inbounds ([9 x i8], [9 x i8]* @.str, i32 0, i32 0), i8* getelementptr inbounds ([15 x i8], [15 x i8]* @.str.1, i32 0, i32 0), i32 233)
  store float* %4, float** %14, align 8
  %115 = bitcast float** %14 to i8*
  call void @llvm.var.annotation(i8* %115, i8* getelementptr inbounds ([9 x i8], [9 x i8]* @.str, i32 0, i32 0), i8* getelementptr inbounds ([15 x i8], [15 x i8]* @.str.1, i32 0, i32 0), i32 233)
  store float* %5, float** %15, align 8
  %116 = bitcast float** %15 to i8*
  call void @llvm.var.annotation(i8* %116, i8* getelementptr inbounds ([9 x i8], [9 x i8]* @.str, i32 0, i32 0), i8* getelementptr inbounds ([15 x i8], [15 x i8]* @.str.1, i32 0, i32 0), i32 233)
  store float* %6, float** %16, align 8
  %117 = bitcast float** %16 to i8*
  call void @llvm.var.annotation(i8* %117, i8* getelementptr inbounds ([9 x i8], [9 x i8]* @.str, i32 0, i32 0), i8* getelementptr inbounds ([15 x i8], [15 x i8]* @.str.1, i32 0, i32 0), i32 234)
  store i32* %7, i32** %17, align 8
  %118 = bitcast [3 x float]* %18 to i8*
  call void @llvm.var.annotation(i8* %118, i8* getelementptr inbounds ([9 x i8], [9 x i8]* @.str, i32 0, i32 0), i8* getelementptr inbounds ([15 x i8], [15 x i8]* @.str.1, i32 0, i32 0), i32 237)
  %119 = bitcast [3 x float]* %19 to i8*
  call void @llvm.var.annotation(i8* %119, i8* getelementptr inbounds ([9 x i8], [9 x i8]* @.str, i32 0, i32 0), i8* getelementptr inbounds ([15 x i8], [15 x i8]* @.str.1, i32 0, i32 0), i32 237)
  %120 = bitcast [3 x float]* %20 to i8*
  call void @llvm.var.annotation(i8* %120, i8* getelementptr inbounds ([9 x i8], [9 x i8]* @.str, i32 0, i32 0), i8* getelementptr inbounds ([15 x i8], [15 x i8]* @.str.1, i32 0, i32 0), i32 238)
  %121 = bitcast [3 x float]* %21 to i8*
  call void @llvm.var.annotation(i8* %121, i8* getelementptr inbounds ([9 x i8], [9 x i8]* @.str, i32 0, i32 0), i8* getelementptr inbounds ([15 x i8], [15 x i8]* @.str.1, i32 0, i32 0), i32 238)
  %122 = bitcast float* %22 to i8*
  call void @llvm.var.annotation(i8* %122, i8* getelementptr inbounds ([9 x i8], [9 x i8]* @.str, i32 0, i32 0), i8* getelementptr inbounds ([15 x i8], [15 x i8]* @.str.1, i32 0, i32 0), i32 238)
  %123 = bitcast float* %23 to i8*
  call void @llvm.var.annotation(i8* %123, i8* getelementptr inbounds ([9 x i8], [9 x i8]* @.str, i32 0, i32 0), i8* getelementptr inbounds ([15 x i8], [15 x i8]* @.str.1, i32 0, i32 0), i32 238)
  %124 = bitcast float* %24 to i8*
  call void @llvm.var.annotation(i8* %124, i8* getelementptr inbounds ([9 x i8], [9 x i8]* @.str, i32 0, i32 0), i8* getelementptr inbounds ([15 x i8], [15 x i8]* @.str.1, i32 0, i32 0), i32 239)
  %125 = bitcast float* %25 to i8*
  call void @llvm.var.annotation(i8* %125, i8* getelementptr inbounds ([9 x i8], [9 x i8]* @.str, i32 0, i32 0), i8* getelementptr inbounds ([15 x i8], [15 x i8]* @.str.1, i32 0, i32 0), i32 239)
  %126 = bitcast float* %26 to i8*
  call void @llvm.var.annotation(i8* %126, i8* getelementptr inbounds ([9 x i8], [9 x i8]* @.str, i32 0, i32 0), i8* getelementptr inbounds ([15 x i8], [15 x i8]* @.str.1, i32 0, i32 0), i32 239)
  %127 = bitcast float* %27 to i8*
  call void @llvm.var.annotation(i8* %127, i8* getelementptr inbounds ([9 x i8], [9 x i8]* @.str, i32 0, i32 0), i8* getelementptr inbounds ([15 x i8], [15 x i8]* @.str.1, i32 0, i32 0), i32 239)
  %128 = bitcast float* %28 to i8*
  call void @llvm.var.annotation(i8* %128, i8* getelementptr inbounds ([9 x i8], [9 x i8]* @.str, i32 0, i32 0), i8* getelementptr inbounds ([15 x i8], [15 x i8]* @.str.1, i32 0, i32 0), i32 239)
  %129 = bitcast float* %29 to i8*
  call void @llvm.var.annotation(i8* %129, i8* getelementptr inbounds ([9 x i8], [9 x i8]* @.str, i32 0, i32 0), i8* getelementptr inbounds ([15 x i8], [15 x i8]* @.str.1, i32 0, i32 0), i32 239)
  %130 = bitcast [3 x float]* %30 to i8*
  call void @llvm.var.annotation(i8* %130, i8* getelementptr inbounds ([9 x i8], [9 x i8]* @.str, i32 0, i32 0), i8* getelementptr inbounds ([15 x i8], [15 x i8]* @.str.1, i32 0, i32 0), i32 240)
  %131 = bitcast [2 x float]* %31 to i8*
  call void @llvm.var.annotation(i8* %131, i8* getelementptr inbounds ([9 x i8], [9 x i8]* @.str, i32 0, i32 0), i8* getelementptr inbounds ([15 x i8], [15 x i8]* @.str.1, i32 0, i32 0), i32 241)
  %132 = bitcast [2 x float]* %32 to i8*
  call void @llvm.var.annotation(i8* %132, i8* getelementptr inbounds ([9 x i8], [9 x i8]* @.str, i32 0, i32 0), i8* getelementptr inbounds ([15 x i8], [15 x i8]* @.str.1, i32 0, i32 0), i32 241)
  %133 = bitcast float* %33 to i8*
  call void @llvm.var.annotation(i8* %133, i8* getelementptr inbounds ([9 x i8], [9 x i8]* @.str, i32 0, i32 0), i8* getelementptr inbounds ([15 x i8], [15 x i8]* @.str.1, i32 0, i32 0), i32 242)
  %134 = bitcast float* %34 to i8*
  call void @llvm.var.annotation(i8* %134, i8* getelementptr inbounds ([9 x i8], [9 x i8]* @.str, i32 0, i32 0), i8* getelementptr inbounds ([15 x i8], [15 x i8]* @.str.1, i32 0, i32 0), i32 242)
  %135 = bitcast float* %35 to i8*
  call void @llvm.var.annotation(i8* %135, i8* getelementptr inbounds ([9 x i8], [9 x i8]* @.str, i32 0, i32 0), i8* getelementptr inbounds ([15 x i8], [15 x i8]* @.str.1, i32 0, i32 0), i32 242)
  %136 = bitcast float* %36 to i8*
  call void @llvm.var.annotation(i8* %136, i8* getelementptr inbounds ([9 x i8], [9 x i8]* @.str, i32 0, i32 0), i8* getelementptr inbounds ([15 x i8], [15 x i8]* @.str.1, i32 0, i32 0), i32 243)
  %137 = bitcast float* %37 to i8*
  call void @llvm.var.annotation(i8* %137, i8* getelementptr inbounds ([9 x i8], [9 x i8]* @.str, i32 0, i32 0), i8* getelementptr inbounds ([15 x i8], [15 x i8]* @.str.1, i32 0, i32 0), i32 243)
  %138 = bitcast float* %38 to i8*
  call void @llvm.var.annotation(i8* %138, i8* getelementptr inbounds ([9 x i8], [9 x i8]* @.str, i32 0, i32 0), i8* getelementptr inbounds ([15 x i8], [15 x i8]* @.str.1, i32 0, i32 0), i32 243)
  %139 = bitcast float* %39 to i8*
  call void @llvm.var.annotation(i8* %139, i8* getelementptr inbounds ([9 x i8], [9 x i8]* @.str, i32 0, i32 0), i8* getelementptr inbounds ([15 x i8], [15 x i8]* @.str.1, i32 0, i32 0), i32 244)
  %140 = bitcast float* %40 to i8*
  call void @llvm.var.annotation(i8* %140, i8* getelementptr inbounds ([9 x i8], [9 x i8]* @.str, i32 0, i32 0), i8* getelementptr inbounds ([15 x i8], [15 x i8]* @.str.1, i32 0, i32 0), i32 244)
  %141 = bitcast float* %41 to i8*
  call void @llvm.var.annotation(i8* %141, i8* getelementptr inbounds ([9 x i8], [9 x i8]* @.str, i32 0, i32 0), i8* getelementptr inbounds ([15 x i8], [15 x i8]* @.str.1, i32 0, i32 0), i32 244)
  %142 = bitcast float* %42 to i8*
  call void @llvm.var.annotation(i8* %142, i8* getelementptr inbounds ([29 x i8], [29 x i8]* @.str.7, i32 0, i32 0), i8* getelementptr inbounds ([15 x i8], [15 x i8]* @.str.1, i32 0, i32 0), i32 246)
  %143 = bitcast float* %43 to i8*
  call void @llvm.var.annotation(i8* %143, i8* getelementptr inbounds ([29 x i8], [29 x i8]* @.str.8, i32 0, i32 0), i8* getelementptr inbounds ([15 x i8], [15 x i8]* @.str.1, i32 0, i32 0), i32 247)
  %144 = bitcast float* %44 to i8*
  call void @llvm.var.annotation(i8* %144, i8* getelementptr inbounds ([29 x i8], [29 x i8]* @.str.9, i32 0, i32 0), i8* getelementptr inbounds ([15 x i8], [15 x i8]* @.str.1, i32 0, i32 0), i32 248)
  %145 = bitcast float* %45 to i8*
  call void @llvm.var.annotation(i8* %145, i8* getelementptr inbounds ([29 x i8], [29 x i8]* @.str.10, i32 0, i32 0), i8* getelementptr inbounds ([15 x i8], [15 x i8]* @.str.1, i32 0, i32 0), i32 249)
  %146 = load float*, float** %11, align 8
  %147 = getelementptr inbounds float, float* %146, i64 0
  %148 = load float, float* %147, align 4
  %149 = load float*, float** %10, align 8
  %150 = getelementptr inbounds float, float* %149, i64 0
  %151 = load float, float* %150, align 4
  %152 = fsub float %148, %151
  %153 = getelementptr inbounds [3 x float], [3 x float]* %18, i64 0, i64 0
  store float %152, float* %153, align 4
  %154 = load float*, float** %11, align 8
  %155 = getelementptr inbounds float, float* %154, i64 1
  %156 = load float, float* %155, align 4
  %157 = load float*, float** %10, align 8
  %158 = getelementptr inbounds float, float* %157, i64 1
  %159 = load float, float* %158, align 4
  %160 = fsub float %156, %159
  %161 = getelementptr inbounds [3 x float], [3 x float]* %18, i64 0, i64 1
  store float %160, float* %161, align 4
  %162 = load float*, float** %11, align 8
  %163 = getelementptr inbounds float, float* %162, i64 2
  %164 = load float, float* %163, align 4
  %165 = load float*, float** %10, align 8
  %166 = getelementptr inbounds float, float* %165, i64 2
  %167 = load float, float* %166, align 4
  %168 = fsub float %164, %167
  %169 = getelementptr inbounds [3 x float], [3 x float]* %18, i64 0, i64 2
  store float %168, float* %169, align 4
  %170 = load float*, float** %12, align 8
  %171 = getelementptr inbounds float, float* %170, i64 0
  %172 = load float, float* %171, align 4
  %173 = load float*, float** %10, align 8
  %174 = getelementptr inbounds float, float* %173, i64 0
  %175 = load float, float* %174, align 4
  %176 = fsub float %172, %175
  %177 = getelementptr inbounds [3 x float], [3 x float]* %19, i64 0, i64 0
  store float %176, float* %177, align 4
  %178 = load float*, float** %12, align 8
  %179 = getelementptr inbounds float, float* %178, i64 1
  %180 = load float, float* %179, align 4
  %181 = load float*, float** %10, align 8
  %182 = getelementptr inbounds float, float* %181, i64 1
  %183 = load float, float* %182, align 4
  %184 = fsub float %180, %183
  %185 = getelementptr inbounds [3 x float], [3 x float]* %19, i64 0, i64 1
  store float %184, float* %185, align 4
  %186 = load float*, float** %12, align 8
  %187 = getelementptr inbounds float, float* %186, i64 2
  %188 = load float, float* %187, align 4
  %189 = load float*, float** %10, align 8
  %190 = getelementptr inbounds float, float* %189, i64 2
  %191 = load float, float* %190, align 4
  %192 = fsub float %188, %191
  %193 = getelementptr inbounds [3 x float], [3 x float]* %19, i64 0, i64 2
  store float %192, float* %193, align 4
  %194 = getelementptr inbounds [3 x float], [3 x float]* %18, i64 0, i64 1
  %195 = load float, float* %194, align 4
  %196 = getelementptr inbounds [3 x float], [3 x float]* %19, i64 0, i64 2
  %197 = load float, float* %196, align 4
  %198 = fmul float %195, %197
  %199 = getelementptr inbounds [3 x float], [3 x float]* %18, i64 0, i64 2
  %200 = load float, float* %199, align 4
  %201 = getelementptr inbounds [3 x float], [3 x float]* %19, i64 0, i64 1
  %202 = load float, float* %201, align 4
  %203 = fmul float %200, %202
  %204 = fsub float %198, %203
  %205 = getelementptr inbounds [3 x float], [3 x float]* %20, i64 0, i64 0
  store float %204, float* %205, align 4
  %206 = getelementptr inbounds [3 x float], [3 x float]* %18, i64 0, i64 2
  %207 = load float, float* %206, align 4
  %208 = getelementptr inbounds [3 x float], [3 x float]* %19, i64 0, i64 0
  %209 = load float, float* %208, align 4
  %210 = fmul float %207, %209
  %211 = getelementptr inbounds [3 x float], [3 x float]* %18, i64 0, i64 0
  %212 = load float, float* %211, align 4
  %213 = getelementptr inbounds [3 x float], [3 x float]* %19, i64 0, i64 2
  %214 = load float, float* %213, align 4
  %215 = fmul float %212, %214
  %216 = fsub float %210, %215
  %217 = getelementptr inbounds [3 x float], [3 x float]* %20, i64 0, i64 1
  store float %216, float* %217, align 4
  %218 = getelementptr inbounds [3 x float], [3 x float]* %18, i64 0, i64 0
  %219 = load float, float* %218, align 4
  %220 = getelementptr inbounds [3 x float], [3 x float]* %19, i64 0, i64 1
  %221 = load float, float* %220, align 4
  %222 = fmul float %219, %221
  %223 = getelementptr inbounds [3 x float], [3 x float]* %18, i64 0, i64 1
  %224 = load float, float* %223, align 4
  %225 = getelementptr inbounds [3 x float], [3 x float]* %19, i64 0, i64 0
  %226 = load float, float* %225, align 4
  %227 = fmul float %224, %226
  %228 = fsub float %222, %227
  %229 = getelementptr inbounds [3 x float], [3 x float]* %20, i64 0, i64 2
  store float %228, float* %229, align 4
  %230 = getelementptr inbounds [3 x float], [3 x float]* %20, i64 0, i64 0
  %231 = load float, float* %230, align 4
  %232 = load float*, float** %10, align 8
  %233 = getelementptr inbounds float, float* %232, i64 0
  %234 = load float, float* %233, align 4
  %235 = fmul float %231, %234
  %236 = getelementptr inbounds [3 x float], [3 x float]* %20, i64 0, i64 1
  %237 = load float, float* %236, align 4
  %238 = load float*, float** %10, align 8
  %239 = getelementptr inbounds float, float* %238, i64 1
  %240 = load float, float* %239, align 4
  %241 = fmul float %237, %240
  %242 = fadd float %235, %241
  %243 = getelementptr inbounds [3 x float], [3 x float]* %20, i64 0, i64 2
  %244 = load float, float* %243, align 4
  %245 = load float*, float** %10, align 8
  %246 = getelementptr inbounds float, float* %245, i64 2
  %247 = load float, float* %246, align 4
  %248 = fmul float %244, %247
  %249 = fadd float %242, %248
  %250 = fsub float -0.000000e+00, %249
  store float %250, float* %22, align 4
  %251 = getelementptr inbounds [3 x float], [3 x float]* %20, i64 0, i64 0
  %252 = load float, float* %251, align 4
  %253 = load float*, float** %13, align 8
  %254 = getelementptr inbounds float, float* %253, i64 0
  %255 = load float, float* %254, align 4
  %256 = fmul float %252, %255
  %257 = getelementptr inbounds [3 x float], [3 x float]* %20, i64 0, i64 1
  %258 = load float, float* %257, align 4
  %259 = load float*, float** %13, align 8
  %260 = getelementptr inbounds float, float* %259, i64 1
  %261 = load float, float* %260, align 4
  %262 = fmul float %258, %261
  %263 = fadd float %256, %262
  %264 = getelementptr inbounds [3 x float], [3 x float]* %20, i64 0, i64 2
  %265 = load float, float* %264, align 4
  %266 = load float*, float** %13, align 8
  %267 = getelementptr inbounds float, float* %266, i64 2
  %268 = load float, float* %267, align 4
  %269 = fmul float %265, %268
  %270 = fadd float %263, %269
  %271 = load float, float* %22, align 4
  %272 = fadd float %270, %271
  store float %272, float* %24, align 4
  %273 = getelementptr inbounds [3 x float], [3 x float]* %20, i64 0, i64 0
  %274 = load float, float* %273, align 4
  %275 = load float*, float** %14, align 8
  %276 = getelementptr inbounds float, float* %275, i64 0
  %277 = load float, float* %276, align 4
  %278 = fmul float %274, %277
  %279 = getelementptr inbounds [3 x float], [3 x float]* %20, i64 0, i64 1
  %280 = load float, float* %279, align 4
  %281 = load float*, float** %14, align 8
  %282 = getelementptr inbounds float, float* %281, i64 1
  %283 = load float, float* %282, align 4
  %284 = fmul float %280, %283
  %285 = fadd float %278, %284
  %286 = getelementptr inbounds [3 x float], [3 x float]* %20, i64 0, i64 2
  %287 = load float, float* %286, align 4
  %288 = load float*, float** %14, align 8
  %289 = getelementptr inbounds float, float* %288, i64 2
  %290 = load float, float* %289, align 4
  %291 = fmul float %287, %290
  %292 = fadd float %285, %291
  %293 = load float, float* %22, align 4
  %294 = fadd float %292, %293
  store float %294, float* %25, align 4
  %295 = getelementptr inbounds [3 x float], [3 x float]* %20, i64 0, i64 0
  %296 = load float, float* %295, align 4
  %297 = load float*, float** %15, align 8
  %298 = getelementptr inbounds float, float* %297, i64 0
  %299 = load float, float* %298, align 4
  %300 = fmul float %296, %299
  %301 = getelementptr inbounds [3 x float], [3 x float]* %20, i64 0, i64 1
  %302 = load float, float* %301, align 4
  %303 = load float*, float** %15, align 8
  %304 = getelementptr inbounds float, float* %303, i64 1
  %305 = load float, float* %304, align 4
  %306 = fmul float %302, %305
  %307 = fadd float %300, %306
  %308 = getelementptr inbounds [3 x float], [3 x float]* %20, i64 0, i64 2
  %309 = load float, float* %308, align 4
  %310 = load float*, float** %15, align 8
  %311 = getelementptr inbounds float, float* %310, i64 2
  %312 = load float, float* %311, align 4
  %313 = fmul float %309, %312
  %314 = fadd float %307, %313
  %315 = load float, float* %22, align 4
  %316 = fadd float %314, %315
  store float %316, float* %26, align 4
  %317 = load float, float* %24, align 4
  %318 = fpext float %317 to double
  %319 = call double @llvm.fabs.f64(double %318)
  %320 = fcmp olt double %319, 0x3EB0C6F7A0B5ED8D
  br i1 %320, label %321, label %322

; <label>:321:                                    ; preds = %8
  store float 0.000000e+00, float* %24, align 4
  br label %322

; <label>:322:                                    ; preds = %321, %8
  %323 = load float, float* %25, align 4
  %324 = fpext float %323 to double
  %325 = call double @llvm.fabs.f64(double %324)
  %326 = fcmp olt double %325, 0x3EB0C6F7A0B5ED8D
  br i1 %326, label %327, label %328

; <label>:327:                                    ; preds = %322
  store float 0.000000e+00, float* %25, align 4
  br label %328

; <label>:328:                                    ; preds = %327, %322
  %329 = load float, float* %26, align 4
  %330 = fpext float %329 to double
  %331 = call double @llvm.fabs.f64(double %330)
  %332 = fcmp olt double %331, 0x3EB0C6F7A0B5ED8D
  br i1 %332, label %333, label %334

; <label>:333:                                    ; preds = %328
  store float 0.000000e+00, float* %26, align 4
  br label %334

; <label>:334:                                    ; preds = %333, %328
  %335 = load float, float* %24, align 4
  %336 = load float, float* %25, align 4
  %337 = fmul float %335, %336
  store float %337, float* %42, align 4
  %338 = load float, float* %24, align 4
  %339 = load float, float* %26, align 4
  %340 = fmul float %338, %339
  store float %340, float* %43, align 4
  br label %341

; <label>:341:                                    ; preds = %334
  br label %342

; <label>:342:                                    ; preds = %341
  %343 = load float, float* %42, align 4
  %344 = fcmp ogt float %343, 0.000000e+00
  %345 = xor i1 %344, true
  br i1 %344, label %346, label %Flow56

; <label>:346:                                    ; preds = %342
  %347 = load float, float* %43, align 4
  %348 = fcmp ogt float %347, 0.000000e+00
  %349 = xor i1 %348, true
  br label %Flow56

; <label>:350:                                    ; preds = %Flow57
  %351 = load i32*, i32** %17, align 8
  store i32 0, i32* %351, align 4
  store i32 0, i32* %9, align 4
  br label %1758

Flow56:                                           ; preds = %346, %342
  %352 = phi i1 [ true, %346 ], [ false, %342 ]
  %353 = phi i1 [ %349, %346 ], [ %345, %342 ]
  br i1 %353, label %354, label %Flow57

; <label>:354:                                    ; preds = %Flow56
  %355 = load float*, float** %14, align 8
  %356 = getelementptr inbounds float, float* %355, i64 0
  %357 = load float, float* %356, align 4
  %358 = load float*, float** %13, align 8
  %359 = getelementptr inbounds float, float* %358, i64 0
  %360 = load float, float* %359, align 4
  %361 = fsub float %357, %360
  %362 = getelementptr inbounds [3 x float], [3 x float]* %18, i64 0, i64 0
  store float %361, float* %362, align 4
  %363 = load float*, float** %14, align 8
  %364 = getelementptr inbounds float, float* %363, i64 1
  %365 = load float, float* %364, align 4
  %366 = load float*, float** %13, align 8
  %367 = getelementptr inbounds float, float* %366, i64 1
  %368 = load float, float* %367, align 4
  %369 = fsub float %365, %368
  %370 = getelementptr inbounds [3 x float], [3 x float]* %18, i64 0, i64 1
  store float %369, float* %370, align 4
  %371 = load float*, float** %14, align 8
  %372 = getelementptr inbounds float, float* %371, i64 2
  %373 = load float, float* %372, align 4
  %374 = load float*, float** %13, align 8
  %375 = getelementptr inbounds float, float* %374, i64 2
  %376 = load float, float* %375, align 4
  %377 = fsub float %373, %376
  %378 = getelementptr inbounds [3 x float], [3 x float]* %18, i64 0, i64 2
  store float %377, float* %378, align 4
  %379 = load float*, float** %15, align 8
  %380 = getelementptr inbounds float, float* %379, i64 0
  %381 = load float, float* %380, align 4
  %382 = load float*, float** %13, align 8
  %383 = getelementptr inbounds float, float* %382, i64 0
  %384 = load float, float* %383, align 4
  %385 = fsub float %381, %384
  %386 = getelementptr inbounds [3 x float], [3 x float]* %19, i64 0, i64 0
  store float %385, float* %386, align 4
  %387 = load float*, float** %15, align 8
  %388 = getelementptr inbounds float, float* %387, i64 1
  %389 = load float, float* %388, align 4
  %390 = load float*, float** %13, align 8
  %391 = getelementptr inbounds float, float* %390, i64 1
  %392 = load float, float* %391, align 4
  %393 = fsub float %389, %392
  %394 = getelementptr inbounds [3 x float], [3 x float]* %19, i64 0, i64 1
  store float %393, float* %394, align 4
  %395 = load float*, float** %15, align 8
  %396 = getelementptr inbounds float, float* %395, i64 2
  %397 = load float, float* %396, align 4
  %398 = load float*, float** %13, align 8
  %399 = getelementptr inbounds float, float* %398, i64 2
  %400 = load float, float* %399, align 4
  %401 = fsub float %397, %400
  %402 = getelementptr inbounds [3 x float], [3 x float]* %19, i64 0, i64 2
  store float %401, float* %402, align 4
  %403 = getelementptr inbounds [3 x float], [3 x float]* %18, i64 0, i64 1
  %404 = load float, float* %403, align 4
  %405 = getelementptr inbounds [3 x float], [3 x float]* %19, i64 0, i64 2
  %406 = load float, float* %405, align 4
  %407 = fmul float %404, %406
  %408 = getelementptr inbounds [3 x float], [3 x float]* %18, i64 0, i64 2
  %409 = load float, float* %408, align 4
  %410 = getelementptr inbounds [3 x float], [3 x float]* %19, i64 0, i64 1
  %411 = load float, float* %410, align 4
  %412 = fmul float %409, %411
  %413 = fsub float %407, %412
  %414 = getelementptr inbounds [3 x float], [3 x float]* %21, i64 0, i64 0
  store float %413, float* %414, align 4
  %415 = getelementptr inbounds [3 x float], [3 x float]* %18, i64 0, i64 2
  %416 = load float, float* %415, align 4
  %417 = getelementptr inbounds [3 x float], [3 x float]* %19, i64 0, i64 0
  %418 = load float, float* %417, align 4
  %419 = fmul float %416, %418
  %420 = getelementptr inbounds [3 x float], [3 x float]* %18, i64 0, i64 0
  %421 = load float, float* %420, align 4
  %422 = getelementptr inbounds [3 x float], [3 x float]* %19, i64 0, i64 2
  %423 = load float, float* %422, align 4
  %424 = fmul float %421, %423
  %425 = fsub float %419, %424
  %426 = getelementptr inbounds [3 x float], [3 x float]* %21, i64 0, i64 1
  store float %425, float* %426, align 4
  %427 = getelementptr inbounds [3 x float], [3 x float]* %18, i64 0, i64 0
  %428 = load float, float* %427, align 4
  %429 = getelementptr inbounds [3 x float], [3 x float]* %19, i64 0, i64 1
  %430 = load float, float* %429, align 4
  %431 = fmul float %428, %430
  %432 = getelementptr inbounds [3 x float], [3 x float]* %18, i64 0, i64 1
  %433 = load float, float* %432, align 4
  %434 = getelementptr inbounds [3 x float], [3 x float]* %19, i64 0, i64 0
  %435 = load float, float* %434, align 4
  %436 = fmul float %433, %435
  %437 = fsub float %431, %436
  %438 = getelementptr inbounds [3 x float], [3 x float]* %21, i64 0, i64 2
  store float %437, float* %438, align 4
  %439 = getelementptr inbounds [3 x float], [3 x float]* %21, i64 0, i64 0
  %440 = load float, float* %439, align 4
  %441 = load float*, float** %13, align 8
  %442 = getelementptr inbounds float, float* %441, i64 0
  %443 = load float, float* %442, align 4
  %444 = fmul float %440, %443
  %445 = getelementptr inbounds [3 x float], [3 x float]* %21, i64 0, i64 1
  %446 = load float, float* %445, align 4
  %447 = load float*, float** %13, align 8
  %448 = getelementptr inbounds float, float* %447, i64 1
  %449 = load float, float* %448, align 4
  %450 = fmul float %446, %449
  %451 = fadd float %444, %450
  %452 = getelementptr inbounds [3 x float], [3 x float]* %21, i64 0, i64 2
  %453 = load float, float* %452, align 4
  %454 = load float*, float** %13, align 8
  %455 = getelementptr inbounds float, float* %454, i64 2
  %456 = load float, float* %455, align 4
  %457 = fmul float %453, %456
  %458 = fadd float %451, %457
  %459 = fsub float -0.000000e+00, %458
  store float %459, float* %23, align 4
  %460 = getelementptr inbounds [3 x float], [3 x float]* %21, i64 0, i64 0
  %461 = load float, float* %460, align 4
  %462 = load float*, float** %10, align 8
  %463 = getelementptr inbounds float, float* %462, i64 0
  %464 = load float, float* %463, align 4
  %465 = fmul float %461, %464
  %466 = getelementptr inbounds [3 x float], [3 x float]* %21, i64 0, i64 1
  %467 = load float, float* %466, align 4
  %468 = load float*, float** %10, align 8
  %469 = getelementptr inbounds float, float* %468, i64 1
  %470 = load float, float* %469, align 4
  %471 = fmul float %467, %470
  %472 = fadd float %465, %471
  %473 = getelementptr inbounds [3 x float], [3 x float]* %21, i64 0, i64 2
  %474 = load float, float* %473, align 4
  %475 = load float*, float** %10, align 8
  %476 = getelementptr inbounds float, float* %475, i64 2
  %477 = load float, float* %476, align 4
  %478 = fmul float %474, %477
  %479 = fadd float %472, %478
  %480 = load float, float* %23, align 4
  %481 = fadd float %479, %480
  store float %481, float* %27, align 4
  %482 = getelementptr inbounds [3 x float], [3 x float]* %21, i64 0, i64 0
  %483 = load float, float* %482, align 4
  %484 = load float*, float** %11, align 8
  %485 = getelementptr inbounds float, float* %484, i64 0
  %486 = load float, float* %485, align 4
  %487 = fmul float %483, %486
  %488 = getelementptr inbounds [3 x float], [3 x float]* %21, i64 0, i64 1
  %489 = load float, float* %488, align 4
  %490 = load float*, float** %11, align 8
  %491 = getelementptr inbounds float, float* %490, i64 1
  %492 = load float, float* %491, align 4
  %493 = fmul float %489, %492
  %494 = fadd float %487, %493
  %495 = getelementptr inbounds [3 x float], [3 x float]* %21, i64 0, i64 2
  %496 = load float, float* %495, align 4
  %497 = load float*, float** %11, align 8
  %498 = getelementptr inbounds float, float* %497, i64 2
  %499 = load float, float* %498, align 4
  %500 = fmul float %496, %499
  %501 = fadd float %494, %500
  %502 = load float, float* %23, align 4
  %503 = fadd float %501, %502
  store float %503, float* %28, align 4
  %504 = getelementptr inbounds [3 x float], [3 x float]* %21, i64 0, i64 0
  %505 = load float, float* %504, align 4
  %506 = load float*, float** %12, align 8
  %507 = getelementptr inbounds float, float* %506, i64 0
  %508 = load float, float* %507, align 4
  %509 = fmul float %505, %508
  %510 = getelementptr inbounds [3 x float], [3 x float]* %21, i64 0, i64 1
  %511 = load float, float* %510, align 4
  %512 = load float*, float** %12, align 8
  %513 = getelementptr inbounds float, float* %512, i64 1
  %514 = load float, float* %513, align 4
  %515 = fmul float %511, %514
  %516 = fadd float %509, %515
  %517 = getelementptr inbounds [3 x float], [3 x float]* %21, i64 0, i64 2
  %518 = load float, float* %517, align 4
  %519 = load float*, float** %12, align 8
  %520 = getelementptr inbounds float, float* %519, i64 2
  %521 = load float, float* %520, align 4
  %522 = fmul float %518, %521
  %523 = fadd float %516, %522
  %524 = load float, float* %23, align 4
  %525 = fadd float %523, %524
  store float %525, float* %29, align 4
  %526 = load float, float* %27, align 4
  %527 = fpext float %526 to double
  %528 = call double @llvm.fabs.f64(double %527)
  %529 = fcmp olt double %528, 0x3EB0C6F7A0B5ED8D
  br i1 %529, label %530, label %532

; <label>:530:                                    ; preds = %354
  store float 0.000000e+00, float* %27, align 4
  br label %532

Flow57:                                           ; preds = %Flow55, %Flow56
  %531 = phi i1 [ false, %Flow55 ], [ %352, %Flow56 ]
  br i1 %531, label %350, label %1758

; <label>:532:                                    ; preds = %530, %354
  %533 = load float, float* %28, align 4
  %534 = fpext float %533 to double
  %535 = call double @llvm.fabs.f64(double %534)
  %536 = fcmp olt double %535, 0x3EB0C6F7A0B5ED8D
  br i1 %536, label %537, label %538

; <label>:537:                                    ; preds = %532
  store float 0.000000e+00, float* %28, align 4
  br label %538

; <label>:538:                                    ; preds = %537, %532
  %539 = load float, float* %29, align 4
  %540 = fpext float %539 to double
  %541 = call double @llvm.fabs.f64(double %540)
  %542 = fcmp olt double %541, 0x3EB0C6F7A0B5ED8D
  br i1 %542, label %543, label %544

; <label>:543:                                    ; preds = %538
  store float 0.000000e+00, float* %29, align 4
  br label %544

; <label>:544:                                    ; preds = %543, %538
  %545 = load float, float* %27, align 4
  %546 = load float, float* %28, align 4
  %547 = fmul float %545, %546
  store float %547, float* %44, align 4
  %548 = load float, float* %27, align 4
  %549 = load float, float* %29, align 4
  %550 = fmul float %548, %549
  store float %550, float* %45, align 4
  br label %551

; <label>:551:                                    ; preds = %544
  br label %552

; <label>:552:                                    ; preds = %551
  %553 = load float, float* %44, align 4
  %554 = fcmp ogt float %553, 0.000000e+00
  %555 = xor i1 %554, true
  br i1 %554, label %556, label %Flow53

; <label>:556:                                    ; preds = %552
  %557 = load float, float* %45, align 4
  %558 = fcmp ogt float %557, 0.000000e+00
  %559 = xor i1 %558, true
  br label %Flow53

; <label>:560:                                    ; preds = %Flow54
  %561 = load i32*, i32** %17, align 8
  store i32 1, i32* %561, align 4
  store i32 0, i32* %9, align 4
  br label %Flow55

Flow53:                                           ; preds = %556, %552
  %562 = phi i1 [ true, %556 ], [ false, %552 ]
  %563 = phi i1 [ %559, %556 ], [ %555, %552 ]
  br i1 %563, label %564, label %Flow54

; <label>:564:                                    ; preds = %Flow53
  %565 = getelementptr inbounds [3 x float], [3 x float]* %20, i64 0, i64 1
  %566 = load float, float* %565, align 4
  %567 = getelementptr inbounds [3 x float], [3 x float]* %21, i64 0, i64 2
  %568 = load float, float* %567, align 4
  %569 = fmul float %566, %568
  %570 = getelementptr inbounds [3 x float], [3 x float]* %20, i64 0, i64 2
  %571 = load float, float* %570, align 4
  %572 = getelementptr inbounds [3 x float], [3 x float]* %21, i64 0, i64 1
  %573 = load float, float* %572, align 4
  %574 = fmul float %571, %573
  %575 = fsub float %569, %574
  %576 = getelementptr inbounds [3 x float], [3 x float]* %30, i64 0, i64 0
  store float %575, float* %576, align 4
  %577 = getelementptr inbounds [3 x float], [3 x float]* %20, i64 0, i64 2
  %578 = load float, float* %577, align 4
  %579 = getelementptr inbounds [3 x float], [3 x float]* %21, i64 0, i64 0
  %580 = load float, float* %579, align 4
  %581 = fmul float %578, %580
  %582 = getelementptr inbounds [3 x float], [3 x float]* %20, i64 0, i64 0
  %583 = load float, float* %582, align 4
  %584 = getelementptr inbounds [3 x float], [3 x float]* %21, i64 0, i64 2
  %585 = load float, float* %584, align 4
  %586 = fmul float %583, %585
  %587 = fsub float %581, %586
  %588 = getelementptr inbounds [3 x float], [3 x float]* %30, i64 0, i64 1
  store float %587, float* %588, align 4
  %589 = getelementptr inbounds [3 x float], [3 x float]* %20, i64 0, i64 0
  %590 = load float, float* %589, align 4
  %591 = getelementptr inbounds [3 x float], [3 x float]* %21, i64 0, i64 1
  %592 = load float, float* %591, align 4
  %593 = fmul float %590, %592
  %594 = getelementptr inbounds [3 x float], [3 x float]* %20, i64 0, i64 1
  %595 = load float, float* %594, align 4
  %596 = getelementptr inbounds [3 x float], [3 x float]* %21, i64 0, i64 0
  %597 = load float, float* %596, align 4
  %598 = fmul float %595, %597
  %599 = fsub float %593, %598
  %600 = getelementptr inbounds [3 x float], [3 x float]* %30, i64 0, i64 2
  store float %599, float* %600, align 4
  %601 = getelementptr inbounds [3 x float], [3 x float]* %30, i64 0, i64 0
  %602 = load float, float* %601, align 4
  %603 = fpext float %602 to double
  %604 = call double @llvm.fabs.f64(double %603)
  %605 = fptrunc double %604 to float
  store float %605, float* %41, align 4
  store i16 0, i16* %46, align 2
  %606 = getelementptr inbounds [3 x float], [3 x float]* %30, i64 0, i64 1
  %607 = load float, float* %606, align 4
  %608 = fpext float %607 to double
  %609 = call double @llvm.fabs.f64(double %608)
  %610 = fptrunc double %609 to float
  store float %610, float* %39, align 4
  %611 = getelementptr inbounds [3 x float], [3 x float]* %30, i64 0, i64 2
  %612 = load float, float* %611, align 4
  %613 = fpext float %612 to double
  %614 = call double @llvm.fabs.f64(double %613)
  %615 = fptrunc double %614 to float
  store float %615, float* %40, align 4
  %616 = load float, float* %39, align 4
  %617 = load float, float* %41, align 4
  %618 = fcmp ogt float %616, %617
  br i1 %618, label %619, label %622

; <label>:619:                                    ; preds = %564
  %620 = load float, float* %39, align 4
  store float %620, float* %41, align 4
  store i16 1, i16* %46, align 2
  br label %622

Flow54:                                           ; preds = %Flow52, %Flow53
  %621 = phi i1 [ false, %Flow52 ], [ %562, %Flow53 ]
  br i1 %621, label %560, label %Flow55

; <label>:622:                                    ; preds = %619, %564
  %623 = load float, float* %40, align 4
  %624 = load float, float* %41, align 4
  %625 = fcmp ogt float %623, %624
  br i1 %625, label %626, label %628

; <label>:626:                                    ; preds = %622
  %627 = load float, float* %40, align 4
  store float %627, float* %41, align 4
  store i16 2, i16* %46, align 2
  br label %628

; <label>:628:                                    ; preds = %626, %622
  %629 = load float*, float** %10, align 8
  %630 = load i16, i16* %46, align 2
  %631 = sext i16 %630 to i64
  %632 = getelementptr inbounds float, float* %629, i64 %631
  %633 = load float, float* %632, align 4
  store float %633, float* %33, align 4
  %634 = load float*, float** %11, align 8
  %635 = load i16, i16* %46, align 2
  %636 = sext i16 %635 to i64
  %637 = getelementptr inbounds float, float* %634, i64 %636
  %638 = load float, float* %637, align 4
  store float %638, float* %34, align 4
  %639 = load float*, float** %12, align 8
  %640 = load i16, i16* %46, align 2
  %641 = sext i16 %640 to i64
  %642 = getelementptr inbounds float, float* %639, i64 %641
  %643 = load float, float* %642, align 4
  store float %643, float* %35, align 4
  %644 = load float*, float** %13, align 8
  %645 = load i16, i16* %46, align 2
  %646 = sext i16 %645 to i64
  %647 = getelementptr inbounds float, float* %644, i64 %646
  %648 = load float, float* %647, align 4
  store float %648, float* %36, align 4
  %649 = load float*, float** %14, align 8
  %650 = load i16, i16* %46, align 2
  %651 = sext i16 %650 to i64
  %652 = getelementptr inbounds float, float* %649, i64 %651
  %653 = load float, float* %652, align 4
  store float %653, float* %37, align 4
  %654 = load float*, float** %15, align 8
  %655 = load i16, i16* %46, align 2
  %656 = sext i16 %655 to i64
  %657 = getelementptr inbounds float, float* %654, i64 %656
  %658 = load float, float* %657, align 4
  store float %658, float* %38, align 4
  %659 = load i32*, i32** %17, align 8
  store i32 2, i32* %659, align 4
  %660 = load float, float* %44, align 4
  %661 = fcmp ogt float %660, 0.000000e+00
  %662 = xor i1 %661, true
  br i1 %662, label %756, label %Flow38

Flow50:                                           ; preds = %1171, %Flow49
  %663 = phi i1 [ true, %1171 ], [ false, %Flow49 ]
  br label %Flow38

; <label>:664:                                    ; preds = %Flow38
  %665 = bitcast float* %47 to i8*
  call void @llvm.var.annotation(i8* %665, i8* getelementptr inbounds ([9 x i8], [9 x i8]* @.str, i32 0, i32 0), i8* getelementptr inbounds ([15 x i8], [15 x i8]* @.str.1, i32 0, i32 0), i32 340)
  %666 = load float, float* %29, align 4
  %667 = load float, float* %27, align 4
  %668 = fsub float %666, %667
  store float %668, float* %47, align 4
  %669 = bitcast float* %48 to i8*
  call void @llvm.var.annotation(i8* %669, i8* getelementptr inbounds ([9 x i8], [9 x i8]* @.str, i32 0, i32 0), i8* getelementptr inbounds ([15 x i8], [15 x i8]* @.str.1, i32 0, i32 0), i32 340)
  %670 = load float, float* %29, align 4
  %671 = load float, float* %28, align 4
  %672 = fsub float %670, %671
  store float %672, float* %48, align 4
  %673 = load float, float* %47, align 4
  %674 = fcmp oge float %673, 0.000000e+00
  %675 = xor i1 %674, true
  br i1 %675, label %695, label %Flow37

Flow37:                                           ; preds = %695, %664
  %676 = phi i1 [ false, %695 ], [ true, %664 ]
  br i1 %676, label %677, label %714

; <label>:677:                                    ; preds = %Flow37
  %678 = bitcast float* %49 to i8*
  call void @llvm.var.annotation(i8* %678, i8* getelementptr inbounds ([37 x i8], [37 x i8]* @.str.11, i32 0, i32 0), i8* getelementptr inbounds ([15 x i8], [15 x i8]* @.str.1, i32 0, i32 0), i32 340)
  %679 = load float, float* %47, align 4
  store float %679, float* %49, align 4
  %680 = load float, float* %35, align 4
  %681 = fpext float %680 to double
  %682 = load float, float* %33, align 4
  %683 = load float, float* %35, align 4
  %684 = fsub float %682, %683
  %685 = load float, float* %29, align 4
  %686 = fmul float %684, %685
  %687 = fpext float %686 to double
  %688 = load float, float* %49, align 4
  %689 = fpext float %688 to double
  %690 = fadd double %689, 1.000000e-05
  %691 = fdiv double %687, %690
  %692 = fadd double %681, %691
  %693 = fptrunc double %692 to float
  %694 = getelementptr inbounds [2 x float], [2 x float]* %31, i64 0, i64 0
  store float %693, float* %694, align 4
  br label %714

; <label>:695:                                    ; preds = %664
  %696 = bitcast float* %50 to i8*
  call void @llvm.var.annotation(i8* %696, i8* getelementptr inbounds ([39 x i8], [39 x i8]* @.str.12, i32 0, i32 0), i8* getelementptr inbounds ([15 x i8], [15 x i8]* @.str.1, i32 0, i32 0), i32 340)
  %697 = load float, float* %47, align 4
  store float %697, float* %50, align 4
  %698 = load float, float* %35, align 4
  %699 = fpext float %698 to double
  %700 = load float, float* %33, align 4
  %701 = load float, float* %35, align 4
  %702 = fsub float %700, %701
  %703 = load float, float* %29, align 4
  %704 = fmul float %702, %703
  %705 = fpext float %704 to double
  %706 = load float, float* %50, align 4
  %707 = fpext float %706 to double
  %708 = fadd double %707, 1.000000e-05
  %709 = fdiv double %705, %708
  %710 = fadd double %699, %709
  %711 = fptrunc double %710 to float
  %712 = getelementptr inbounds [2 x float], [2 x float]* %31, i64 0, i64 0
  store float %711, float* %712, align 4
  br label %Flow37

Flow51:                                           ; preds = %755, %Flow38
  %713 = phi i1 [ true, %755 ], [ %853, %Flow38 ]
  br i1 %713, label %1172, label %Flow52

; <label>:714:                                    ; preds = %677, %Flow37
  %715 = load float, float* %48, align 4
  %716 = fcmp oge float %715, 0.000000e+00
  %717 = xor i1 %716, true
  br i1 %717, label %737, label %Flow36

Flow36:                                           ; preds = %737, %714
  %718 = phi i1 [ false, %737 ], [ true, %714 ]
  br i1 %718, label %719, label %755

; <label>:719:                                    ; preds = %Flow36
  %720 = bitcast float* %51 to i8*
  call void @llvm.var.annotation(i8* %720, i8* getelementptr inbounds ([37 x i8], [37 x i8]* @.str.11, i32 0, i32 0), i8* getelementptr inbounds ([15 x i8], [15 x i8]* @.str.1, i32 0, i32 0), i32 340)
  %721 = load float, float* %48, align 4
  store float %721, float* %51, align 4
  %722 = load float, float* %35, align 4
  %723 = fpext float %722 to double
  %724 = load float, float* %34, align 4
  %725 = load float, float* %35, align 4
  %726 = fsub float %724, %725
  %727 = load float, float* %29, align 4
  %728 = fmul float %726, %727
  %729 = fpext float %728 to double
  %730 = load float, float* %51, align 4
  %731 = fpext float %730 to double
  %732 = fadd double %731, 1.000000e-05
  %733 = fdiv double %729, %732
  %734 = fadd double %723, %733
  %735 = fptrunc double %734 to float
  %736 = getelementptr inbounds [2 x float], [2 x float]* %31, i64 0, i64 1
  store float %735, float* %736, align 4
  br label %755

; <label>:737:                                    ; preds = %714
  %738 = bitcast float* %52 to i8*
  call void @llvm.var.annotation(i8* %738, i8* getelementptr inbounds ([39 x i8], [39 x i8]* @.str.12, i32 0, i32 0), i8* getelementptr inbounds ([15 x i8], [15 x i8]* @.str.1, i32 0, i32 0), i32 340)
  %739 = load float, float* %48, align 4
  store float %739, float* %52, align 4
  %740 = load float, float* %35, align 4
  %741 = fpext float %740 to double
  %742 = load float, float* %34, align 4
  %743 = load float, float* %35, align 4
  %744 = fsub float %742, %743
  %745 = load float, float* %29, align 4
  %746 = fmul float %744, %745
  %747 = fpext float %746 to double
  %748 = load float, float* %52, align 4
  %749 = fpext float %748 to double
  %750 = fadd double %749, 1.000000e-05
  %751 = fdiv double %747, %750
  %752 = fadd double %741, %751
  %753 = fptrunc double %752 to float
  %754 = getelementptr inbounds [2 x float], [2 x float]* %31, i64 0, i64 1
  store float %753, float* %754, align 4
  br label %Flow36

; <label>:755:                                    ; preds = %719, %Flow36
  br label %Flow51

; <label>:756:                                    ; preds = %628
  %757 = load float, float* %45, align 4
  %758 = fcmp ogt float %757, 0.000000e+00
  %759 = xor i1 %758, true
  br i1 %759, label %855, label %Flow39

Flow48:                                           ; preds = %1170, %Flow47
  %760 = phi i1 [ true, %1170 ], [ false, %Flow47 ]
  br label %Flow39

; <label>:761:                                    ; preds = %Flow39
  %762 = bitcast float* %53 to i8*
  call void @llvm.var.annotation(i8* %762, i8* getelementptr inbounds ([9 x i8], [9 x i8]* @.str, i32 0, i32 0), i8* getelementptr inbounds ([15 x i8], [15 x i8]* @.str.1, i32 0, i32 0), i32 340)
  %763 = load float, float* %28, align 4
  %764 = load float, float* %27, align 4
  %765 = fsub float %763, %764
  store float %765, float* %53, align 4
  %766 = bitcast float* %54 to i8*
  call void @llvm.var.annotation(i8* %766, i8* getelementptr inbounds ([9 x i8], [9 x i8]* @.str, i32 0, i32 0), i8* getelementptr inbounds ([15 x i8], [15 x i8]* @.str.1, i32 0, i32 0), i32 340)
  %767 = load float, float* %28, align 4
  %768 = load float, float* %29, align 4
  %769 = fsub float %767, %768
  store float %769, float* %54, align 4
  %770 = load float, float* %53, align 4
  %771 = fcmp oge float %770, 0.000000e+00
  %772 = xor i1 %771, true
  br i1 %772, label %792, label %Flow7

Flow7:                                            ; preds = %792, %761
  %773 = phi i1 [ false, %792 ], [ true, %761 ]
  br i1 %773, label %774, label %811

; <label>:774:                                    ; preds = %Flow7
  %775 = bitcast float* %55 to i8*
  call void @llvm.var.annotation(i8* %775, i8* getelementptr inbounds ([37 x i8], [37 x i8]* @.str.11, i32 0, i32 0), i8* getelementptr inbounds ([15 x i8], [15 x i8]* @.str.1, i32 0, i32 0), i32 340)
  %776 = load float, float* %53, align 4
  store float %776, float* %55, align 4
  %777 = load float, float* %34, align 4
  %778 = fpext float %777 to double
  %779 = load float, float* %33, align 4
  %780 = load float, float* %34, align 4
  %781 = fsub float %779, %780
  %782 = load float, float* %28, align 4
  %783 = fmul float %781, %782
  %784 = fpext float %783 to double
  %785 = load float, float* %55, align 4
  %786 = fpext float %785 to double
  %787 = fadd double %786, 1.000000e-05
  %788 = fdiv double %784, %787
  %789 = fadd double %778, %788
  %790 = fptrunc double %789 to float
  %791 = getelementptr inbounds [2 x float], [2 x float]* %31, i64 0, i64 0
  store float %790, float* %791, align 4
  br label %811

; <label>:792:                                    ; preds = %761
  %793 = bitcast float* %56 to i8*
  call void @llvm.var.annotation(i8* %793, i8* getelementptr inbounds ([39 x i8], [39 x i8]* @.str.12, i32 0, i32 0), i8* getelementptr inbounds ([15 x i8], [15 x i8]* @.str.1, i32 0, i32 0), i32 340)
  %794 = load float, float* %53, align 4
  store float %794, float* %56, align 4
  %795 = load float, float* %34, align 4
  %796 = fpext float %795 to double
  %797 = load float, float* %33, align 4
  %798 = load float, float* %34, align 4
  %799 = fsub float %797, %798
  %800 = load float, float* %28, align 4
  %801 = fmul float %799, %800
  %802 = fpext float %801 to double
  %803 = load float, float* %56, align 4
  %804 = fpext float %803 to double
  %805 = fadd double %804, 1.000000e-05
  %806 = fdiv double %802, %805
  %807 = fadd double %796, %806
  %808 = fptrunc double %807 to float
  %809 = getelementptr inbounds [2 x float], [2 x float]* %31, i64 0, i64 0
  store float %808, float* %809, align 4
  br label %Flow7

Flow49:                                           ; preds = %852, %Flow39
  %810 = phi i1 [ true, %852 ], [ %861, %Flow39 ]
  br i1 %810, label %1171, label %Flow50

; <label>:811:                                    ; preds = %774, %Flow7
  %812 = load float, float* %54, align 4
  %813 = fcmp oge float %812, 0.000000e+00
  %814 = xor i1 %813, true
  br i1 %814, label %834, label %Flow6

Flow6:                                            ; preds = %834, %811
  %815 = phi i1 [ false, %834 ], [ true, %811 ]
  br i1 %815, label %816, label %852

; <label>:816:                                    ; preds = %Flow6
  %817 = bitcast float* %57 to i8*
  call void @llvm.var.annotation(i8* %817, i8* getelementptr inbounds ([37 x i8], [37 x i8]* @.str.11, i32 0, i32 0), i8* getelementptr inbounds ([15 x i8], [15 x i8]* @.str.1, i32 0, i32 0), i32 340)
  %818 = load float, float* %54, align 4
  store float %818, float* %57, align 4
  %819 = load float, float* %34, align 4
  %820 = fpext float %819 to double
  %821 = load float, float* %35, align 4
  %822 = load float, float* %34, align 4
  %823 = fsub float %821, %822
  %824 = load float, float* %28, align 4
  %825 = fmul float %823, %824
  %826 = fpext float %825 to double
  %827 = load float, float* %57, align 4
  %828 = fpext float %827 to double
  %829 = fadd double %828, 1.000000e-05
  %830 = fdiv double %826, %829
  %831 = fadd double %820, %830
  %832 = fptrunc double %831 to float
  %833 = getelementptr inbounds [2 x float], [2 x float]* %31, i64 0, i64 1
  store float %832, float* %833, align 4
  br label %852

; <label>:834:                                    ; preds = %811
  %835 = bitcast float* %58 to i8*
  call void @llvm.var.annotation(i8* %835, i8* getelementptr inbounds ([39 x i8], [39 x i8]* @.str.12, i32 0, i32 0), i8* getelementptr inbounds ([15 x i8], [15 x i8]* @.str.1, i32 0, i32 0), i32 340)
  %836 = load float, float* %54, align 4
  store float %836, float* %58, align 4
  %837 = load float, float* %34, align 4
  %838 = fpext float %837 to double
  %839 = load float, float* %35, align 4
  %840 = load float, float* %34, align 4
  %841 = fsub float %839, %840
  %842 = load float, float* %28, align 4
  %843 = fmul float %841, %842
  %844 = fpext float %843 to double
  %845 = load float, float* %58, align 4
  %846 = fpext float %845 to double
  %847 = fadd double %846, 1.000000e-05
  %848 = fdiv double %844, %847
  %849 = fadd double %838, %848
  %850 = fptrunc double %849 to float
  %851 = getelementptr inbounds [2 x float], [2 x float]* %31, i64 0, i64 1
  store float %850, float* %851, align 4
  br label %Flow6

; <label>:852:                                    ; preds = %816, %Flow6
  br label %Flow49

Flow38:                                           ; preds = %Flow50, %628
  %853 = phi i1 [ %663, %Flow50 ], [ false, %628 ]
  %854 = phi i1 [ false, %Flow50 ], [ true, %628 ]
  br i1 %854, label %664, label %Flow51

; <label>:855:                                    ; preds = %756
  %856 = load float, float* %28, align 4
  %857 = load float, float* %29, align 4
  %858 = fmul float %856, %857
  %859 = fcmp ogt float %858, 0.000000e+00
  %860 = xor i1 %859, true
  br i1 %860, label %863, label %Flow40

Flow39:                                           ; preds = %Flow48, %756
  %861 = phi i1 [ %760, %Flow48 ], [ false, %756 ]
  %862 = phi i1 [ false, %Flow48 ], [ true, %756 ]
  br i1 %862, label %761, label %Flow49

; <label>:863:                                    ; preds = %855
  %864 = load float, float* %27, align 4
  %865 = fcmp une float %864, 0.000000e+00
  %866 = xor i1 %865, true
  br i1 %866, label %962, label %Flow41

Flow46:                                           ; preds = %1169, %Flow45
  %867 = phi i1 [ true, %1169 ], [ false, %Flow45 ]
  br label %Flow41

; <label>:868:                                    ; preds = %Flow40
  %869 = bitcast float* %59 to i8*
  call void @llvm.var.annotation(i8* %869, i8* getelementptr inbounds ([9 x i8], [9 x i8]* @.str, i32 0, i32 0), i8* getelementptr inbounds ([15 x i8], [15 x i8]* @.str.1, i32 0, i32 0), i32 340)
  %870 = load float, float* %27, align 4
  %871 = load float, float* %28, align 4
  %872 = fsub float %870, %871
  store float %872, float* %59, align 4
  %873 = bitcast float* %60 to i8*
  call void @llvm.var.annotation(i8* %873, i8* getelementptr inbounds ([9 x i8], [9 x i8]* @.str, i32 0, i32 0), i8* getelementptr inbounds ([15 x i8], [15 x i8]* @.str.1, i32 0, i32 0), i32 340)
  %874 = load float, float* %27, align 4
  %875 = load float, float* %29, align 4
  %876 = fsub float %874, %875
  store float %876, float* %60, align 4
  %877 = load float, float* %59, align 4
  %878 = fcmp oge float %877, 0.000000e+00
  %879 = xor i1 %878, true
  br i1 %879, label %899, label %Flow5

Flow5:                                            ; preds = %899, %868
  %880 = phi i1 [ false, %899 ], [ true, %868 ]
  br i1 %880, label %881, label %918

; <label>:881:                                    ; preds = %Flow5
  %882 = bitcast float* %61 to i8*
  call void @llvm.var.annotation(i8* %882, i8* getelementptr inbounds ([37 x i8], [37 x i8]* @.str.11, i32 0, i32 0), i8* getelementptr inbounds ([15 x i8], [15 x i8]* @.str.1, i32 0, i32 0), i32 340)
  %883 = load float, float* %59, align 4
  store float %883, float* %61, align 4
  %884 = load float, float* %33, align 4
  %885 = fpext float %884 to double
  %886 = load float, float* %34, align 4
  %887 = load float, float* %33, align 4
  %888 = fsub float %886, %887
  %889 = load float, float* %27, align 4
  %890 = fmul float %888, %889
  %891 = fpext float %890 to double
  %892 = load float, float* %61, align 4
  %893 = fpext float %892 to double
  %894 = fadd double %893, 1.000000e-05
  %895 = fdiv double %891, %894
  %896 = fadd double %885, %895
  %897 = fptrunc double %896 to float
  %898 = getelementptr inbounds [2 x float], [2 x float]* %31, i64 0, i64 0
  store float %897, float* %898, align 4
  br label %918

; <label>:899:                                    ; preds = %868
  %900 = bitcast float* %62 to i8*
  call void @llvm.var.annotation(i8* %900, i8* getelementptr inbounds ([39 x i8], [39 x i8]* @.str.12, i32 0, i32 0), i8* getelementptr inbounds ([15 x i8], [15 x i8]* @.str.1, i32 0, i32 0), i32 340)
  %901 = load float, float* %59, align 4
  store float %901, float* %62, align 4
  %902 = load float, float* %33, align 4
  %903 = fpext float %902 to double
  %904 = load float, float* %34, align 4
  %905 = load float, float* %33, align 4
  %906 = fsub float %904, %905
  %907 = load float, float* %27, align 4
  %908 = fmul float %906, %907
  %909 = fpext float %908 to double
  %910 = load float, float* %62, align 4
  %911 = fpext float %910 to double
  %912 = fadd double %911, 1.000000e-05
  %913 = fdiv double %909, %912
  %914 = fadd double %903, %913
  %915 = fptrunc double %914 to float
  %916 = getelementptr inbounds [2 x float], [2 x float]* %31, i64 0, i64 0
  store float %915, float* %916, align 4
  br label %Flow5

Flow47:                                           ; preds = %959, %Flow40
  %917 = phi i1 [ true, %959 ], [ %960, %Flow40 ]
  br i1 %917, label %1170, label %Flow48

; <label>:918:                                    ; preds = %881, %Flow5
  %919 = load float, float* %60, align 4
  %920 = fcmp oge float %919, 0.000000e+00
  %921 = xor i1 %920, true
  br i1 %921, label %941, label %Flow4

Flow4:                                            ; preds = %941, %918
  %922 = phi i1 [ false, %941 ], [ true, %918 ]
  br i1 %922, label %923, label %959

; <label>:923:                                    ; preds = %Flow4
  %924 = bitcast float* %63 to i8*
  call void @llvm.var.annotation(i8* %924, i8* getelementptr inbounds ([37 x i8], [37 x i8]* @.str.11, i32 0, i32 0), i8* getelementptr inbounds ([15 x i8], [15 x i8]* @.str.1, i32 0, i32 0), i32 340)
  %925 = load float, float* %60, align 4
  store float %925, float* %63, align 4
  %926 = load float, float* %33, align 4
  %927 = fpext float %926 to double
  %928 = load float, float* %35, align 4
  %929 = load float, float* %33, align 4
  %930 = fsub float %928, %929
  %931 = load float, float* %27, align 4
  %932 = fmul float %930, %931
  %933 = fpext float %932 to double
  %934 = load float, float* %63, align 4
  %935 = fpext float %934 to double
  %936 = fadd double %935, 1.000000e-05
  %937 = fdiv double %933, %936
  %938 = fadd double %927, %937
  %939 = fptrunc double %938 to float
  %940 = getelementptr inbounds [2 x float], [2 x float]* %31, i64 0, i64 1
  store float %939, float* %940, align 4
  br label %959

; <label>:941:                                    ; preds = %918
  %942 = bitcast float* %64 to i8*
  call void @llvm.var.annotation(i8* %942, i8* getelementptr inbounds ([39 x i8], [39 x i8]* @.str.12, i32 0, i32 0), i8* getelementptr inbounds ([15 x i8], [15 x i8]* @.str.1, i32 0, i32 0), i32 340)
  %943 = load float, float* %60, align 4
  store float %943, float* %64, align 4
  %944 = load float, float* %33, align 4
  %945 = fpext float %944 to double
  %946 = load float, float* %35, align 4
  %947 = load float, float* %33, align 4
  %948 = fsub float %946, %947
  %949 = load float, float* %27, align 4
  %950 = fmul float %948, %949
  %951 = fpext float %950 to double
  %952 = load float, float* %64, align 4
  %953 = fpext float %952 to double
  %954 = fadd double %953, 1.000000e-05
  %955 = fdiv double %951, %954
  %956 = fadd double %945, %955
  %957 = fptrunc double %956 to float
  %958 = getelementptr inbounds [2 x float], [2 x float]* %31, i64 0, i64 1
  store float %957, float* %958, align 4
  br label %Flow4

; <label>:959:                                    ; preds = %923, %Flow4
  br label %Flow47

Flow40:                                           ; preds = %Flow41, %855
  %960 = phi i1 [ %1058, %Flow41 ], [ false, %855 ]
  %961 = phi i1 [ %1059, %Flow41 ], [ %859, %855 ]
  br i1 %961, label %868, label %Flow47

; <label>:962:                                    ; preds = %863
  %963 = load float, float* %28, align 4
  %964 = fcmp une float %963, 0.000000e+00
  %965 = xor i1 %964, true
  br i1 %965, label %1060, label %Flow42

; <label>:966:                                    ; preds = %Flow42
  %967 = bitcast float* %65 to i8*
  call void @llvm.var.annotation(i8* %967, i8* getelementptr inbounds ([9 x i8], [9 x i8]* @.str, i32 0, i32 0), i8* getelementptr inbounds ([15 x i8], [15 x i8]* @.str.1, i32 0, i32 0), i32 340)
  %968 = load float, float* %28, align 4
  %969 = load float, float* %27, align 4
  %970 = fsub float %968, %969
  store float %970, float* %65, align 4
  %971 = bitcast float* %66 to i8*
  call void @llvm.var.annotation(i8* %971, i8* getelementptr inbounds ([9 x i8], [9 x i8]* @.str, i32 0, i32 0), i8* getelementptr inbounds ([15 x i8], [15 x i8]* @.str.1, i32 0, i32 0), i32 340)
  %972 = load float, float* %28, align 4
  %973 = load float, float* %29, align 4
  %974 = fsub float %972, %973
  store float %974, float* %66, align 4
  %975 = load float, float* %65, align 4
  %976 = fcmp oge float %975, 0.000000e+00
  %977 = xor i1 %976, true
  br i1 %977, label %997, label %Flow3

Flow3:                                            ; preds = %997, %966
  %978 = phi i1 [ false, %997 ], [ true, %966 ]
  br i1 %978, label %979, label %1016

; <label>:979:                                    ; preds = %Flow3
  %980 = bitcast float* %67 to i8*
  call void @llvm.var.annotation(i8* %980, i8* getelementptr inbounds ([37 x i8], [37 x i8]* @.str.11, i32 0, i32 0), i8* getelementptr inbounds ([15 x i8], [15 x i8]* @.str.1, i32 0, i32 0), i32 340)
  %981 = load float, float* %65, align 4
  store float %981, float* %67, align 4
  %982 = load float, float* %34, align 4
  %983 = fpext float %982 to double
  %984 = load float, float* %33, align 4
  %985 = load float, float* %34, align 4
  %986 = fsub float %984, %985
  %987 = load float, float* %28, align 4
  %988 = fmul float %986, %987
  %989 = fpext float %988 to double
  %990 = load float, float* %67, align 4
  %991 = fpext float %990 to double
  %992 = fadd double %991, 1.000000e-05
  %993 = fdiv double %989, %992
  %994 = fadd double %983, %993
  %995 = fptrunc double %994 to float
  %996 = getelementptr inbounds [2 x float], [2 x float]* %31, i64 0, i64 0
  store float %995, float* %996, align 4
  br label %1016

; <label>:997:                                    ; preds = %966
  %998 = bitcast float* %68 to i8*
  call void @llvm.var.annotation(i8* %998, i8* getelementptr inbounds ([39 x i8], [39 x i8]* @.str.12, i32 0, i32 0), i8* getelementptr inbounds ([15 x i8], [15 x i8]* @.str.1, i32 0, i32 0), i32 340)
  %999 = load float, float* %65, align 4
  store float %999, float* %68, align 4
  %1000 = load float, float* %34, align 4
  %1001 = fpext float %1000 to double
  %1002 = load float, float* %33, align 4
  %1003 = load float, float* %34, align 4
  %1004 = fsub float %1002, %1003
  %1005 = load float, float* %28, align 4
  %1006 = fmul float %1004, %1005
  %1007 = fpext float %1006 to double
  %1008 = load float, float* %68, align 4
  %1009 = fpext float %1008 to double
  %1010 = fadd double %1009, 1.000000e-05
  %1011 = fdiv double %1007, %1010
  %1012 = fadd double %1001, %1011
  %1013 = fptrunc double %1012 to float
  %1014 = getelementptr inbounds [2 x float], [2 x float]* %31, i64 0, i64 0
  store float %1013, float* %1014, align 4
  br label %Flow3

Flow45:                                           ; preds = %1057, %Flow42
  %1015 = phi i1 [ true, %1057 ], [ %1157, %Flow42 ]
  br i1 %1015, label %1169, label %Flow46

; <label>:1016:                                   ; preds = %979, %Flow3
  %1017 = load float, float* %66, align 4
  %1018 = fcmp oge float %1017, 0.000000e+00
  %1019 = xor i1 %1018, true
  br i1 %1019, label %1039, label %Flow2

Flow2:                                            ; preds = %1039, %1016
  %1020 = phi i1 [ false, %1039 ], [ true, %1016 ]
  br i1 %1020, label %1021, label %1057

; <label>:1021:                                   ; preds = %Flow2
  %1022 = bitcast float* %69 to i8*
  call void @llvm.var.annotation(i8* %1022, i8* getelementptr inbounds ([37 x i8], [37 x i8]* @.str.11, i32 0, i32 0), i8* getelementptr inbounds ([15 x i8], [15 x i8]* @.str.1, i32 0, i32 0), i32 340)
  %1023 = load float, float* %66, align 4
  store float %1023, float* %69, align 4
  %1024 = load float, float* %34, align 4
  %1025 = fpext float %1024 to double
  %1026 = load float, float* %35, align 4
  %1027 = load float, float* %34, align 4
  %1028 = fsub float %1026, %1027
  %1029 = load float, float* %28, align 4
  %1030 = fmul float %1028, %1029
  %1031 = fpext float %1030 to double
  %1032 = load float, float* %69, align 4
  %1033 = fpext float %1032 to double
  %1034 = fadd double %1033, 1.000000e-05
  %1035 = fdiv double %1031, %1034
  %1036 = fadd double %1025, %1035
  %1037 = fptrunc double %1036 to float
  %1038 = getelementptr inbounds [2 x float], [2 x float]* %31, i64 0, i64 1
  store float %1037, float* %1038, align 4
  br label %1057

; <label>:1039:                                   ; preds = %1016
  %1040 = bitcast float* %70 to i8*
  call void @llvm.var.annotation(i8* %1040, i8* getelementptr inbounds ([39 x i8], [39 x i8]* @.str.12, i32 0, i32 0), i8* getelementptr inbounds ([15 x i8], [15 x i8]* @.str.1, i32 0, i32 0), i32 340)
  %1041 = load float, float* %66, align 4
  store float %1041, float* %70, align 4
  %1042 = load float, float* %34, align 4
  %1043 = fpext float %1042 to double
  %1044 = load float, float* %35, align 4
  %1045 = load float, float* %34, align 4
  %1046 = fsub float %1044, %1045
  %1047 = load float, float* %28, align 4
  %1048 = fmul float %1046, %1047
  %1049 = fpext float %1048 to double
  %1050 = load float, float* %70, align 4
  %1051 = fpext float %1050 to double
  %1052 = fadd double %1051, 1.000000e-05
  %1053 = fdiv double %1049, %1052
  %1054 = fadd double %1043, %1053
  %1055 = fptrunc double %1054 to float
  %1056 = getelementptr inbounds [2 x float], [2 x float]* %31, i64 0, i64 1
  store float %1055, float* %1056, align 4
  br label %Flow2

; <label>:1057:                                   ; preds = %1021, %Flow2
  br label %Flow45

Flow41:                                           ; preds = %Flow46, %863
  %1058 = phi i1 [ %867, %Flow46 ], [ false, %863 ]
  %1059 = phi i1 [ false, %Flow46 ], [ true, %863 ]
  br label %Flow40

; <label>:1060:                                   ; preds = %962
  %1061 = load float, float* %29, align 4
  %1062 = fcmp une float %1061, 0.000000e+00
  %1063 = xor i1 %1062, true
  br i1 %1063, label %1159, label %Flow43

Flow43:                                           ; preds = %1159, %1060
  %1064 = phi i1 [ false, %1159 ], [ true, %1060 ]
  br i1 %1064, label %1065, label %Flow44

; <label>:1065:                                   ; preds = %Flow43
  %1066 = bitcast float* %71 to i8*
  call void @llvm.var.annotation(i8* %1066, i8* getelementptr inbounds ([9 x i8], [9 x i8]* @.str, i32 0, i32 0), i8* getelementptr inbounds ([15 x i8], [15 x i8]* @.str.1, i32 0, i32 0), i32 340)
  %1067 = load float, float* %29, align 4
  %1068 = load float, float* %27, align 4
  %1069 = fsub float %1067, %1068
  store float %1069, float* %71, align 4
  %1070 = bitcast float* %72 to i8*
  call void @llvm.var.annotation(i8* %1070, i8* getelementptr inbounds ([9 x i8], [9 x i8]* @.str, i32 0, i32 0), i8* getelementptr inbounds ([15 x i8], [15 x i8]* @.str.1, i32 0, i32 0), i32 340)
  %1071 = load float, float* %29, align 4
  %1072 = load float, float* %28, align 4
  %1073 = fsub float %1071, %1072
  store float %1073, float* %72, align 4
  %1074 = load float, float* %71, align 4
  %1075 = fcmp oge float %1074, 0.000000e+00
  %1076 = xor i1 %1075, true
  br i1 %1076, label %1096, label %Flow1

Flow1:                                            ; preds = %1096, %1065
  %1077 = phi i1 [ false, %1096 ], [ true, %1065 ]
  br i1 %1077, label %1078, label %1115

; <label>:1078:                                   ; preds = %Flow1
  %1079 = bitcast float* %73 to i8*
  call void @llvm.var.annotation(i8* %1079, i8* getelementptr inbounds ([37 x i8], [37 x i8]* @.str.11, i32 0, i32 0), i8* getelementptr inbounds ([15 x i8], [15 x i8]* @.str.1, i32 0, i32 0), i32 340)
  %1080 = load float, float* %71, align 4
  store float %1080, float* %73, align 4
  %1081 = load float, float* %35, align 4
  %1082 = fpext float %1081 to double
  %1083 = load float, float* %33, align 4
  %1084 = load float, float* %35, align 4
  %1085 = fsub float %1083, %1084
  %1086 = load float, float* %29, align 4
  %1087 = fmul float %1085, %1086
  %1088 = fpext float %1087 to double
  %1089 = load float, float* %73, align 4
  %1090 = fpext float %1089 to double
  %1091 = fadd double %1090, 1.000000e-05
  %1092 = fdiv double %1088, %1091
  %1093 = fadd double %1082, %1092
  %1094 = fptrunc double %1093 to float
  %1095 = getelementptr inbounds [2 x float], [2 x float]* %31, i64 0, i64 0
  store float %1094, float* %1095, align 4
  br label %1115

; <label>:1096:                                   ; preds = %1065
  %1097 = bitcast float* %74 to i8*
  call void @llvm.var.annotation(i8* %1097, i8* getelementptr inbounds ([39 x i8], [39 x i8]* @.str.12, i32 0, i32 0), i8* getelementptr inbounds ([15 x i8], [15 x i8]* @.str.1, i32 0, i32 0), i32 340)
  %1098 = load float, float* %71, align 4
  store float %1098, float* %74, align 4
  %1099 = load float, float* %35, align 4
  %1100 = fpext float %1099 to double
  %1101 = load float, float* %33, align 4
  %1102 = load float, float* %35, align 4
  %1103 = fsub float %1101, %1102
  %1104 = load float, float* %29, align 4
  %1105 = fmul float %1103, %1104
  %1106 = fpext float %1105 to double
  %1107 = load float, float* %74, align 4
  %1108 = fpext float %1107 to double
  %1109 = fadd double %1108, 1.000000e-05
  %1110 = fdiv double %1106, %1109
  %1111 = fadd double %1100, %1110
  %1112 = fptrunc double %1111 to float
  %1113 = getelementptr inbounds [2 x float], [2 x float]* %31, i64 0, i64 0
  store float %1112, float* %1113, align 4
  br label %Flow1

Flow44:                                           ; preds = %1168, %Flow43
  %1114 = phi i1 [ true, %1168 ], [ false, %Flow43 ]
  br label %Flow42

; <label>:1115:                                   ; preds = %1078, %Flow1
  %1116 = load float, float* %72, align 4
  %1117 = fcmp oge float %1116, 0.000000e+00
  %1118 = xor i1 %1117, true
  br i1 %1118, label %1138, label %Flow

Flow:                                             ; preds = %1138, %1115
  %1119 = phi i1 [ false, %1138 ], [ true, %1115 ]
  br i1 %1119, label %1120, label %1156

; <label>:1120:                                   ; preds = %Flow
  %1121 = bitcast float* %75 to i8*
  call void @llvm.var.annotation(i8* %1121, i8* getelementptr inbounds ([37 x i8], [37 x i8]* @.str.11, i32 0, i32 0), i8* getelementptr inbounds ([15 x i8], [15 x i8]* @.str.1, i32 0, i32 0), i32 340)
  %1122 = load float, float* %72, align 4
  store float %1122, float* %75, align 4
  %1123 = load float, float* %35, align 4
  %1124 = fpext float %1123 to double
  %1125 = load float, float* %34, align 4
  %1126 = load float, float* %35, align 4
  %1127 = fsub float %1125, %1126
  %1128 = load float, float* %29, align 4
  %1129 = fmul float %1127, %1128
  %1130 = fpext float %1129 to double
  %1131 = load float, float* %75, align 4
  %1132 = fpext float %1131 to double
  %1133 = fadd double %1132, 1.000000e-05
  %1134 = fdiv double %1130, %1133
  %1135 = fadd double %1124, %1134
  %1136 = fptrunc double %1135 to float
  %1137 = getelementptr inbounds [2 x float], [2 x float]* %31, i64 0, i64 1
  store float %1136, float* %1137, align 4
  br label %1156

; <label>:1138:                                   ; preds = %1115
  %1139 = bitcast float* %76 to i8*
  call void @llvm.var.annotation(i8* %1139, i8* getelementptr inbounds ([39 x i8], [39 x i8]* @.str.12, i32 0, i32 0), i8* getelementptr inbounds ([15 x i8], [15 x i8]* @.str.1, i32 0, i32 0), i32 340)
  %1140 = load float, float* %72, align 4
  store float %1140, float* %76, align 4
  %1141 = load float, float* %35, align 4
  %1142 = fpext float %1141 to double
  %1143 = load float, float* %34, align 4
  %1144 = load float, float* %35, align 4
  %1145 = fsub float %1143, %1144
  %1146 = load float, float* %29, align 4
  %1147 = fmul float %1145, %1146
  %1148 = fpext float %1147 to double
  %1149 = load float, float* %76, align 4
  %1150 = fpext float %1149 to double
  %1151 = fadd double %1150, 1.000000e-05
  %1152 = fdiv double %1148, %1151
  %1153 = fadd double %1142, %1152
  %1154 = fptrunc double %1153 to float
  %1155 = getelementptr inbounds [2 x float], [2 x float]* %31, i64 0, i64 1
  store float %1154, float* %1155, align 4
  br label %Flow

; <label>:1156:                                   ; preds = %1120, %Flow
  br label %1168

Flow42:                                           ; preds = %Flow44, %962
  %1157 = phi i1 [ %1114, %Flow44 ], [ false, %962 ]
  %1158 = phi i1 [ false, %Flow44 ], [ true, %962 ]
  br i1 %1158, label %966, label %Flow45

; <label>:1159:                                   ; preds = %1060
  %1160 = getelementptr inbounds [3 x float], [3 x float]* %20, i32 0, i32 0
  %1161 = load float*, float** %10, align 8
  %1162 = load float*, float** %11, align 8
  %1163 = load float*, float** %12, align 8
  %1164 = load float*, float** %13, align 8
  %1165 = load float*, float** %14, align 8
  %1166 = load float*, float** %15, align 8
  %1167 = call i32 @_Z16coplanar_tri_triPfS_S_S_S_S_S_(float* %1160, float* %1161, float* %1162, float* %1163, float* %1164, float* %1165, float* %1166)
  store i32 %1167, i32* %9, align 4
  br label %Flow43

; <label>:1168:                                   ; preds = %1156
  br label %Flow44

; <label>:1169:                                   ; preds = %Flow45
  br label %Flow46

; <label>:1170:                                   ; preds = %Flow47
  br label %Flow48

; <label>:1171:                                   ; preds = %Flow49
  br label %Flow50

; <label>:1172:                                   ; preds = %Flow51
  %1173 = load i32*, i32** %17, align 8
  store i32 3, i32* %1173, align 4
  %1174 = load float, float* %42, align 4
  %1175 = fcmp ogt float %1174, 0.000000e+00
  %1176 = xor i1 %1175, true
  br i1 %1176, label %1270, label %Flow21

Flow33:                                           ; preds = %1685, %Flow32
  %1177 = phi i1 [ true, %1685 ], [ false, %Flow32 ]
  br label %Flow21

; <label>:1178:                                   ; preds = %Flow21
  %1179 = bitcast float* %77 to i8*
  call void @llvm.var.annotation(i8* %1179, i8* getelementptr inbounds ([9 x i8], [9 x i8]* @.str, i32 0, i32 0), i8* getelementptr inbounds ([15 x i8], [15 x i8]* @.str.1, i32 0, i32 0), i32 344)
  %1180 = load float, float* %26, align 4
  %1181 = load float, float* %24, align 4
  %1182 = fsub float %1180, %1181
  store float %1182, float* %77, align 4
  %1183 = bitcast float* %78 to i8*
  call void @llvm.var.annotation(i8* %1183, i8* getelementptr inbounds ([9 x i8], [9 x i8]* @.str, i32 0, i32 0), i8* getelementptr inbounds ([15 x i8], [15 x i8]* @.str.1, i32 0, i32 0), i32 344)
  %1184 = load float, float* %26, align 4
  %1185 = load float, float* %25, align 4
  %1186 = fsub float %1184, %1185
  store float %1186, float* %78, align 4
  %1187 = load float, float* %77, align 4
  %1188 = fcmp oge float %1187, 0.000000e+00
  %1189 = xor i1 %1188, true
  br i1 %1189, label %1209, label %Flow20

Flow20:                                           ; preds = %1209, %1178
  %1190 = phi i1 [ false, %1209 ], [ true, %1178 ]
  br i1 %1190, label %1191, label %1228

; <label>:1191:                                   ; preds = %Flow20
  %1192 = bitcast float* %79 to i8*
  call void @llvm.var.annotation(i8* %1192, i8* getelementptr inbounds ([37 x i8], [37 x i8]* @.str.11, i32 0, i32 0), i8* getelementptr inbounds ([15 x i8], [15 x i8]* @.str.1, i32 0, i32 0), i32 344)
  %1193 = load float, float* %77, align 4
  store float %1193, float* %79, align 4
  %1194 = load float, float* %38, align 4
  %1195 = fpext float %1194 to double
  %1196 = load float, float* %36, align 4
  %1197 = load float, float* %38, align 4
  %1198 = fsub float %1196, %1197
  %1199 = load float, float* %26, align 4
  %1200 = fmul float %1198, %1199
  %1201 = fpext float %1200 to double
  %1202 = load float, float* %79, align 4
  %1203 = fpext float %1202 to double
  %1204 = fadd double %1203, 1.000000e-05
  %1205 = fdiv double %1201, %1204
  %1206 = fadd double %1195, %1205
  %1207 = fptrunc double %1206 to float
  %1208 = getelementptr inbounds [2 x float], [2 x float]* %32, i64 0, i64 0
  store float %1207, float* %1208, align 4
  br label %1228

; <label>:1209:                                   ; preds = %1178
  %1210 = bitcast float* %80 to i8*
  call void @llvm.var.annotation(i8* %1210, i8* getelementptr inbounds ([39 x i8], [39 x i8]* @.str.12, i32 0, i32 0), i8* getelementptr inbounds ([15 x i8], [15 x i8]* @.str.1, i32 0, i32 0), i32 344)
  %1211 = load float, float* %77, align 4
  store float %1211, float* %80, align 4
  %1212 = load float, float* %38, align 4
  %1213 = fpext float %1212 to double
  %1214 = load float, float* %36, align 4
  %1215 = load float, float* %38, align 4
  %1216 = fsub float %1214, %1215
  %1217 = load float, float* %26, align 4
  %1218 = fmul float %1216, %1217
  %1219 = fpext float %1218 to double
  %1220 = load float, float* %80, align 4
  %1221 = fpext float %1220 to double
  %1222 = fadd double %1221, 1.000000e-05
  %1223 = fdiv double %1219, %1222
  %1224 = fadd double %1213, %1223
  %1225 = fptrunc double %1224 to float
  %1226 = getelementptr inbounds [2 x float], [2 x float]* %32, i64 0, i64 0
  store float %1225, float* %1226, align 4
  br label %Flow20

Flow34:                                           ; preds = %1269, %Flow21
  %1227 = phi i1 [ true, %1269 ], [ %1367, %Flow21 ]
  br i1 %1227, label %1686, label %Flow35

; <label>:1228:                                   ; preds = %1191, %Flow20
  %1229 = load float, float* %78, align 4
  %1230 = fcmp oge float %1229, 0.000000e+00
  %1231 = xor i1 %1230, true
  br i1 %1231, label %1251, label %Flow19

Flow19:                                           ; preds = %1251, %1228
  %1232 = phi i1 [ false, %1251 ], [ true, %1228 ]
  br i1 %1232, label %1233, label %1269

; <label>:1233:                                   ; preds = %Flow19
  %1234 = bitcast float* %81 to i8*
  call void @llvm.var.annotation(i8* %1234, i8* getelementptr inbounds ([37 x i8], [37 x i8]* @.str.11, i32 0, i32 0), i8* getelementptr inbounds ([15 x i8], [15 x i8]* @.str.1, i32 0, i32 0), i32 344)
  %1235 = load float, float* %78, align 4
  store float %1235, float* %81, align 4
  %1236 = load float, float* %38, align 4
  %1237 = fpext float %1236 to double
  %1238 = load float, float* %37, align 4
  %1239 = load float, float* %38, align 4
  %1240 = fsub float %1238, %1239
  %1241 = load float, float* %26, align 4
  %1242 = fmul float %1240, %1241
  %1243 = fpext float %1242 to double
  %1244 = load float, float* %81, align 4
  %1245 = fpext float %1244 to double
  %1246 = fadd double %1245, 1.000000e-05
  %1247 = fdiv double %1243, %1246
  %1248 = fadd double %1237, %1247
  %1249 = fptrunc double %1248 to float
  %1250 = getelementptr inbounds [2 x float], [2 x float]* %32, i64 0, i64 1
  store float %1249, float* %1250, align 4
  br label %1269

; <label>:1251:                                   ; preds = %1228
  %1252 = bitcast float* %82 to i8*
  call void @llvm.var.annotation(i8* %1252, i8* getelementptr inbounds ([39 x i8], [39 x i8]* @.str.12, i32 0, i32 0), i8* getelementptr inbounds ([15 x i8], [15 x i8]* @.str.1, i32 0, i32 0), i32 344)
  %1253 = load float, float* %78, align 4
  store float %1253, float* %82, align 4
  %1254 = load float, float* %38, align 4
  %1255 = fpext float %1254 to double
  %1256 = load float, float* %37, align 4
  %1257 = load float, float* %38, align 4
  %1258 = fsub float %1256, %1257
  %1259 = load float, float* %26, align 4
  %1260 = fmul float %1258, %1259
  %1261 = fpext float %1260 to double
  %1262 = load float, float* %82, align 4
  %1263 = fpext float %1262 to double
  %1264 = fadd double %1263, 1.000000e-05
  %1265 = fdiv double %1261, %1264
  %1266 = fadd double %1255, %1265
  %1267 = fptrunc double %1266 to float
  %1268 = getelementptr inbounds [2 x float], [2 x float]* %32, i64 0, i64 1
  store float %1267, float* %1268, align 4
  br label %Flow19

; <label>:1269:                                   ; preds = %1233, %Flow19
  br label %Flow34

; <label>:1270:                                   ; preds = %1172
  %1271 = load float, float* %43, align 4
  %1272 = fcmp ogt float %1271, 0.000000e+00
  %1273 = xor i1 %1272, true
  br i1 %1273, label %1369, label %Flow22

Flow31:                                           ; preds = %1684, %Flow30
  %1274 = phi i1 [ true, %1684 ], [ false, %Flow30 ]
  br label %Flow22

; <label>:1275:                                   ; preds = %Flow22
  %1276 = bitcast float* %83 to i8*
  call void @llvm.var.annotation(i8* %1276, i8* getelementptr inbounds ([9 x i8], [9 x i8]* @.str, i32 0, i32 0), i8* getelementptr inbounds ([15 x i8], [15 x i8]* @.str.1, i32 0, i32 0), i32 344)
  %1277 = load float, float* %25, align 4
  %1278 = load float, float* %24, align 4
  %1279 = fsub float %1277, %1278
  store float %1279, float* %83, align 4
  %1280 = bitcast float* %84 to i8*
  call void @llvm.var.annotation(i8* %1280, i8* getelementptr inbounds ([9 x i8], [9 x i8]* @.str, i32 0, i32 0), i8* getelementptr inbounds ([15 x i8], [15 x i8]* @.str.1, i32 0, i32 0), i32 344)
  %1281 = load float, float* %25, align 4
  %1282 = load float, float* %26, align 4
  %1283 = fsub float %1281, %1282
  store float %1283, float* %84, align 4
  %1284 = load float, float* %83, align 4
  %1285 = fcmp oge float %1284, 0.000000e+00
  %1286 = xor i1 %1285, true
  br i1 %1286, label %1306, label %Flow15

Flow15:                                           ; preds = %1306, %1275
  %1287 = phi i1 [ false, %1306 ], [ true, %1275 ]
  br i1 %1287, label %1288, label %1325

; <label>:1288:                                   ; preds = %Flow15
  %1289 = bitcast float* %85 to i8*
  call void @llvm.var.annotation(i8* %1289, i8* getelementptr inbounds ([37 x i8], [37 x i8]* @.str.11, i32 0, i32 0), i8* getelementptr inbounds ([15 x i8], [15 x i8]* @.str.1, i32 0, i32 0), i32 344)
  %1290 = load float, float* %83, align 4
  store float %1290, float* %85, align 4
  %1291 = load float, float* %37, align 4
  %1292 = fpext float %1291 to double
  %1293 = load float, float* %36, align 4
  %1294 = load float, float* %37, align 4
  %1295 = fsub float %1293, %1294
  %1296 = load float, float* %25, align 4
  %1297 = fmul float %1295, %1296
  %1298 = fpext float %1297 to double
  %1299 = load float, float* %85, align 4
  %1300 = fpext float %1299 to double
  %1301 = fadd double %1300, 1.000000e-05
  %1302 = fdiv double %1298, %1301
  %1303 = fadd double %1292, %1302
  %1304 = fptrunc double %1303 to float
  %1305 = getelementptr inbounds [2 x float], [2 x float]* %32, i64 0, i64 0
  store float %1304, float* %1305, align 4
  br label %1325

; <label>:1306:                                   ; preds = %1275
  %1307 = bitcast float* %86 to i8*
  call void @llvm.var.annotation(i8* %1307, i8* getelementptr inbounds ([39 x i8], [39 x i8]* @.str.12, i32 0, i32 0), i8* getelementptr inbounds ([15 x i8], [15 x i8]* @.str.1, i32 0, i32 0), i32 344)
  %1308 = load float, float* %83, align 4
  store float %1308, float* %86, align 4
  %1309 = load float, float* %37, align 4
  %1310 = fpext float %1309 to double
  %1311 = load float, float* %36, align 4
  %1312 = load float, float* %37, align 4
  %1313 = fsub float %1311, %1312
  %1314 = load float, float* %25, align 4
  %1315 = fmul float %1313, %1314
  %1316 = fpext float %1315 to double
  %1317 = load float, float* %86, align 4
  %1318 = fpext float %1317 to double
  %1319 = fadd double %1318, 1.000000e-05
  %1320 = fdiv double %1316, %1319
  %1321 = fadd double %1310, %1320
  %1322 = fptrunc double %1321 to float
  %1323 = getelementptr inbounds [2 x float], [2 x float]* %32, i64 0, i64 0
  store float %1322, float* %1323, align 4
  br label %Flow15

Flow32:                                           ; preds = %1366, %Flow22
  %1324 = phi i1 [ true, %1366 ], [ %1375, %Flow22 ]
  br i1 %1324, label %1685, label %Flow33

; <label>:1325:                                   ; preds = %1288, %Flow15
  %1326 = load float, float* %84, align 4
  %1327 = fcmp oge float %1326, 0.000000e+00
  %1328 = xor i1 %1327, true
  br i1 %1328, label %1348, label %Flow14

Flow14:                                           ; preds = %1348, %1325
  %1329 = phi i1 [ false, %1348 ], [ true, %1325 ]
  br i1 %1329, label %1330, label %1366

; <label>:1330:                                   ; preds = %Flow14
  %1331 = bitcast float* %87 to i8*
  call void @llvm.var.annotation(i8* %1331, i8* getelementptr inbounds ([37 x i8], [37 x i8]* @.str.11, i32 0, i32 0), i8* getelementptr inbounds ([15 x i8], [15 x i8]* @.str.1, i32 0, i32 0), i32 344)
  %1332 = load float, float* %84, align 4
  store float %1332, float* %87, align 4
  %1333 = load float, float* %37, align 4
  %1334 = fpext float %1333 to double
  %1335 = load float, float* %38, align 4
  %1336 = load float, float* %37, align 4
  %1337 = fsub float %1335, %1336
  %1338 = load float, float* %25, align 4
  %1339 = fmul float %1337, %1338
  %1340 = fpext float %1339 to double
  %1341 = load float, float* %87, align 4
  %1342 = fpext float %1341 to double
  %1343 = fadd double %1342, 1.000000e-05
  %1344 = fdiv double %1340, %1343
  %1345 = fadd double %1334, %1344
  %1346 = fptrunc double %1345 to float
  %1347 = getelementptr inbounds [2 x float], [2 x float]* %32, i64 0, i64 1
  store float %1346, float* %1347, align 4
  br label %1366

; <label>:1348:                                   ; preds = %1325
  %1349 = bitcast float* %88 to i8*
  call void @llvm.var.annotation(i8* %1349, i8* getelementptr inbounds ([39 x i8], [39 x i8]* @.str.12, i32 0, i32 0), i8* getelementptr inbounds ([15 x i8], [15 x i8]* @.str.1, i32 0, i32 0), i32 344)
  %1350 = load float, float* %84, align 4
  store float %1350, float* %88, align 4
  %1351 = load float, float* %37, align 4
  %1352 = fpext float %1351 to double
  %1353 = load float, float* %38, align 4
  %1354 = load float, float* %37, align 4
  %1355 = fsub float %1353, %1354
  %1356 = load float, float* %25, align 4
  %1357 = fmul float %1355, %1356
  %1358 = fpext float %1357 to double
  %1359 = load float, float* %88, align 4
  %1360 = fpext float %1359 to double
  %1361 = fadd double %1360, 1.000000e-05
  %1362 = fdiv double %1358, %1361
  %1363 = fadd double %1352, %1362
  %1364 = fptrunc double %1363 to float
  %1365 = getelementptr inbounds [2 x float], [2 x float]* %32, i64 0, i64 1
  store float %1364, float* %1365, align 4
  br label %Flow14

; <label>:1366:                                   ; preds = %1330, %Flow14
  br label %Flow32

Flow21:                                           ; preds = %Flow33, %1172
  %1367 = phi i1 [ %1177, %Flow33 ], [ false, %1172 ]
  %1368 = phi i1 [ false, %Flow33 ], [ true, %1172 ]
  br i1 %1368, label %1178, label %Flow34

; <label>:1369:                                   ; preds = %1270
  %1370 = load float, float* %25, align 4
  %1371 = load float, float* %26, align 4
  %1372 = fmul float %1370, %1371
  %1373 = fcmp ogt float %1372, 0.000000e+00
  %1374 = xor i1 %1373, true
  br i1 %1374, label %1377, label %Flow23

Flow22:                                           ; preds = %Flow31, %1270
  %1375 = phi i1 [ %1274, %Flow31 ], [ false, %1270 ]
  %1376 = phi i1 [ false, %Flow31 ], [ true, %1270 ]
  br i1 %1376, label %1275, label %Flow32

; <label>:1377:                                   ; preds = %1369
  %1378 = load float, float* %24, align 4
  %1379 = fcmp une float %1378, 0.000000e+00
  %1380 = xor i1 %1379, true
  br i1 %1380, label %1476, label %Flow24

Flow29:                                           ; preds = %1683, %Flow28
  %1381 = phi i1 [ true, %1683 ], [ false, %Flow28 ]
  br label %Flow24

; <label>:1382:                                   ; preds = %Flow23
  %1383 = bitcast float* %89 to i8*
  call void @llvm.var.annotation(i8* %1383, i8* getelementptr inbounds ([9 x i8], [9 x i8]* @.str, i32 0, i32 0), i8* getelementptr inbounds ([15 x i8], [15 x i8]* @.str.1, i32 0, i32 0), i32 344)
  %1384 = load float, float* %24, align 4
  %1385 = load float, float* %25, align 4
  %1386 = fsub float %1384, %1385
  store float %1386, float* %89, align 4
  %1387 = bitcast float* %90 to i8*
  call void @llvm.var.annotation(i8* %1387, i8* getelementptr inbounds ([9 x i8], [9 x i8]* @.str, i32 0, i32 0), i8* getelementptr inbounds ([15 x i8], [15 x i8]* @.str.1, i32 0, i32 0), i32 344)
  %1388 = load float, float* %24, align 4
  %1389 = load float, float* %26, align 4
  %1390 = fsub float %1388, %1389
  store float %1390, float* %90, align 4
  %1391 = load float, float* %89, align 4
  %1392 = fcmp oge float %1391, 0.000000e+00
  %1393 = xor i1 %1392, true
  br i1 %1393, label %1413, label %Flow13

Flow13:                                           ; preds = %1413, %1382
  %1394 = phi i1 [ false, %1413 ], [ true, %1382 ]
  br i1 %1394, label %1395, label %1432

; <label>:1395:                                   ; preds = %Flow13
  %1396 = bitcast float* %91 to i8*
  call void @llvm.var.annotation(i8* %1396, i8* getelementptr inbounds ([37 x i8], [37 x i8]* @.str.11, i32 0, i32 0), i8* getelementptr inbounds ([15 x i8], [15 x i8]* @.str.1, i32 0, i32 0), i32 344)
  %1397 = load float, float* %89, align 4
  store float %1397, float* %91, align 4
  %1398 = load float, float* %36, align 4
  %1399 = fpext float %1398 to double
  %1400 = load float, float* %37, align 4
  %1401 = load float, float* %36, align 4
  %1402 = fsub float %1400, %1401
  %1403 = load float, float* %24, align 4
  %1404 = fmul float %1402, %1403
  %1405 = fpext float %1404 to double
  %1406 = load float, float* %91, align 4
  %1407 = fpext float %1406 to double
  %1408 = fadd double %1407, 1.000000e-05
  %1409 = fdiv double %1405, %1408
  %1410 = fadd double %1399, %1409
  %1411 = fptrunc double %1410 to float
  %1412 = getelementptr inbounds [2 x float], [2 x float]* %32, i64 0, i64 0
  store float %1411, float* %1412, align 4
  br label %1432

; <label>:1413:                                   ; preds = %1382
  %1414 = bitcast float* %92 to i8*
  call void @llvm.var.annotation(i8* %1414, i8* getelementptr inbounds ([39 x i8], [39 x i8]* @.str.12, i32 0, i32 0), i8* getelementptr inbounds ([15 x i8], [15 x i8]* @.str.1, i32 0, i32 0), i32 344)
  %1415 = load float, float* %89, align 4
  store float %1415, float* %92, align 4
  %1416 = load float, float* %36, align 4
  %1417 = fpext float %1416 to double
  %1418 = load float, float* %37, align 4
  %1419 = load float, float* %36, align 4
  %1420 = fsub float %1418, %1419
  %1421 = load float, float* %24, align 4
  %1422 = fmul float %1420, %1421
  %1423 = fpext float %1422 to double
  %1424 = load float, float* %92, align 4
  %1425 = fpext float %1424 to double
  %1426 = fadd double %1425, 1.000000e-05
  %1427 = fdiv double %1423, %1426
  %1428 = fadd double %1417, %1427
  %1429 = fptrunc double %1428 to float
  %1430 = getelementptr inbounds [2 x float], [2 x float]* %32, i64 0, i64 0
  store float %1429, float* %1430, align 4
  br label %Flow13

Flow30:                                           ; preds = %1473, %Flow23
  %1431 = phi i1 [ true, %1473 ], [ %1474, %Flow23 ]
  br i1 %1431, label %1684, label %Flow31

; <label>:1432:                                   ; preds = %1395, %Flow13
  %1433 = load float, float* %90, align 4
  %1434 = fcmp oge float %1433, 0.000000e+00
  %1435 = xor i1 %1434, true
  br i1 %1435, label %1455, label %Flow12

Flow12:                                           ; preds = %1455, %1432
  %1436 = phi i1 [ false, %1455 ], [ true, %1432 ]
  br i1 %1436, label %1437, label %1473

; <label>:1437:                                   ; preds = %Flow12
  %1438 = bitcast float* %93 to i8*
  call void @llvm.var.annotation(i8* %1438, i8* getelementptr inbounds ([37 x i8], [37 x i8]* @.str.11, i32 0, i32 0), i8* getelementptr inbounds ([15 x i8], [15 x i8]* @.str.1, i32 0, i32 0), i32 344)
  %1439 = load float, float* %90, align 4
  store float %1439, float* %93, align 4
  %1440 = load float, float* %36, align 4
  %1441 = fpext float %1440 to double
  %1442 = load float, float* %38, align 4
  %1443 = load float, float* %36, align 4
  %1444 = fsub float %1442, %1443
  %1445 = load float, float* %24, align 4
  %1446 = fmul float %1444, %1445
  %1447 = fpext float %1446 to double
  %1448 = load float, float* %93, align 4
  %1449 = fpext float %1448 to double
  %1450 = fadd double %1449, 1.000000e-05
  %1451 = fdiv double %1447, %1450
  %1452 = fadd double %1441, %1451
  %1453 = fptrunc double %1452 to float
  %1454 = getelementptr inbounds [2 x float], [2 x float]* %32, i64 0, i64 1
  store float %1453, float* %1454, align 4
  br label %1473

; <label>:1455:                                   ; preds = %1432
  %1456 = bitcast float* %94 to i8*
  call void @llvm.var.annotation(i8* %1456, i8* getelementptr inbounds ([39 x i8], [39 x i8]* @.str.12, i32 0, i32 0), i8* getelementptr inbounds ([15 x i8], [15 x i8]* @.str.1, i32 0, i32 0), i32 344)
  %1457 = load float, float* %90, align 4
  store float %1457, float* %94, align 4
  %1458 = load float, float* %36, align 4
  %1459 = fpext float %1458 to double
  %1460 = load float, float* %38, align 4
  %1461 = load float, float* %36, align 4
  %1462 = fsub float %1460, %1461
  %1463 = load float, float* %24, align 4
  %1464 = fmul float %1462, %1463
  %1465 = fpext float %1464 to double
  %1466 = load float, float* %94, align 4
  %1467 = fpext float %1466 to double
  %1468 = fadd double %1467, 1.000000e-05
  %1469 = fdiv double %1465, %1468
  %1470 = fadd double %1459, %1469
  %1471 = fptrunc double %1470 to float
  %1472 = getelementptr inbounds [2 x float], [2 x float]* %32, i64 0, i64 1
  store float %1471, float* %1472, align 4
  br label %Flow12

; <label>:1473:                                   ; preds = %1437, %Flow12
  br label %Flow30

Flow23:                                           ; preds = %Flow24, %1369
  %1474 = phi i1 [ %1572, %Flow24 ], [ false, %1369 ]
  %1475 = phi i1 [ %1573, %Flow24 ], [ %1373, %1369 ]
  br i1 %1475, label %1382, label %Flow30

; <label>:1476:                                   ; preds = %1377
  %1477 = load float, float* %25, align 4
  %1478 = fcmp une float %1477, 0.000000e+00
  %1479 = xor i1 %1478, true
  br i1 %1479, label %1574, label %Flow25

; <label>:1480:                                   ; preds = %Flow25
  %1481 = bitcast float* %95 to i8*
  call void @llvm.var.annotation(i8* %1481, i8* getelementptr inbounds ([9 x i8], [9 x i8]* @.str, i32 0, i32 0), i8* getelementptr inbounds ([15 x i8], [15 x i8]* @.str.1, i32 0, i32 0), i32 344)
  %1482 = load float, float* %25, align 4
  %1483 = load float, float* %24, align 4
  %1484 = fsub float %1482, %1483
  store float %1484, float* %95, align 4
  %1485 = bitcast float* %96 to i8*
  call void @llvm.var.annotation(i8* %1485, i8* getelementptr inbounds ([9 x i8], [9 x i8]* @.str, i32 0, i32 0), i8* getelementptr inbounds ([15 x i8], [15 x i8]* @.str.1, i32 0, i32 0), i32 344)
  %1486 = load float, float* %25, align 4
  %1487 = load float, float* %26, align 4
  %1488 = fsub float %1486, %1487
  store float %1488, float* %96, align 4
  %1489 = load float, float* %95, align 4
  %1490 = fcmp oge float %1489, 0.000000e+00
  %1491 = xor i1 %1490, true
  br i1 %1491, label %1511, label %Flow11

Flow11:                                           ; preds = %1511, %1480
  %1492 = phi i1 [ false, %1511 ], [ true, %1480 ]
  br i1 %1492, label %1493, label %1530

; <label>:1493:                                   ; preds = %Flow11
  %1494 = bitcast float* %97 to i8*
  call void @llvm.var.annotation(i8* %1494, i8* getelementptr inbounds ([37 x i8], [37 x i8]* @.str.11, i32 0, i32 0), i8* getelementptr inbounds ([15 x i8], [15 x i8]* @.str.1, i32 0, i32 0), i32 344)
  %1495 = load float, float* %95, align 4
  store float %1495, float* %97, align 4
  %1496 = load float, float* %37, align 4
  %1497 = fpext float %1496 to double
  %1498 = load float, float* %36, align 4
  %1499 = load float, float* %37, align 4
  %1500 = fsub float %1498, %1499
  %1501 = load float, float* %25, align 4
  %1502 = fmul float %1500, %1501
  %1503 = fpext float %1502 to double
  %1504 = load float, float* %97, align 4
  %1505 = fpext float %1504 to double
  %1506 = fadd double %1505, 1.000000e-05
  %1507 = fdiv double %1503, %1506
  %1508 = fadd double %1497, %1507
  %1509 = fptrunc double %1508 to float
  %1510 = getelementptr inbounds [2 x float], [2 x float]* %32, i64 0, i64 0
  store float %1509, float* %1510, align 4
  br label %1530

; <label>:1511:                                   ; preds = %1480
  %1512 = bitcast float* %98 to i8*
  call void @llvm.var.annotation(i8* %1512, i8* getelementptr inbounds ([39 x i8], [39 x i8]* @.str.12, i32 0, i32 0), i8* getelementptr inbounds ([15 x i8], [15 x i8]* @.str.1, i32 0, i32 0), i32 344)
  %1513 = load float, float* %95, align 4
  store float %1513, float* %98, align 4
  %1514 = load float, float* %37, align 4
  %1515 = fpext float %1514 to double
  %1516 = load float, float* %36, align 4
  %1517 = load float, float* %37, align 4
  %1518 = fsub float %1516, %1517
  %1519 = load float, float* %25, align 4
  %1520 = fmul float %1518, %1519
  %1521 = fpext float %1520 to double
  %1522 = load float, float* %98, align 4
  %1523 = fpext float %1522 to double
  %1524 = fadd double %1523, 1.000000e-05
  %1525 = fdiv double %1521, %1524
  %1526 = fadd double %1515, %1525
  %1527 = fptrunc double %1526 to float
  %1528 = getelementptr inbounds [2 x float], [2 x float]* %32, i64 0, i64 0
  store float %1527, float* %1528, align 4
  br label %Flow11

Flow28:                                           ; preds = %1571, %Flow25
  %1529 = phi i1 [ true, %1571 ], [ %1671, %Flow25 ]
  br i1 %1529, label %1683, label %Flow29

; <label>:1530:                                   ; preds = %1493, %Flow11
  %1531 = load float, float* %96, align 4
  %1532 = fcmp oge float %1531, 0.000000e+00
  %1533 = xor i1 %1532, true
  br i1 %1533, label %1553, label %Flow10

Flow10:                                           ; preds = %1553, %1530
  %1534 = phi i1 [ false, %1553 ], [ true, %1530 ]
  br i1 %1534, label %1535, label %1571

; <label>:1535:                                   ; preds = %Flow10
  %1536 = bitcast float* %99 to i8*
  call void @llvm.var.annotation(i8* %1536, i8* getelementptr inbounds ([37 x i8], [37 x i8]* @.str.11, i32 0, i32 0), i8* getelementptr inbounds ([15 x i8], [15 x i8]* @.str.1, i32 0, i32 0), i32 344)
  %1537 = load float, float* %96, align 4
  store float %1537, float* %99, align 4
  %1538 = load float, float* %37, align 4
  %1539 = fpext float %1538 to double
  %1540 = load float, float* %38, align 4
  %1541 = load float, float* %37, align 4
  %1542 = fsub float %1540, %1541
  %1543 = load float, float* %25, align 4
  %1544 = fmul float %1542, %1543
  %1545 = fpext float %1544 to double
  %1546 = load float, float* %99, align 4
  %1547 = fpext float %1546 to double
  %1548 = fadd double %1547, 1.000000e-05
  %1549 = fdiv double %1545, %1548
  %1550 = fadd double %1539, %1549
  %1551 = fptrunc double %1550 to float
  %1552 = getelementptr inbounds [2 x float], [2 x float]* %32, i64 0, i64 1
  store float %1551, float* %1552, align 4
  br label %1571

; <label>:1553:                                   ; preds = %1530
  %1554 = bitcast float* %100 to i8*
  call void @llvm.var.annotation(i8* %1554, i8* getelementptr inbounds ([39 x i8], [39 x i8]* @.str.12, i32 0, i32 0), i8* getelementptr inbounds ([15 x i8], [15 x i8]* @.str.1, i32 0, i32 0), i32 344)
  %1555 = load float, float* %96, align 4
  store float %1555, float* %100, align 4
  %1556 = load float, float* %37, align 4
  %1557 = fpext float %1556 to double
  %1558 = load float, float* %38, align 4
  %1559 = load float, float* %37, align 4
  %1560 = fsub float %1558, %1559
  %1561 = load float, float* %25, align 4
  %1562 = fmul float %1560, %1561
  %1563 = fpext float %1562 to double
  %1564 = load float, float* %100, align 4
  %1565 = fpext float %1564 to double
  %1566 = fadd double %1565, 1.000000e-05
  %1567 = fdiv double %1563, %1566
  %1568 = fadd double %1557, %1567
  %1569 = fptrunc double %1568 to float
  %1570 = getelementptr inbounds [2 x float], [2 x float]* %32, i64 0, i64 1
  store float %1569, float* %1570, align 4
  br label %Flow10

; <label>:1571:                                   ; preds = %1535, %Flow10
  br label %Flow28

Flow24:                                           ; preds = %Flow29, %1377
  %1572 = phi i1 [ %1381, %Flow29 ], [ false, %1377 ]
  %1573 = phi i1 [ false, %Flow29 ], [ true, %1377 ]
  br label %Flow23

; <label>:1574:                                   ; preds = %1476
  %1575 = load float, float* %26, align 4
  %1576 = fcmp une float %1575, 0.000000e+00
  %1577 = xor i1 %1576, true
  br i1 %1577, label %1673, label %Flow26

Flow26:                                           ; preds = %1673, %1574
  %1578 = phi i1 [ false, %1673 ], [ true, %1574 ]
  br i1 %1578, label %1579, label %Flow27

; <label>:1579:                                   ; preds = %Flow26
  %1580 = bitcast float* %101 to i8*
  call void @llvm.var.annotation(i8* %1580, i8* getelementptr inbounds ([9 x i8], [9 x i8]* @.str, i32 0, i32 0), i8* getelementptr inbounds ([15 x i8], [15 x i8]* @.str.1, i32 0, i32 0), i32 344)
  %1581 = load float, float* %26, align 4
  %1582 = load float, float* %24, align 4
  %1583 = fsub float %1581, %1582
  store float %1583, float* %101, align 4
  %1584 = bitcast float* %102 to i8*
  call void @llvm.var.annotation(i8* %1584, i8* getelementptr inbounds ([9 x i8], [9 x i8]* @.str, i32 0, i32 0), i8* getelementptr inbounds ([15 x i8], [15 x i8]* @.str.1, i32 0, i32 0), i32 344)
  %1585 = load float, float* %26, align 4
  %1586 = load float, float* %25, align 4
  %1587 = fsub float %1585, %1586
  store float %1587, float* %102, align 4
  %1588 = load float, float* %101, align 4
  %1589 = fcmp oge float %1588, 0.000000e+00
  %1590 = xor i1 %1589, true
  br i1 %1590, label %1610, label %Flow9

Flow9:                                            ; preds = %1610, %1579
  %1591 = phi i1 [ false, %1610 ], [ true, %1579 ]
  br i1 %1591, label %1592, label %1629

; <label>:1592:                                   ; preds = %Flow9
  %1593 = bitcast float* %103 to i8*
  call void @llvm.var.annotation(i8* %1593, i8* getelementptr inbounds ([37 x i8], [37 x i8]* @.str.11, i32 0, i32 0), i8* getelementptr inbounds ([15 x i8], [15 x i8]* @.str.1, i32 0, i32 0), i32 344)
  %1594 = load float, float* %101, align 4
  store float %1594, float* %103, align 4
  %1595 = load float, float* %38, align 4
  %1596 = fpext float %1595 to double
  %1597 = load float, float* %36, align 4
  %1598 = load float, float* %38, align 4
  %1599 = fsub float %1597, %1598
  %1600 = load float, float* %26, align 4
  %1601 = fmul float %1599, %1600
  %1602 = fpext float %1601 to double
  %1603 = load float, float* %103, align 4
  %1604 = fpext float %1603 to double
  %1605 = fadd double %1604, 1.000000e-05
  %1606 = fdiv double %1602, %1605
  %1607 = fadd double %1596, %1606
  %1608 = fptrunc double %1607 to float
  %1609 = getelementptr inbounds [2 x float], [2 x float]* %32, i64 0, i64 0
  store float %1608, float* %1609, align 4
  br label %1629

; <label>:1610:                                   ; preds = %1579
  %1611 = bitcast float* %104 to i8*
  call void @llvm.var.annotation(i8* %1611, i8* getelementptr inbounds ([39 x i8], [39 x i8]* @.str.12, i32 0, i32 0), i8* getelementptr inbounds ([15 x i8], [15 x i8]* @.str.1, i32 0, i32 0), i32 344)
  %1612 = load float, float* %101, align 4
  store float %1612, float* %104, align 4
  %1613 = load float, float* %38, align 4
  %1614 = fpext float %1613 to double
  %1615 = load float, float* %36, align 4
  %1616 = load float, float* %38, align 4
  %1617 = fsub float %1615, %1616
  %1618 = load float, float* %26, align 4
  %1619 = fmul float %1617, %1618
  %1620 = fpext float %1619 to double
  %1621 = load float, float* %104, align 4
  %1622 = fpext float %1621 to double
  %1623 = fadd double %1622, 1.000000e-05
  %1624 = fdiv double %1620, %1623
  %1625 = fadd double %1614, %1624
  %1626 = fptrunc double %1625 to float
  %1627 = getelementptr inbounds [2 x float], [2 x float]* %32, i64 0, i64 0
  store float %1626, float* %1627, align 4
  br label %Flow9

Flow27:                                           ; preds = %1682, %Flow26
  %1628 = phi i1 [ true, %1682 ], [ false, %Flow26 ]
  br label %Flow25

; <label>:1629:                                   ; preds = %1592, %Flow9
  %1630 = load float, float* %102, align 4
  %1631 = fcmp oge float %1630, 0.000000e+00
  %1632 = xor i1 %1631, true
  br i1 %1632, label %1652, label %Flow8

Flow8:                                            ; preds = %1652, %1629
  %1633 = phi i1 [ false, %1652 ], [ true, %1629 ]
  br i1 %1633, label %1634, label %1670

; <label>:1634:                                   ; preds = %Flow8
  %1635 = bitcast float* %105 to i8*
  call void @llvm.var.annotation(i8* %1635, i8* getelementptr inbounds ([37 x i8], [37 x i8]* @.str.11, i32 0, i32 0), i8* getelementptr inbounds ([15 x i8], [15 x i8]* @.str.1, i32 0, i32 0), i32 344)
  %1636 = load float, float* %102, align 4
  store float %1636, float* %105, align 4
  %1637 = load float, float* %38, align 4
  %1638 = fpext float %1637 to double
  %1639 = load float, float* %37, align 4
  %1640 = load float, float* %38, align 4
  %1641 = fsub float %1639, %1640
  %1642 = load float, float* %26, align 4
  %1643 = fmul float %1641, %1642
  %1644 = fpext float %1643 to double
  %1645 = load float, float* %105, align 4
  %1646 = fpext float %1645 to double
  %1647 = fadd double %1646, 1.000000e-05
  %1648 = fdiv double %1644, %1647
  %1649 = fadd double %1638, %1648
  %1650 = fptrunc double %1649 to float
  %1651 = getelementptr inbounds [2 x float], [2 x float]* %32, i64 0, i64 1
  store float %1650, float* %1651, align 4
  br label %1670

; <label>:1652:                                   ; preds = %1629
  %1653 = bitcast float* %106 to i8*
  call void @llvm.var.annotation(i8* %1653, i8* getelementptr inbounds ([39 x i8], [39 x i8]* @.str.12, i32 0, i32 0), i8* getelementptr inbounds ([15 x i8], [15 x i8]* @.str.1, i32 0, i32 0), i32 344)
  %1654 = load float, float* %102, align 4
  store float %1654, float* %106, align 4
  %1655 = load float, float* %38, align 4
  %1656 = fpext float %1655 to double
  %1657 = load float, float* %37, align 4
  %1658 = load float, float* %38, align 4
  %1659 = fsub float %1657, %1658
  %1660 = load float, float* %26, align 4
  %1661 = fmul float %1659, %1660
  %1662 = fpext float %1661 to double
  %1663 = load float, float* %106, align 4
  %1664 = fpext float %1663 to double
  %1665 = fadd double %1664, 1.000000e-05
  %1666 = fdiv double %1662, %1665
  %1667 = fadd double %1656, %1666
  %1668 = fptrunc double %1667 to float
  %1669 = getelementptr inbounds [2 x float], [2 x float]* %32, i64 0, i64 1
  store float %1668, float* %1669, align 4
  br label %Flow8

; <label>:1670:                                   ; preds = %1634, %Flow8
  br label %1682

Flow25:                                           ; preds = %Flow27, %1476
  %1671 = phi i1 [ %1628, %Flow27 ], [ false, %1476 ]
  %1672 = phi i1 [ false, %Flow27 ], [ true, %1476 ]
  br i1 %1672, label %1480, label %Flow28

; <label>:1673:                                   ; preds = %1574
  %1674 = getelementptr inbounds [3 x float], [3 x float]* %20, i32 0, i32 0
  %1675 = load float*, float** %10, align 8
  %1676 = load float*, float** %11, align 8
  %1677 = load float*, float** %12, align 8
  %1678 = load float*, float** %13, align 8
  %1679 = load float*, float** %14, align 8
  %1680 = load float*, float** %15, align 8
  %1681 = call i32 @_Z16coplanar_tri_triPfS_S_S_S_S_S_(float* %1674, float* %1675, float* %1676, float* %1677, float* %1678, float* %1679, float* %1680)
  store i32 %1681, i32* %9, align 4
  br label %Flow26

; <label>:1682:                                   ; preds = %1670
  br label %Flow27

; <label>:1683:                                   ; preds = %Flow28
  br label %Flow29

; <label>:1684:                                   ; preds = %Flow30
  br label %Flow31

; <label>:1685:                                   ; preds = %Flow32
  br label %Flow33

; <label>:1686:                                   ; preds = %Flow34
  %1687 = getelementptr inbounds [2 x float], [2 x float]* %31, i64 0, i64 0
  %1688 = load float, float* %1687, align 4
  %1689 = getelementptr inbounds [2 x float], [2 x float]* %31, i64 0, i64 1
  %1690 = load float, float* %1689, align 4
  %1691 = fcmp ogt float %1688, %1690
  br i1 %1691, label %1692, label %1701

; <label>:1692:                                   ; preds = %1686
  %1693 = bitcast float* %107 to i8*
  call void @llvm.var.annotation(i8* %1693, i8* getelementptr inbounds ([9 x i8], [9 x i8]* @.str, i32 0, i32 0), i8* getelementptr inbounds ([15 x i8], [15 x i8]* @.str.1, i32 0, i32 0), i32 346)
  %1694 = getelementptr inbounds [2 x float], [2 x float]* %31, i64 0, i64 0
  %1695 = load float, float* %1694, align 4
  store float %1695, float* %107, align 4
  %1696 = getelementptr inbounds [2 x float], [2 x float]* %31, i64 0, i64 1
  %1697 = load float, float* %1696, align 4
  %1698 = getelementptr inbounds [2 x float], [2 x float]* %31, i64 0, i64 0
  store float %1697, float* %1698, align 4
  %1699 = load float, float* %107, align 4
  %1700 = getelementptr inbounds [2 x float], [2 x float]* %31, i64 0, i64 1
  store float %1699, float* %1700, align 4
  br label %1701

Flow35:                                           ; preds = %Flow18, %Flow34
  br label %Flow52

; <label>:1701:                                   ; preds = %1692, %1686
  %1702 = getelementptr inbounds [2 x float], [2 x float]* %32, i64 0, i64 0
  %1703 = load float, float* %1702, align 4
  %1704 = getelementptr inbounds [2 x float], [2 x float]* %32, i64 0, i64 1
  %1705 = load float, float* %1704, align 4
  %1706 = fcmp ogt float %1703, %1705
  br i1 %1706, label %1707, label %1716

; <label>:1707:                                   ; preds = %1701
  %1708 = bitcast float* %108 to i8*
  call void @llvm.var.annotation(i8* %1708, i8* getelementptr inbounds ([9 x i8], [9 x i8]* @.str, i32 0, i32 0), i8* getelementptr inbounds ([15 x i8], [15 x i8]* @.str.1, i32 0, i32 0), i32 347)
  %1709 = getelementptr inbounds [2 x float], [2 x float]* %32, i64 0, i64 0
  %1710 = load float, float* %1709, align 4
  store float %1710, float* %108, align 4
  %1711 = getelementptr inbounds [2 x float], [2 x float]* %32, i64 0, i64 1
  %1712 = load float, float* %1711, align 4
  %1713 = getelementptr inbounds [2 x float], [2 x float]* %32, i64 0, i64 0
  store float %1712, float* %1713, align 4
  %1714 = load float, float* %108, align 4
  %1715 = getelementptr inbounds [2 x float], [2 x float]* %32, i64 0, i64 1
  store float %1714, float* %1715, align 4
  br label %1716

; <label>:1716:                                   ; preds = %1707, %1701
  %1717 = getelementptr inbounds [2 x float], [2 x float]* %31, i64 0, i64 0
  %1718 = load float, float* %1717, align 4
  %1719 = load float*, float** %16, align 8
  %1720 = getelementptr inbounds float, float* %1719, i64 0
  store float %1718, float* %1720, align 4
  %1721 = getelementptr inbounds [2 x float], [2 x float]* %31, i64 0, i64 1
  %1722 = load float, float* %1721, align 4
  %1723 = load float*, float** %16, align 8
  %1724 = getelementptr inbounds float, float* %1723, i64 1
  store float %1722, float* %1724, align 4
  %1725 = bitcast float* %109 to i8*
  call void @llvm.var.annotation(i8* %1725, i8* getelementptr inbounds ([36 x i8], [36 x i8]* @.str.13, i32 0, i32 0), i8* getelementptr inbounds ([15 x i8], [15 x i8]* @.str.1, i32 0, i32 0), i32 351)
  %1726 = getelementptr inbounds [2 x float], [2 x float]* %31, i64 0, i64 1
  %1727 = load float, float* %1726, align 4
  %1728 = getelementptr inbounds [2 x float], [2 x float]* %32, i64 0, i64 0
  %1729 = load float, float* %1728, align 4
  %1730 = fsub float %1727, %1729
  store float %1730, float* %109, align 4
  %1731 = bitcast float* %110 to i8*
  call void @llvm.var.annotation(i8* %1731, i8* getelementptr inbounds ([36 x i8], [36 x i8]* @.str.14, i32 0, i32 0), i8* getelementptr inbounds ([15 x i8], [15 x i8]* @.str.1, i32 0, i32 0), i32 352)
  %1732 = getelementptr inbounds [2 x float], [2 x float]* %32, i64 0, i64 1
  %1733 = load float, float* %1732, align 4
  %1734 = getelementptr inbounds [2 x float], [2 x float]* %31, i64 0, i64 0
  %1735 = load float, float* %1734, align 4
  %1736 = fsub float %1733, %1735
  store float %1736, float* %110, align 4
  br label %1737

; <label>:1737:                                   ; preds = %1716
  br label %1738

; <label>:1738:                                   ; preds = %1737
  %1739 = getelementptr inbounds [2 x float], [2 x float]* %31, i64 0, i64 1
  %1740 = load float, float* %1739, align 4
  %1741 = getelementptr inbounds [2 x float], [2 x float]* %32, i64 0, i64 0
  %1742 = load float, float* %1741, align 4
  %1743 = fcmp olt float %1740, %1742
  %1744 = xor i1 %1743, true
  br i1 %1744, label %1745, label %Flow16

; <label>:1745:                                   ; preds = %1738
  %1746 = getelementptr inbounds [2 x float], [2 x float]* %32, i64 0, i64 1
  %1747 = load float, float* %1746, align 4
  %1748 = getelementptr inbounds [2 x float], [2 x float]* %31, i64 0, i64 0
  %1749 = load float, float* %1748, align 4
  %1750 = fcmp olt float %1747, %1749
  %1751 = xor i1 %1750, true
  br i1 %1751, label %1756, label %Flow17

Flow17:                                           ; preds = %1756, %1745
  %1752 = phi i1 [ false, %1756 ], [ true, %1745 ]
  br label %Flow16

; <label>:1753:                                   ; preds = %Flow16
  %1754 = load i32*, i32** %17, align 8
  store i32 4, i32* %1754, align 4
  store i32 0, i32* %9, align 4
  br label %Flow18

Flow16:                                           ; preds = %Flow17, %1738
  %1755 = phi i1 [ %1752, %Flow17 ], [ %1743, %1738 ]
  br i1 %1755, label %1753, label %Flow18

; <label>:1756:                                   ; preds = %1745
  %1757 = load i32*, i32** %17, align 8
  store i32 5, i32* %1757, align 4
  store i32 1, i32* %9, align 4
  br label %Flow17

Flow18:                                           ; preds = %1753, %Flow16
  br label %Flow35

Flow52:                                           ; preds = %Flow35, %Flow51
  br label %Flow54

Flow55:                                           ; preds = %560, %Flow54
  br label %Flow57

; <label>:1758:                                   ; preds = %350, %Flow57
  %1759 = load i32, i32* %9, align 4
  ret i32 %1759
}

; Function Attrs: noinline uwtable
define internal void @_GLOBAL__sub_I_jmeint.cpp() #0 section ".text.startup" {
  call void @__cxx_global_var_init.2()
  ret void
}

; Function Attrs: noinline uwtable
define internal void @__cxx_global_var_init.2() #0 section ".text.startup" {
  call void @_ZNSt8ios_base4InitC1Ev(%"class.std::ios_base::Init"* @_ZStL8__ioinit.3)
  %1 = call i32 @__cxa_atexit(void (i8*)* bitcast (void (%"class.std::ios_base::Init"*)* @_ZNSt8ios_base4InitD1Ev to void (i8*)*), i8* getelementptr inbounds (%"class.std::ios_base::Init", %"class.std::ios_base::Init"* @_ZStL8__ioinit.3, i32 0, i32 0), i8* @__dso_handle) #3
  ret void
}

; Function Attrs: noinline norecurse optnone uwtable
define dso_local i32 @main(i32, i8**) #6 personality i8* bitcast (i32 (...)* @__gxx_personality_v0 to i8*) {
  %3 = alloca i32, align 4
  %4 = alloca i32, align 4
  %5 = alloca i8**, align 8
  %6 = alloca i32, align 4
  %7 = alloca i32, align 4
  %8 = alloca i32, align 4
  %9 = alloca %"class.std::__cxx11::basic_string", align 8
  %10 = alloca %"class.std::ios_base::Init", align 1
  %11 = alloca i8*
  %12 = alloca i32
  %13 = alloca %"class.std::__cxx11::basic_string", align 8
  %14 = alloca %"class.std::ios_base::Init", align 1
  %15 = alloca %"class.std::basic_ofstream", align 8
  %16 = alloca %"class.std::basic_ifstream", align 8
  %17 = alloca float*, align 8
  %18 = alloca i32, align 4
  %19 = alloca [18 x float], align 16
  %20 = alloca i32, align 4
  %21 = alloca i32, align 4
  %22 = alloca [6 x i32], align 16
  %23 = alloca i64, align 8
  %24 = alloca %class.AxBenchTimer, align 8
  %25 = alloca [2 x float], align 4
  %26 = alloca i32, align 4
  %27 = alloca i32, align 4
  store i32 0, i32* %3, align 4
  store i32 %0, i32* %4, align 4
  store i8** %1, i8*** %5, align 8
  %28 = load i8*, i8** bitcast (%"class.std::basic_ostream"* @_ZSt4cout to i8**), align 8
  %29 = getelementptr i8, i8* %28, i64 -24
  %30 = bitcast i8* %29 to i64*
  %31 = load i64, i64* %30, align 8
  %32 = getelementptr inbounds i8, i8* bitcast (%"class.std::basic_ostream"* @_ZSt4cout to i8*), i64 %31
  %33 = bitcast i8* %32 to %"class.std::ios_base"*
  %34 = call i64 @_ZNSt8ios_base9precisionEl(%"class.std::ios_base"* %33, i64 8)
  %35 = load i8**, i8*** %5, align 8
  %36 = getelementptr inbounds i8*, i8** %35, i64 1
  %37 = load i8*, i8** %36, align 8
  call void @_ZNSaIcEC1Ev(%"class.std::ios_base::Init"* %10) #3
  invoke void @_ZNSt7__cxx1112basic_stringIcSt11char_traitsIcESaIcEEC1EPKcRKS3_(%"class.std::__cxx11::basic_string"* %9, i8* %37, %"class.std::ios_base::Init"* dereferenceable(1) %10)
          to label %38 unwind label %74

; <label>:38:                                     ; preds = %2
  call void @_ZNSaIcED1Ev(%"class.std::ios_base::Init"* %10) #3
  %39 = load i8**, i8*** %5, align 8
  %40 = getelementptr inbounds i8*, i8** %39, i64 2
  %41 = load i8*, i8** %40, align 8
  call void @_ZNSaIcEC1Ev(%"class.std::ios_base::Init"* %14) #3
  invoke void @_ZNSt7__cxx1112basic_stringIcSt11char_traitsIcESaIcEEC1EPKcRKS3_(%"class.std::__cxx11::basic_string"* %13, i8* %41, %"class.std::ios_base::Init"* dereferenceable(1) %14)
          to label %42 unwind label %78

; <label>:42:                                     ; preds = %38
  call void @_ZNSaIcED1Ev(%"class.std::ios_base::Init"* %14) #3
  invoke void @_ZNSt14basic_ofstreamIcSt11char_traitsIcEEC1Ev(%"class.std::basic_ofstream"* %15)
          to label %43 unwind label %82

; <label>:43:                                     ; preds = %42
