; ModuleID = 'src/rgb_image.cpp'
source_filename = "src/rgb_image.cpp"
target datalayout = "e-m:e-i64:64-f80:128-n8:16:32:64-S128"
target triple = "x86_64-pc-linux-gnu"

%"class.std::ios_base::Init" = type { i8 }
%"class.std::basic_ostream" = type { i32 (...)**, %"class.std::basic_ios" }
%"class.std::basic_ios" = type { %"class.std::ios_base", %"class.std::basic_ostream"*, i8, i8, %"class.std::basic_streambuf"*, %"class.std::ctype"*, %"class.std::num_put"*, %"class.std::num_get"* }
%"class.std::ios_base" = type { i32 (...)**, i64, i64, i32, i32, i32, %"struct.std::ios_base::_Callback_list"*, %"struct.std::ios_base::_Words", [8 x %"struct.std::ios_base::_Words"], i32, %"struct.std::ios_base::_Words"*, %"class.std::locale" }
%"struct.std::ios_base::_Callback_list" = type { %"struct.std::ios_base::_Callback_list"*, void (i32, %"class.std::ios_base"*, i32)*, i32, i32 }
%"struct.std::ios_base::_Words" = type { i8*, i64 }
%"class.std::locale" = type { %"class.std::locale::_Impl"* }
%"class.std::locale::_Impl" = type { i32, %"class.std::locale::facet"**, i64, %"class.std::locale::facet"**, i8** }
%"class.std::locale::facet" = type <{ i32 (...)**, i32, [4 x i8] }>
%"class.std::basic_streambuf" = type { i32 (...)**, i8*, i8*, i8*, i8*, i8*, i8*, %"class.std::locale" }
%"class.std::ctype" = type <{ %"class.std::locale::facet.base", [4 x i8], %struct.__locale_struct*, i8, [7 x i8], i32*, i32*, i16*, i8, [256 x i8], [256 x i8], i8, [6 x i8] }>
%"class.std::locale::facet.base" = type <{ i32 (...)**, i32 }>
%struct.__locale_struct = type { [13 x %struct.__locale_data*], i16*, i32*, i32*, [13 x i8*] }
%struct.__locale_data = type opaque
%"class.std::num_put" = type { %"class.std::locale::facet.base", [4 x i8] }
%"class.std::num_get" = type { %"class.std::locale::facet.base", [4 x i8] }
%class.Image = type { i32, i32, %class.Pixel**, %"class.std::__cxx11::basic_string" }
%class.Pixel = type { float, float, float }
%"class.std::__cxx11::basic_string" = type { %"struct.std::__cxx11::basic_string<char, std::char_traits<char>, std::allocator<char> >::_Alloc_hider", i64, %union.anon }
%"struct.std::__cxx11::basic_string<char, std::char_traits<char>, std::allocator<char> >::_Alloc_hider" = type { i8* }
%union.anon = type { i64, [8 x i8] }
%"class.std::vector" = type { %"struct.std::_Vector_base" }
%"struct.std::_Vector_base" = type { %"struct.std::_Vector_base<int, std::allocator<int> >::_Vector_impl" }
%"struct.std::_Vector_base<int, std::allocator<int> >::_Vector_impl" = type { %"struct.std::_Vector_base<int, std::allocator<int> >::_Vector_impl_data" }
%"struct.std::_Vector_base<int, std::allocator<int> >::_Vector_impl_data" = type { i32*, i32*, i32* }
%"class.__gnu_cxx::__normal_iterator" = type { i32* }
%"class.std::allocator.0" = type { i8 }
%"class.std::basic_ifstream" = type { %"class.std::basic_istream.base", %"class.std::basic_filebuf", %"class.std::basic_ios" }
%"class.std::basic_istream.base" = type { i32 (...)**, i64 }
%"class.std::basic_filebuf" = type { %"class.std::basic_streambuf", %union.pthread_mutex_t, %"class.std::__basic_file", i32, %struct.__mbstate_t, %struct.__mbstate_t, %struct.__mbstate_t, i8*, i64, i8, i8, i8, i8, i8*, i8*, i8, %"class.std::codecvt"*, i8*, i64, i8*, i8* }
%union.pthread_mutex_t = type { %struct.__pthread_mutex_s }
%struct.__pthread_mutex_s = type { i32, i32, i32, i32, i32, i16, i16, %struct.__pthread_internal_list }
%struct.__pthread_internal_list = type { %struct.__pthread_internal_list*, %struct.__pthread_internal_list* }
%"class.std::__basic_file" = type <{ %struct._IO_FILE*, i8, [7 x i8] }>
%struct._IO_FILE = type { i32, i8*, i8*, i8*, i8*, i8*, i8*, i8*, i8*, i8*, i8*, i8*, %struct._IO_marker*, %struct._IO_FILE*, i32, i32, i64, i16, i8, [1 x i8], i8*, i64, %struct._IO_codecvt*, %struct._IO_wide_data*, %struct._IO_FILE*, i8*, i64, i32, [20 x i8] }
%struct._IO_marker = type opaque
%struct._IO_codecvt = type opaque
%struct._IO_wide_data = type opaque
%struct.__mbstate_t = type { i32, %union.anon.3 }
%union.anon.3 = type { i32 }
%"class.std::codecvt" = type { %"class.std::__codecvt_abstract_base.base", %struct.__locale_struct* }
%"class.std::__codecvt_abstract_base.base" = type { %"class.std::locale::facet.base" }
%"class.std::basic_istream" = type { i32 (...)**, i64, %"class.std::basic_ios" }
%"class.std::basic_ofstream" = type { %"class.std::basic_ostream.base", %"class.std::basic_filebuf", %"class.std::basic_ios" }
%"class.std::basic_ostream.base" = type { i32 (...)** }
%"class.__gnu_cxx::new_allocator.1" = type { i8 }
%"struct.std::integral_constant" = type { i8 }

$_ZNSt6vectorIiSaIiEE9push_backERKi = comdat any

$_ZNSt6vectorIiSaIiEEC2Ev = comdat any

$_ZNSt6vectorIiSaIiEEixEm = comdat any

$_ZN5PixelC2Ev = comdat any

$_ZNSt6vectorIiSaIiEED2Ev = comdat any

$_ZNSt12_Vector_baseIiSaIiEEC2Ev = comdat any

$_ZNSt12_Vector_baseIiSaIiEE12_Vector_implC2Ev = comdat any

$_ZNSaIiEC2Ev = comdat any

$_ZNSt12_Vector_baseIiSaIiEE17_Vector_impl_dataC2Ev = comdat any

$_ZN9__gnu_cxx13new_allocatorIiEC2Ev = comdat any

$_ZNSt16allocator_traitsISaIiEE9constructIiJRKiEEEvRS0_PT_DpOT0_ = comdat any

$_ZNSt6vectorIiSaIiEE17_M_realloc_insertIJRKiEEEvN9__gnu_cxx17__normal_iteratorIPiS1_EEDpOT_ = comdat any

$_ZNSt6vectorIiSaIiEE3endEv = comdat any

$_ZN9__gnu_cxx13new_allocatorIiE9constructIiJRKiEEEvPT_DpOT0_ = comdat any

$_ZSt7forwardIRKiEOT_RNSt16remove_referenceIS2_E4typeE = comdat any

$_ZNKSt6vectorIiSaIiEE12_M_check_lenEmPKc = comdat any

$_ZN9__gnu_cxxmiIPiSt6vectorIiSaIiEEEENS_17__normal_iteratorIT_T0_E15difference_typeERKS8_SB_ = comdat any

$_ZNSt6vectorIiSaIiEE5beginEv = comdat any

$_ZNSt12_Vector_baseIiSaIiEE11_M_allocateEm = comdat any

$_ZNSt6vectorIiSaIiEE11_S_relocateEPiS2_S2_RS0_ = comdat any

$_ZNK9__gnu_cxx17__normal_iteratorIPiSt6vectorIiSaIiEEE4baseEv = comdat any

$_ZNSt12_Vector_baseIiSaIiEE19_M_get_Tp_allocatorEv = comdat any

$_ZNSt12_Vector_baseIiSaIiEE13_M_deallocateEPim = comdat any

$_ZNKSt6vectorIiSaIiEE8max_sizeEv = comdat any

$_ZNKSt6vectorIiSaIiEE4sizeEv = comdat any

$_ZSt3maxImERKT_S2_S2_ = comdat any

$_ZNSt6vectorIiSaIiEE11_S_max_sizeERKS0_ = comdat any

$_ZNKSt12_Vector_baseIiSaIiEE19_M_get_Tp_allocatorEv = comdat any

$_ZNSt16allocator_traitsISaIiEE8max_sizeERKS0_ = comdat any

$_ZSt3minImERKT_S2_S2_ = comdat any

$__clang_call_terminate = comdat any

$_ZNK9__gnu_cxx13new_allocatorIiE8max_sizeEv = comdat any

$_ZN9__gnu_cxx17__normal_iteratorIPiSt6vectorIiSaIiEEEC2ERKS1_ = comdat any

$_ZNSt16allocator_traitsISaIiEE8allocateERS0_m = comdat any

$_ZN9__gnu_cxx13new_allocatorIiE8allocateEmPKv = comdat any

$_ZNSt6vectorIiSaIiEE14_S_do_relocateEPiS2_S2_RS0_St17integral_constantIbLb1EE = comdat any

$_ZSt12__relocate_aIPiS0_SaIiEET0_T_S3_S2_RT1_ = comdat any

$_ZSt14__relocate_a_1IiiENSt9enable_ifIXsr3std24__is_bitwise_relocatableIT_EE5valueEPS1_E4typeES2_S2_S2_RSaIT0_E = comdat any

$_ZSt12__niter_baseIPiET_S1_ = comdat any

$_ZNSt16allocator_traitsISaIiEE10deallocateERS0_Pim = comdat any

$_ZN9__gnu_cxx13new_allocatorIiE10deallocateEPim = comdat any

$_ZSt8_DestroyIPiiEvT_S1_RSaIT0_E = comdat any

$_ZNSt12_Vector_baseIiSaIiEED2Ev = comdat any

$_ZSt8_DestroyIPiEvT_S1_ = comdat any

$_ZNSt12_Destroy_auxILb1EE9__destroyIPiEEvT_S3_ = comdat any

$_ZNSt12_Vector_baseIiSaIiEE12_Vector_implD2Ev = comdat any

$_ZNSaIiED2Ev = comdat any

$_ZN9__gnu_cxx13new_allocatorIiED2Ev = comdat any

@_ZStL8__ioinit = internal global %"class.std::ios_base::Init" zeroinitializer, align 1
@__dso_handle = external hidden global i8
@_ZSt4cout = external dso_local global %"class.std::basic_ostream", align 8
@.str = private unnamed_addr constant [9 x i8] c"# Red: \09\00", align 1
@.str.1 = private unnamed_addr constant [11 x i8] c"# Green: \09\00", align 1
@.str.2 = private unnamed_addr constant [10 x i8] c"# Blue: \09\00", align 1
@_ZSt4cerr = external dso_local global %"class.std::basic_ostream", align 8
@.str.3 = private unnamed_addr constant [27 x i8] c"# Error openning the file!\00", align 1
@.str.4 = private unnamed_addr constant [21 x i8] c"scalar(range(0,255))\00", section "llvm.metadata"
@.str.5 = private unnamed_addr constant [18 x i8] c"src/rgb_image.cpp\00", section "llvm.metadata"
@.str.6 = private unnamed_addr constant [26 x i8] c"errtarget('out') scalar()\00", section "llvm.metadata"
@.str.7 = private unnamed_addr constant [2 x i8] c",\00", align 1
@.str.8 = private unnamed_addr constant [9 x i8] c"scalar()\00", section "llvm.metadata"
@.str.9 = private unnamed_addr constant [26 x i8] c"vector::_M_realloc_insert\00", align 1
@llvm.global_ctors = appending global [1 x { i32, void ()*, i8* }] [{ i32, void ()*, i8* } { i32 65535, void ()* @_GLOBAL__sub_I_rgb_image.cpp, i8* null }]

; Function Attrs: noinline uwtable
define internal void @__cxx_global_var_init() #0 section ".text.startup" {
  call void @_ZNSt8ios_base4InitC1Ev(%"class.std::ios_base::Init"* @_ZStL8__ioinit)
  %1 = call i32 @__cxa_atexit(void (i8*)* bitcast (void (%"class.std::ios_base::Init"*)* @_ZNSt8ios_base4InitD1Ev to void (i8*)*), i8* getelementptr inbounds (%"class.std::ios_base::Init", %"class.std::ios_base::Init"* @_ZStL8__ioinit, i32 0, i32 0), i8* @__dso_handle) #3
  ret void
}

declare dso_local void @_ZNSt8ios_base4InitC1Ev(%"class.std::ios_base::Init"*) unnamed_addr #1

; Function Attrs: nounwind
declare dso_local void @_ZNSt8ios_base4InitD1Ev(%"class.std::ios_base::Init"*) unnamed_addr #2

; Function Attrs: nounwind
declare dso_local i32 @__cxa_atexit(void (i8*)*, i8*, i8*) #3

; Function Attrs: noinline optnone uwtable
define dso_local void @_ZN5Image10printPixelEii(%class.Image*, i32, i32) #4 align 2 {
  %4 = alloca %class.Image*, align 8
  %5 = alloca i32, align 4
  %6 = alloca i32, align 4
  store %class.Image* %0, %class.Image** %4, align 8
  store i32 %1, i32* %5, align 4
  store i32 %2, i32* %6, align 4
  %7 = load %class.Image*, %class.Image** %4, align 8
  %8 = call dereferenceable(272) %"class.std::basic_ostream"* @_ZStlsISt11char_traitsIcEERSt13basic_ostreamIcT_ES5_PKc(%"class.std::basic_ostream"* dereferenceable(272) @_ZSt4cout, i8* getelementptr inbounds ([9 x i8], [9 x i8]* @.str, i32 0, i32 0))
  %9 = getelementptr inbounds %class.Image, %class.Image* %7, i32 0, i32 2
  %10 = load %class.Pixel**, %class.Pixel*** %9, align 8
  %11 = load i32, i32* %5, align 4
  %12 = sext i32 %11 to i64
  %13 = getelementptr inbounds %class.Pixel*, %class.Pixel** %10, i64 %12
  %14 = load %class.Pixel*, %class.Pixel** %13, align 8
  %15 = load i32, i32* %6, align 4
  %16 = sext i32 %15 to i64
  %17 = getelementptr inbounds %class.Pixel, %class.Pixel* %14, i64 %16
  %18 = getelementptr inbounds %class.Pixel, %class.Pixel* %17, i32 0, i32 0
  %19 = load float, float* %18, align 4
  %20 = call dereferenceable(272) %"class.std::basic_ostream"* @_ZNSolsEf(%"class.std::basic_ostream"* %8, float %19)
  %21 = call dereferenceable(272) %"class.std::basic_ostream"* @_ZNSolsEPFRSoS_E(%"class.std::basic_ostream"* %20, %"class.std::basic_ostream"* (%"class.std::basic_ostream"*)* @_ZSt4endlIcSt11char_traitsIcEERSt13basic_ostreamIT_T0_ES6_)
  %22 = call dereferenceable(272) %"class.std::basic_ostream"* @_ZStlsISt11char_traitsIcEERSt13basic_ostreamIcT_ES5_PKc(%"class.std::basic_ostream"* dereferenceable(272) @_ZSt4cout, i8* getelementptr inbounds ([11 x i8], [11 x i8]* @.str.1, i32 0, i32 0))
  %23 = getelementptr inbounds %class.Image, %class.Image* %7, i32 0, i32 2
  %24 = load %class.Pixel**, %class.Pixel*** %23, align 8
  %25 = load i32, i32* %5, align 4
  %26 = sext i32 %25 to i64
  %27 = getelementptr inbounds %class.Pixel*, %class.Pixel** %24, i64 %26
  %28 = load %class.Pixel*, %class.Pixel** %27, align 8
  %29 = load i32, i32* %6, align 4
  %30 = sext i32 %29 to i64
  %31 = getelementptr inbounds %class.Pixel, %class.Pixel* %28, i64 %30
  %32 = getelementptr inbounds %class.Pixel, %class.Pixel* %31, i32 0, i32 1
  %33 = load float, float* %32, align 4
  %34 = call dereferenceable(272) %"class.std::basic_ostream"* @_ZNSolsEf(%"class.std::basic_ostream"* %22, float %33)
  %35 = call dereferenceable(272) %"class.std::basic_ostream"* @_ZNSolsEPFRSoS_E(%"class.std::basic_ostream"* %34, %"class.std::basic_ostream"* (%"class.std::basic_ostream"*)* @_ZSt4endlIcSt11char_traitsIcEERSt13basic_ostreamIT_T0_ES6_)
  %36 = call dereferenceable(272) %"class.std::basic_ostream"* @_ZStlsISt11char_traitsIcEERSt13basic_ostreamIcT_ES5_PKc(%"class.std::basic_ostream"* dereferenceable(272) @_ZSt4cout, i8* getelementptr inbounds ([10 x i8], [10 x i8]* @.str.2, i32 0, i32 0))
  %37 = getelementptr inbounds %class.Image, %class.Image* %7, i32 0, i32 2
  %38 = load %class.Pixel**, %class.Pixel*** %37, align 8
  %39 = load i32, i32* %5, align 4
  %40 = sext i32 %39 to i64
  %41 = getelementptr inbounds %class.Pixel*, %class.Pixel** %38, i64 %40
  %42 = load %class.Pixel*, %class.Pixel** %41, align 8
  %43 = load i32, i32* %6, align 4
  %44 = sext i32 %43 to i64
  %45 = getelementptr inbounds %class.Pixel, %class.Pixel* %42, i64 %44
  %46 = getelementptr inbounds %class.Pixel, %class.Pixel* %45, i32 0, i32 2
  %47 = load float, float* %46, align 4
  %48 = call dereferenceable(272) %"class.std::basic_ostream"* @_ZNSolsEf(%"class.std::basic_ostream"* %36, float %47)
  %49 = call dereferenceable(272) %"class.std::basic_ostream"* @_ZNSolsEPFRSoS_E(%"class.std::basic_ostream"* %48, %"class.std::basic_ostream"* (%"class.std::basic_ostream"*)* @_ZSt4endlIcSt11char_traitsIcEERSt13basic_ostreamIT_T0_ES6_)
  ret void
}

declare dso_local dereferenceable(272) %"class.std::basic_ostream"* @_ZStlsISt11char_traitsIcEERSt13basic_ostreamIcT_ES5_PKc(%"class.std::basic_ostream"* dereferenceable(272), i8*) #1

declare dso_local dereferenceable(272) %"class.std::basic_ostream"* @_ZNSolsEf(%"class.std::basic_ostream"*, float) #1

declare dso_local dereferenceable(272) %"class.std::basic_ostream"* @_ZNSolsEPFRSoS_E(%"class.std::basic_ostream"*, %"class.std::basic_ostream"* (%"class.std::basic_ostream"*)*) #1

declare dso_local dereferenceable(272) %"class.std::basic_ostream"* @_ZSt4endlIcSt11char_traitsIcEERSt13basic_ostreamIT_T0_ES6_(%"class.std::basic_ostream"* dereferenceable(272)) #1

; Function Attrs: noinline nounwind optnone uwtable
define dso_local i8* @_Z7readIntPKcPi(i8*, i32*) #5 {
  %3 = alloca i8*, align 8
  %4 = alloca i8*, align 8
  %5 = alloca i32*, align 8
  %6 = alloca i8*, align 8
  store i8* %0, i8** %4, align 8
  store i32* %1, i32** %5, align 8
  br label %7

; <label>:7:                                      ; preds = %31, %2
  %8 = load i8*, i8** %4, align 8
  %9 = load i8, i8* %8, align 1
  %10 = sext i8 %9 to i32
  %11 = icmp ne i32 %10, 0
  br i1 %11, label %12, label %32

; <label>:12:                                     ; preds = %7
  %13 = load i8*, i8** %4, align 8
  %14 = load i8, i8* %13, align 1
  %15 = sext i8 %14 to i32
  %16 = icmp sle i32 48, %15
  br i1 %16, label %17, label %28

; <label>:17:                                     ; preds = %12
  %18 = load i8*, i8** %4, align 8
  %19 = load i8, i8* %18, align 1
  %20 = sext i8 %19 to i32
  %21 = icmp sle i32 %20, 57
  br i1 %21, label %22, label %28

; <label>:22:                                     ; preds = %17
  %23 = load i8*, i8** %4, align 8
  %24 = call i64 @strtol(i8* %23, i8** %6, i32 0) #3
  %25 = trunc i64 %24 to i32
  %26 = load i32*, i32** %5, align 8
  store i32 %25, i32* %26, align 4
  %27 = load i8*, i8** %6, align 8
  store i8* %27, i8** %3, align 8
  br label %33

; <label>:28:                                     ; preds = %17, %12
  %29 = load i8*, i8** %4, align 8
  %30 = getelementptr inbounds i8, i8* %29, i32 1
  store i8* %30, i8** %4, align 8
  br label %31

; <label>:31:                                     ; preds = %28
  br label %7

; <label>:32:                                     ; preds = %7
  store i8* null, i8** %3, align 8
  br label %33

; <label>:33:                                     ; preds = %32, %22
  %34 = load i8*, i8** %3, align 8
  ret i8* %34
}

; Function Attrs: nounwind
declare dso_local i64 @strtol(i8*, i8**, i32) #2

; Function Attrs: noinline optnone uwtable
define dso_local void @_Z8tokenizeRSt6vectorIiSaIiEERNSt7__cxx1112basic_stringIcSt11char_traitsIcESaIcEEE(%"class.std::vector"* dereferenceable(24), %"class.std::__cxx11::basic_string"* dereferenceable(32)) #4 {
  %3 = alloca %"class.std::vector"*, align 8
  %4 = alloca %"class.std::__cxx11::basic_string"*, align 8
  %5 = alloca i8*, align 8
  %6 = alloca i32, align 4
  store %"class.std::vector"* %0, %"class.std::vector"** %3, align 8
  store %"class.std::__cxx11::basic_string"* %1, %"class.std::__cxx11::basic_string"** %4, align 8
  %7 = load %"class.std::__cxx11::basic_string"*, %"class.std::__cxx11::basic_string"** %4, align 8
  %8 = call i8* @_ZNKSt7__cxx1112basic_stringIcSt11char_traitsIcESaIcEE5c_strEv(%"class.std::__cxx11::basic_string"* %7) #3
  store i8* %8, i8** %5, align 8
  %9 = load i8*, i8** %5, align 8
  %10 = call i8* @_Z7readIntPKcPi(i8* %9, i32* %6)
  store i8* %10, i8** %5, align 8
  br label %11

; <label>:11:                                     ; preds = %14, %2
  %12 = load i8*, i8** %5, align 8
  %13 = icmp ne i8* %12, null
  br i1 %13, label %14, label %18

; <label>:14:                                     ; preds = %11
  %15 = load %"class.std::vector"*, %"class.std::vector"** %3, align 8
  call void @_ZNSt6vectorIiSaIiEE9push_backERKi(%"class.std::vector"* %15, i32* dereferenceable(4) %6)
  %16 = load i8*, i8** %5, align 8
  %17 = call i8* @_Z7readIntPKcPi(i8* %16, i32* %6)
  store i8* %17, i8** %5, align 8
  br label %11

; <label>:18:                                     ; preds = %11
  ret void
}

; Function Attrs: nounwind
declare dso_local i8* @_ZNKSt7__cxx1112basic_stringIcSt11char_traitsIcESaIcEE5c_strEv(%"class.std::__cxx11::basic_string"*) #2

; Function Attrs: noinline optnone uwtable
define linkonce_odr dso_local void @_ZNSt6vectorIiSaIiEE9push_backERKi(%"class.std::vector"*, i32* dereferenceable(4)) #4 comdat align 2 {
  %3 = alloca %"class.std::vector"*, align 8
  %4 = alloca i32*, align 8
  %5 = alloca %"class.__gnu_cxx::__normal_iterator", align 8
  store %"class.std::vector"* %0, %"class.std::vector"** %3, align 8
  store i32* %1, i32** %4, align 8
  %6 = load %"class.std::vector"*, %"class.std::vector"** %3, align 8
  %7 = bitcast %"class.std::vector"* %6 to %"struct.std::_Vector_base"*
  %8 = getelementptr inbounds %"struct.std::_Vector_base", %"struct.std::_Vector_base"* %7, i32 0, i32 0
  %9 = bitcast %"struct.std::_Vector_base<int, std::allocator<int> >::_Vector_impl"* %8 to %"struct.std::_Vector_base<int, std::allocator<int> >::_Vector_impl_data"*
  %10 = getelementptr inbounds %"struct.std::_Vector_base<int, std::allocator<int> >::_Vector_impl_data", %"struct.std::_Vector_base<int, std::allocator<int> >::_Vector_impl_data"* %9, i32 0, i32 1
  %11 = load i32*, i32** %10, align 8
  %12 = bitcast %"class.std::vector"* %6 to %"struct.std::_Vector_base"*
  %13 = getelementptr inbounds %"struct.std::_Vector_base", %"struct.std::_Vector_base"* %12, i32 0, i32 0
  %14 = bitcast %"struct.std::_Vector_base<int, std::allocator<int> >::_Vector_impl"* %13 to %"struct.std::_Vector_base<int, std::allocator<int> >::_Vector_impl_data"*
  %15 = getelementptr inbounds %"struct.std::_Vector_base<int, std::allocator<int> >::_Vector_impl_data", %"struct.std::_Vector_base<int, std::allocator<int> >::_Vector_impl_data"* %14, i32 0, i32 2
  %16 = load i32*, i32** %15, align 8
  %17 = icmp ne i32* %11, %16
  br i1 %17, label %18, label %34

; <label>:18:                                     ; preds = %2
  %19 = bitcast %"class.std::vector"* %6 to %"struct.std::_Vector_base"*
  %20 = getelementptr inbounds %"struct.std::_Vector_base", %"struct.std::_Vector_base"* %19, i32 0, i32 0
  %21 = bitcast %"struct.std::_Vector_base<int, std::allocator<int> >::_Vector_impl"* %20 to %"class.std::allocator.0"*
  %22 = bitcast %"class.std::vector"* %6 to %"struct.std::_Vector_base"*
  %23 = getelementptr inbounds %"struct.std::_Vector_base", %"struct.std::_Vector_base"* %22, i32 0, i32 0
  %24 = bitcast %"struct.std::_Vector_base<int, std::allocator<int> >::_Vector_impl"* %23 to %"struct.std::_Vector_base<int, std::allocator<int> >::_Vector_impl_data"*
  %25 = getelementptr inbounds %"struct.std::_Vector_base<int, std::allocator<int> >::_Vector_impl_data", %"struct.std::_Vector_base<int, std::allocator<int> >::_Vector_impl_data"* %24, i32 0, i32 1
  %26 = load i32*, i32** %25, align 8
  %27 = load i32*, i32** %4, align 8
  call void @_ZNSt16allocator_traitsISaIiEE9constructIiJRKiEEEvRS0_PT_DpOT0_(%"class.std::allocator.0"* dereferenceable(1) %21, i32* %26, i32* dereferenceable(4) %27) #3
  %28 = bitcast %"class.std::vector"* %6 to %"struct.std::_Vector_base"*
  %29 = getelementptr inbounds %"struct.std::_Vector_base", %"struct.std::_Vector_base"* %28, i32 0, i32 0
  %30 = bitcast %"struct.std::_Vector_base<int, std::allocator<int> >::_Vector_impl"* %29 to %"struct.std::_Vector_base<int, std::allocator<int> >::_Vector_impl_data"*
  %31 = getelementptr inbounds %"struct.std::_Vector_base<int, std::allocator<int> >::_Vector_impl_data", %"struct.std::_Vector_base<int, std::allocator<int> >::_Vector_impl_data"* %30, i32 0, i32 1
  %32 = load i32*, i32** %31, align 8
  %33 = getelementptr inbounds i32, i32* %32, i32 1
  store i32* %33, i32** %31, align 8
  br label %40

; <label>:34:                                     ; preds = %2
  %35 = call i32* @_ZNSt6vectorIiSaIiEE3endEv(%"class.std::vector"* %6) #3
  %36 = getelementptr inbounds %"class.__gnu_cxx::__normal_iterator", %"class.__gnu_cxx::__normal_iterator"* %5, i32 0, i32 0
  store i32* %35, i32** %36, align 8
  %37 = load i32*, i32** %4, align 8
  %38 = getelementptr inbounds %"class.__gnu_cxx::__normal_iterator", %"class.__gnu_cxx::__normal_iterator"* %5, i32 0, i32 0
  %39 = load i32*, i32** %38, align 8
  call void @_ZNSt6vectorIiSaIiEE17_M_realloc_insertIJRKiEEEvN9__gnu_cxx17__normal_iteratorIPiS1_EEDpOT_(%"class.std::vector"* %6, i32* %39, i32* dereferenceable(4) %37)
  br label %40

; <label>:40:                                     ; preds = %34, %18
  ret void
}

; Function Attrs: noinline optnone uwtable
define dso_local i32 @_ZN5Image12loadRgbImageENSt7__cxx1112basic_stringIcSt11char_traitsIcESaIcEEE(%class.Image*, %"class.std::__cxx11::basic_string"*) #4 align 2 personality i8* bitcast (i32 (...)* @__gxx_personality_v0 to i8*) {
  %3 = alloca i32, align 4
  %4 = alloca %class.Image*, align 8
  %5 = alloca %"class.std::basic_ifstream", align 8
  %6 = alloca i8*
  %7 = alloca i32
  %8 = alloca i32, align 4
  %9 = alloca %"class.std::__cxx11::basic_string", align 8
  %10 = alloca %"class.std::vector", align 8
  %11 = alloca i32, align 4
  %12 = alloca %"class.std::vector", align 8
  %13 = alloca i32, align 4
  %14 = alloca i32, align 4
  %15 = alloca float, align 4
  %16 = alloca float, align 4
  %17 = alloca float, align 4
  store %class.Image* %0, %class.Image** %4, align 8
  %18 = load %class.Image*, %class.Image** %4, align 8
  call void @_ZNSt14basic_ifstreamIcSt11char_traitsIcEEC1Ev(%"class.std::basic_ifstream"* %5)
  %19 = call i8* @_ZNKSt7__cxx1112basic_stringIcSt11char_traitsIcESaIcEE5c_strEv(%"class.std::__cxx11::basic_string"* %1) #3
  invoke void @_ZNSt14basic_ifstreamIcSt11char_traitsIcEE4openEPKcSt13_Ios_Openmode(%"class.std::basic_ifstream"* %5, i8* %19, i32 8)
          to label %20 unwind label %28

; <label>:20:                                     ; preds = %2
  %21 = invoke zeroext i1 @_ZNSt14basic_ifstreamIcSt11char_traitsIcEE7is_openEv(%"class.std::basic_ifstream"* %5)
          to label %22 unwind label %28

; <label>:22:                                     ; preds = %20
  br i1 %21, label %32, label %23

; <label>:23:                                     ; preds = %22
  %24 = invoke dereferenceable(272) %"class.std::basic_ostream"* @_ZStlsISt11char_traitsIcEERSt13basic_ostreamIcT_ES5_PKc(%"class.std::basic_ostream"* dereferenceable(272) @_ZSt4cerr, i8* getelementptr inbounds ([27 x i8], [27 x i8]* @.str.3, i32 0, i32 0))
          to label %25 unwind label %28

; <label>:25:                                     ; preds = %23
  %26 = invoke dereferenceable(272) %"class.std::basic_ostream"* @_ZNSolsEPFRSoS_E(%"class.std::basic_ostream"* %24, %"class.std::basic_ostream"* (%"class.std::basic_ostream"*)* @_ZSt4endlIcSt11char_traitsIcEERSt13basic_ostreamIT_T0_ES6_)
          to label %27 unwind label %28

; <label>:27:                                     ; preds = %25
  store i32 0, i32* %3, align 4
  store i32 1, i32* %8, align 4
  br label %183

; <label>:28:                                     ; preds = %25, %23, %20, %2
  %29 = landingpad { i8*, i32 }
          cleanup
  %30 = extractvalue { i8*, i32 } %29, 0
  store i8* %30, i8** %6, align 8
  %31 = extractvalue { i8*, i32 } %29, 1
  store i32 %31, i32* %7, align 4
  br label %185

; <label>:32:                                     ; preds = %22
  call void @_ZNSt7__cxx1112basic_stringIcSt11char_traitsIcESaIcEEC1Ev(%"class.std::__cxx11::basic_string"* %9) #3
  %33 = bitcast %"class.std::basic_ifstream"* %5 to %"class.std::basic_istream"*
  %34 = invoke dereferenceable(280) %"class.std::basic_istream"* @_ZSt7getlineIcSt11char_traitsIcESaIcEERSt13basic_istreamIT_T0_ES7_RNSt7__cxx1112basic_stringIS4_S5_T1_EE(%"class.std::basic_istream"* dereferenceable(280) %33, %"class.std::__cxx11::basic_string"* dereferenceable(32) %9)
          to label %35 unwind label %153

; <label>:35:                                     ; preds = %32
  call void @_ZNSt6vectorIiSaIiEEC2Ev(%"class.std::vector"* %10) #3
  invoke void @_Z8tokenizeRSt6vectorIiSaIiEERNSt7__cxx1112basic_stringIcSt11char_traitsIcESaIcEEE(%"class.std::vector"* dereferenceable(24) %10, %"class.std::__cxx11::basic_string"* dereferenceable(32) %9)
          to label %36 unwind label %157

; <label>:36:                                     ; preds = %35
  %37 = call dereferenceable(4) i32* @_ZNSt6vectorIiSaIiEEixEm(%"class.std::vector"* %10, i64 0) #3
  %38 = load i32, i32* %37, align 4
  %39 = getelementptr inbounds %class.Image, %class.Image* %18, i32 0, i32 0
  store i32 %38, i32* %39, align 8
  %40 = call dereferenceable(4) i32* @_ZNSt6vectorIiSaIiEEixEm(%"class.std::vector"* %10, i64 1) #3
  %41 = load i32, i32* %40, align 4
  %42 = getelementptr inbounds %class.Image, %class.Image* %18, i32 0, i32 1
  store i32 %41, i32* %42, align 4
  %43 = getelementptr inbounds %class.Image, %class.Image* %18, i32 0, i32 1
  %44 = load i32, i32* %43, align 4
  %45 = sext i32 %44 to i64
  %46 = call { i64, i1 } @llvm.umul.with.overflow.i64(i64 %45, i64 8)
  %47 = extractvalue { i64, i1 } %46, 1
  %48 = extractvalue { i64, i1 } %46, 0
  %49 = select i1 %47, i64 -1, i64 %48
  %50 = invoke i8* @_Znam(i64 %49) #12
          to label %51 unwind label %157

; <label>:51:                                     ; preds = %36
  %52 = bitcast i8* %50 to %class.Pixel**
  %53 = getelementptr inbounds %class.Image, %class.Image* %18, i32 0, i32 2
  store %class.Pixel** %52, %class.Pixel*** %53, align 8
  store i32 0, i32* %11, align 4
  br label %54

; <label>:54:                                     ; preds = %170, %51
  %55 = load i32, i32* %11, align 4
  %56 = getelementptr inbounds %class.Image, %class.Image* %18, i32 0, i32 1
  %57 = load i32, i32* %56, align 4
  %58 = icmp slt i32 %55, %57
  br i1 %58, label %59, label %174

; <label>:59:                                     ; preds = %54
  %60 = bitcast %"class.std::basic_ifstream"* %5 to %"class.std::basic_istream"*
  %61 = invoke dereferenceable(280) %"class.std::basic_istream"* @_ZSt7getlineIcSt11char_traitsIcESaIcEERSt13basic_istreamIT_T0_ES7_RNSt7__cxx1112basic_stringIS4_S5_T1_EE(%"class.std::basic_istream"* dereferenceable(280) %60, %"class.std::__cxx11::basic_string"* dereferenceable(32) %9)
          to label %62 unwind label %157

; <label>:62:                                     ; preds = %59
  call void @_ZNSt6vectorIiSaIiEEC2Ev(%"class.std::vector"* %12) #3
  invoke void @_Z8tokenizeRSt6vectorIiSaIiEERNSt7__cxx1112basic_stringIcSt11char_traitsIcESaIcEEE(%"class.std::vector"* dereferenceable(24) %12, %"class.std::__cxx11::basic_string"* dereferenceable(32) %9)
          to label %63 unwind label %161

; <label>:63:                                     ; preds = %62
  %64 = getelementptr inbounds %class.Image, %class.Image* %18, i32 0, i32 0
  %65 = load i32, i32* %64, align 8
  %66 = sext i32 %65 to i64
  %67 = call { i64, i1 } @llvm.umul.with.overflow.i64(i64 %66, i64 12)
  %68 = extractvalue { i64, i1 } %67, 1
  %69 = extractvalue { i64, i1 } %67, 0
  %70 = select i1 %68, i64 -1, i64 %69
  %71 = invoke i8* @_Znam(i64 %70) #12
          to label %72 unwind label %161

; <label>:72:                                     ; preds = %63
  %73 = bitcast i8* %71 to %class.Pixel*
  %74 = icmp eq i64 %66, 0
  br i1 %74, label %82, label %75

; <label>:75:                                     ; preds = %72
  %76 = getelementptr inbounds %class.Pixel, %class.Pixel* %73, i64 %66
  br label %77

; <label>:77:                                     ; preds = %79, %75
  %78 = phi %class.Pixel* [ %73, %75 ], [ %80, %79 ]
  invoke void @_ZN5PixelC2Ev(%class.Pixel* %78)
          to label %79 unwind label %165

; <label>:79:                                     ; preds = %77
  %80 = getelementptr inbounds %class.Pixel, %class.Pixel* %78, i64 1
  %81 = icmp eq %class.Pixel* %80, %76
  br i1 %81, label %82, label %77

; <label>:82:                                     ; preds = %72, %79
  %83 = getelementptr inbounds %class.Image, %class.Image* %18, i32 0, i32 2
  %84 = load %class.Pixel**, %class.Pixel*** %83, align 8
  %85 = load i32, i32* %11, align 4
  %86 = sext i32 %85 to i64
  %87 = getelementptr inbounds %class.Pixel*, %class.Pixel** %84, i64 %86
  store %class.Pixel* %73, %class.Pixel** %87, align 8
  store i32 0, i32* %13, align 4
  br label %88

; <label>:88:                                     ; preds = %150, %82
  %89 = load i32, i32* %13, align 4
  %90 = getelementptr inbounds %class.Image, %class.Image* %18, i32 0, i32 0
  %91 = load i32, i32* %90, align 8
  %92 = icmp slt i32 %89, %91
  br i1 %92, label %93, label %169

; <label>:93:                                     ; preds = %88
  %94 = load i32, i32* %13, align 4
  %95 = mul nsw i32 %94, 3
  store i32 %95, i32* %14, align 4
  %96 = bitcast float* %15 to i8*
  call void @llvm.var.annotation(i8* %96, i8* getelementptr inbounds ([21 x i8], [21 x i8]* @.str.4, i32 0, i32 0), i8* getelementptr inbounds ([18 x i8], [18 x i8]* @.str.5, i32 0, i32 0), i32 88)
  %97 = load i32, i32* %14, align 4
  %98 = add nsw i32 %97, 1
  store i32 %98, i32* %14, align 4
  %99 = sext i32 %97 to i64
  %100 = call dereferenceable(4) i32* @_ZNSt6vectorIiSaIiEEixEm(%"class.std::vector"* %12, i64 %99) #3
  %101 = load i32, i32* %100, align 4
  %102 = sitofp i32 %101 to float
  store float %102, float* %15, align 4
  %103 = bitcast float* %16 to i8*
  call void @llvm.var.annotation(i8* %103, i8* getelementptr inbounds ([21 x i8], [21 x i8]* @.str.4, i32 0, i32 0), i8* getelementptr inbounds ([18 x i8], [18 x i8]* @.str.5, i32 0, i32 0), i32 89)
  %104 = load i32, i32* %14, align 4
  %105 = add nsw i32 %104, 1
  store i32 %105, i32* %14, align 4
  %106 = sext i32 %104 to i64
  %107 = call dereferenceable(4) i32* @_ZNSt6vectorIiSaIiEEixEm(%"class.std::vector"* %12, i64 %106) #3
  %108 = load i32, i32* %107, align 4
  %109 = sitofp i32 %108 to float
  store float %109, float* %16, align 4
  %110 = bitcast float* %17 to i8*
  call void @llvm.var.annotation(i8* %110, i8* getelementptr inbounds ([21 x i8], [21 x i8]* @.str.4, i32 0, i32 0), i8* getelementptr inbounds ([18 x i8], [18 x i8]* @.str.5, i32 0, i32 0), i32 90)
  %111 = load i32, i32* %14, align 4
  %112 = add nsw i32 %111, 1
  store i32 %112, i32* %14, align 4
  %113 = sext i32 %111 to i64
  %114 = call dereferenceable(4) i32* @_ZNSt6vectorIiSaIiEEixEm(%"class.std::vector"* %12, i64 %113) #3
  %115 = load i32, i32* %114, align 4
  %116 = sitofp i32 %115 to float
  store float %116, float* %17, align 4
  %117 = load float, float* %15, align 4
  %118 = getelementptr inbounds %class.Image, %class.Image* %18, i32 0, i32 2
  %119 = load %class.Pixel**, %class.Pixel*** %118, align 8
  %120 = load i32, i32* %11, align 4
  %121 = sext i32 %120 to i64
  %122 = getelementptr inbounds %class.Pixel*, %class.Pixel** %119, i64 %121
  %123 = load %class.Pixel*, %class.Pixel** %122, align 8
  %124 = load i32, i32* %13, align 4
  %125 = sext i32 %124 to i64
  %126 = getelementptr inbounds %class.Pixel, %class.Pixel* %123, i64 %125
  %127 = getelementptr inbounds %class.Pixel, %class.Pixel* %126, i32 0, i32 0
  store float %117, float* %127, align 4
  %128 = load float, float* %16, align 4
  %129 = getelementptr inbounds %class.Image, %class.Image* %18, i32 0, i32 2
  %130 = load %class.Pixel**, %class.Pixel*** %129, align 8
  %131 = load i32, i32* %11, align 4
  %132 = sext i32 %131 to i64
  %133 = getelementptr inbounds %class.Pixel*, %class.Pixel** %130, i64 %132
  %134 = load %class.Pixel*, %class.Pixel** %133, align 8
  %135 = load i32, i32* %13, align 4
  %136 = sext i32 %135 to i64
  %137 = getelementptr inbounds %class.Pixel, %class.Pixel* %134, i64 %136
  %138 = getelementptr inbounds %class.Pixel, %class.Pixel* %137, i32 0, i32 1
  store float %128, float* %138, align 4
  %139 = load float, float* %17, align 4
  %140 = getelementptr inbounds %class.Image, %class.Image* %18, i32 0, i32 2
  %141 = load %class.Pixel**, %class.Pixel*** %140, align 8
  %142 = load i32, i32* %11, align 4
  %143 = sext i32 %142 to i64
  %144 = getelementptr inbounds %class.Pixel*, %class.Pixel** %141, i64 %143
  %145 = load %class.Pixel*, %class.Pixel** %144, align 8
  %146 = load i32, i32* %13, align 4
  %147 = sext i32 %146 to i64
  %148 = getelementptr inbounds %class.Pixel, %class.Pixel* %145, i64 %147
  %149 = getelementptr inbounds %class.Pixel, %class.Pixel* %148, i32 0, i32 2
  store float %139, float* %149, align 4
  br label %150

; <label>:150:                                    ; preds = %93
  %151 = load i32, i32* %13, align 4
  %152 = add nsw i32 %151, 1
  store i32 %152, i32* %13, align 4
  br label %88

; <label>:153:                                    ; preds = %32
  %154 = landingpad { i8*, i32 }
          cleanup
  %155 = extractvalue { i8*, i32 } %154, 0
  store i8* %155, i8** %6, align 8
  %156 = extractvalue { i8*, i32 } %154, 1
  store i32 %156, i32* %7, align 4
  br label %182

; <label>:157:                                    ; preds = %177, %174, %59, %36, %35
  %158 = landingpad { i8*, i32 }
          cleanup
  %159 = extractvalue { i8*, i32 } %158, 0
  store i8* %159, i8** %6, align 8
  %160 = extractvalue { i8*, i32 } %158, 1
  store i32 %160, i32* %7, align 4
  br label %181

; <label>:161:                                    ; preds = %63, %62
  %162 = landingpad { i8*, i32 }
          cleanup
  %163 = extractvalue { i8*, i32 } %162, 0
  store i8* %163, i8** %6, align 8
  %164 = extractvalue { i8*, i32 } %162, 1
  store i32 %164, i32* %7, align 4
  br label %173

; <label>:165:                                    ; preds = %77
  %166 = landingpad { i8*, i32 }
          cleanup
  %167 = extractvalue { i8*, i32 } %166, 0
  store i8* %167, i8** %6, align 8
  %168 = extractvalue { i8*, i32 } %166, 1
  store i32 %168, i32* %7, align 4
  call void @_ZdaPv(i8* %71) #13
  br label %173

; <label>:169:                                    ; preds = %88
  call void @_ZNSt6vectorIiSaIiEED2Ev(%"class.std::vector"* %12) #3
  br label %170

; <label>:170:                                    ; preds = %169
  %171 = load i32, i32* %11, align 4
  %172 = add nsw i32 %171, 1
  store i32 %172, i32* %11, align 4
  br label %54

; <label>:173:                                    ; preds = %165, %161
  call void @_ZNSt6vectorIiSaIiEED2Ev(%"class.std::vector"* %12) #3
  br label %181

; <label>:174:                                    ; preds = %54
  %175 = bitcast %"class.std::basic_ifstream"* %5 to %"class.std::basic_istream"*
  %176 = invoke dereferenceable(280) %"class.std::basic_istream"* @_ZSt7getlineIcSt11char_traitsIcESaIcEERSt13basic_istreamIT_T0_ES7_RNSt7__cxx1112basic_stringIS4_S5_T1_EE(%"class.std::basic_istream"* dereferenceable(280) %175, %"class.std::__cxx11::basic_string"* dereferenceable(32) %9)
          to label %177 unwind label %157

; <label>:177:                                    ; preds = %174
  %178 = getelementptr inbounds %class.Image, %class.Image* %18, i32 0, i32 3
  %179 = invoke dereferenceable(32) %"class.std::__cxx11::basic_string"* @_ZNSt7__cxx1112basic_stringIcSt11char_traitsIcESaIcEEaSERKS4_(%"class.std::__cxx11::basic_string"* %178, %"class.std::__cxx11::basic_string"* dereferenceable(32) %9)
          to label %180 unwind label %157

; <label>:180:                                    ; preds = %177
  store i32 1, i32* %3, align 4
  store i32 1, i32* %8, align 4
  call void @_ZNSt6vectorIiSaIiEED2Ev(%"class.std::vector"* %10) #3
  call void @_ZNSt7__cxx1112basic_stringIcSt11char_traitsIcESaIcEED1Ev(%"class.std::__cxx11::basic_string"* %9) #3
  br label %183

; <label>:181:                                    ; preds = %173, %157
  call void @_ZNSt6vectorIiSaIiEED2Ev(%"class.std::vector"* %10) #3
  br label %182

; <label>:182:                                    ; preds = %181, %153
  call void @_ZNSt7__cxx1112basic_stringIcSt11char_traitsIcESaIcEED1Ev(%"class.std::__cxx11::basic_string"* %9) #3
  br label %185

; <label>:183:                                    ; preds = %180, %27
  call void @_ZNSt14basic_ifstreamIcSt11char_traitsIcEED1Ev(%"class.std::basic_ifstream"* %5) #3
  %184 = load i32, i32* %3, align 4
  ret i32 %184

; <label>:185:                                    ; preds = %182, %28
  call void @_ZNSt14basic_ifstreamIcSt11char_traitsIcEED1Ev(%"class.std::basic_ifstream"* %5) #3
  br label %186

; <label>:186:                                    ; preds = %185
  %187 = load i8*, i8** %6, align 8
  %188 = load i32, i32* %7, align 4
  %189 = insertvalue { i8*, i32 } undef, i8* %187, 0
  %190 = insertvalue { i8*, i32 } %189, i32 %188, 1
  resume { i8*, i32 } %190
}

declare dso_local void @_ZNSt14basic_ifstreamIcSt11char_traitsIcEEC1Ev(%"class.std::basic_ifstream"*) unnamed_addr #1

declare dso_local void @_ZNSt14basic_ifstreamIcSt11char_traitsIcEE4openEPKcSt13_Ios_Openmode(%"class.std::basic_ifstream"*, i8*, i32) #1

declare dso_local i32 @__gxx_personality_v0(...)

declare dso_local zeroext i1 @_ZNSt14basic_ifstreamIcSt11char_traitsIcEE7is_openEv(%"class.std::basic_ifstream"*) #1

; Function Attrs: nounwind
declare dso_local void @_ZNSt7__cxx1112basic_stringIcSt11char_traitsIcESaIcEEC1Ev(%"class.std::__cxx11::basic_string"*) unnamed_addr #2

declare dso_local dereferenceable(280) %"class.std::basic_istream"* @_ZSt7getlineIcSt11char_traitsIcESaIcEERSt13basic_istreamIT_T0_ES7_RNSt7__cxx1112basic_stringIS4_S5_T1_EE(%"class.std::basic_istream"* dereferenceable(280), %"class.std::__cxx11::basic_string"* dereferenceable(32)) #1

; Function Attrs: noinline nounwind optnone uwtable
define linkonce_odr dso_local void @_ZNSt6vectorIiSaIiEEC2Ev(%"class.std::vector"*) unnamed_addr #5 comdat align 2 {
  %2 = alloca %"class.std::vector"*, align 8
  store %"class.std::vector"* %0, %"class.std::vector"** %2, align 8
  %3 = load %"class.std::vector"*, %"class.std::vector"** %2, align 8
  %4 = bitcast %"class.std::vector"* %3 to %"struct.std::_Vector_base"*
  call void @_ZNSt12_Vector_baseIiSaIiEEC2Ev(%"struct.std::_Vector_base"* %4) #3
  ret void
}

; Function Attrs: noinline nounwind optnone uwtable
define linkonce_odr dso_local dereferenceable(4) i32* @_ZNSt6vectorIiSaIiEEixEm(%"class.std::vector"*, i64) #5 comdat align 2 {
  %3 = alloca %"class.std::vector"*, align 8
  %4 = alloca i64, align 8
  store %"class.std::vector"* %0, %"class.std::vector"** %3, align 8
  store i64 %1, i64* %4, align 8
  %5 = load %"class.std::vector"*, %"class.std::vector"** %3, align 8
  %6 = bitcast %"class.std::vector"* %5 to %"struct.std::_Vector_base"*
  %7 = getelementptr inbounds %"struct.std::_Vector_base", %"struct.std::_Vector_base"* %6, i32 0, i32 0
  %8 = bitcast %"struct.std::_Vector_base<int, std::allocator<int> >::_Vector_impl"* %7 to %"struct.std::_Vector_base<int, std::allocator<int> >::_Vector_impl_data"*
  %9 = getelementptr inbounds %"struct.std::_Vector_base<int, std::allocator<int> >::_Vector_impl_data", %"struct.std::_Vector_base<int, std::allocator<int> >::_Vector_impl_data"* %8, i32 0, i32 0
  %10 = load i32*, i32** %9, align 8
  %11 = load i64, i64* %4, align 8
  %12 = getelementptr inbounds i32, i32* %10, i64 %11
  ret i32* %12
}

; Function Attrs: nounwind readnone speculatable
declare { i64, i1 } @llvm.umul.with.overflow.i64(i64, i64) #6

; Function Attrs: nobuiltin
declare dso_local noalias i8* @_Znam(i64) #7

; Function Attrs: noinline nounwind optnone uwtable
define linkonce_odr dso_local void @_ZN5PixelC2Ev(%class.Pixel*) unnamed_addr #5 comdat align 2 {
  %2 = alloca %class.Pixel*, align 8
  store %class.Pixel* %0, %class.Pixel** %2, align 8
  %3 = load %class.Pixel*, %class.Pixel** %2, align 8
  ret void
}

; Function Attrs: nobuiltin nounwind
declare dso_local void @_ZdaPv(i8*) #8

; Function Attrs: nounwind
declare void @llvm.var.annotation(i8*, i8*, i8*, i32) #3

; Function Attrs: noinline nounwind optnone uwtable
define linkonce_odr dso_local void @_ZNSt6vectorIiSaIiEED2Ev(%"class.std::vector"*) unnamed_addr #5 comdat align 2 personality i8* bitcast (i32 (...)* @__gxx_personality_v0 to i8*) {
  %2 = alloca %"class.std::vector"*, align 8
  %3 = alloca i8*
  %4 = alloca i32
  store %"class.std::vector"* %0, %"class.std::vector"** %2, align 8
  %5 = load %"class.std::vector"*, %"class.std::vector"** %2, align 8
  %6 = bitcast %"class.std::vector"* %5 to %"struct.std::_Vector_base"*
  %7 = getelementptr inbounds %"struct.std::_Vector_base", %"struct.std::_Vector_base"* %6, i32 0, i32 0
  %8 = bitcast %"struct.std::_Vector_base<int, std::allocator<int> >::_Vector_impl"* %7 to %"struct.std::_Vector_base<int, std::allocator<int> >::_Vector_impl_data"*
  %9 = getelementptr inbounds %"struct.std::_Vector_base<int, std::allocator<int> >::_Vector_impl_data", %"struct.std::_Vector_base<int, std::allocator<int> >::_Vector_impl_data"* %8, i32 0, i32 0
  %10 = load i32*, i32** %9, align 8
  %11 = bitcast %"class.std::vector"* %5 to %"struct.std::_Vector_base"*
  %12 = getelementptr inbounds %"struct.std::_Vector_base", %"struct.std::_Vector_base"* %11, i32 0, i32 0
  %13 = bitcast %"struct.std::_Vector_base<int, std::allocator<int> >::_Vector_impl"* %12 to %"struct.std::_Vector_base<int, std::allocator<int> >::_Vector_impl_data"*
  %14 = getelementptr inbounds %"struct.std::_Vector_base<int, std::allocator<int> >::_Vector_impl_data", %"struct.std::_Vector_base<int, std::allocator<int> >::_Vector_impl_data"* %13, i32 0, i32 1
  %15 = load i32*, i32** %14, align 8
  %16 = bitcast %"class.std::vector"* %5 to %"struct.std::_Vector_base"*
  %17 = call dereferenceable(1) %"class.std::allocator.0"* @_ZNSt12_Vector_baseIiSaIiEE19_M_get_Tp_allocatorEv(%"struct.std::_Vector_base"* %16) #3
  invoke void @_ZSt8_DestroyIPiiEvT_S1_RSaIT0_E(i32* %10, i32* %15, %"class.std::allocator.0"* dereferenceable(1) %17)
          to label %18 unwind label %20

; <label>:18:                                     ; preds = %1
  %19 = bitcast %"class.std::vector"* %5 to %"struct.std::_Vector_base"*
  call void @_ZNSt12_Vector_baseIiSaIiEED2Ev(%"struct.std::_Vector_base"* %19) #3
  ret void

; <label>:20:                                     ; preds = %1
  %21 = landingpad { i8*, i32 }
          catch i8* null
  %22 = extractvalue { i8*, i32 } %21, 0
  store i8* %22, i8** %3, align 8
  %23 = extractvalue { i8*, i32 } %21, 1
  store i32 %23, i32* %4, align 4
  %24 = bitcast %"class.std::vector"* %5 to %"struct.std::_Vector_base"*
  call void @_ZNSt12_Vector_baseIiSaIiEED2Ev(%"struct.std::_Vector_base"* %24) #3
  br label %25

; <label>:25:                                     ; preds = %20
  %26 = load i8*, i8** %3, align 8
  call void @__clang_call_terminate(i8* %26) #14
  unreachable
}

declare dso_local dereferenceable(32) %"class.std::__cxx11::basic_string"* @_ZNSt7__cxx1112basic_stringIcSt11char_traitsIcESaIcEEaSERKS4_(%"class.std::__cxx11::basic_string"*, %"class.std::__cxx11::basic_string"* dereferenceable(32)) #1

; Function Attrs: nounwind
declare dso_local void @_ZNSt7__cxx1112basic_stringIcSt11char_traitsIcESaIcEED1Ev(%"class.std::__cxx11::basic_string"*) unnamed_addr #2

; Function Attrs: nounwind
declare dso_local void @_ZNSt14basic_ifstreamIcSt11char_traitsIcEED1Ev(%"class.std::basic_ifstream"*) unnamed_addr #2

; Function Attrs: noinline optnone uwtable
define dso_local i32 @_ZN5Image12saveRgbImageENSt7__cxx1112basic_stringIcSt11char_traitsIcESaIcEEEf(%class.Image*, %"class.std::__cxx11::basic_string"*, float) #4 align 2 personality i8* bitcast (i32 (...)* @__gxx_personality_v0 to i8*) {
  %4 = alloca %class.Image*, align 8
  %5 = alloca float, align 4
  %6 = alloca %"class.std::basic_ofstream", align 8
  %7 = alloca i8*
  %8 = alloca i32
  %9 = alloca i32, align 4
  %10 = alloca i32, align 4
  %11 = alloca i32, align 4
  %12 = alloca i32, align 4
  %13 = alloca i32, align 4
  %14 = alloca i32, align 4
  %15 = alloca i32, align 4
  %16 = alloca i32, align 4
  store %class.Image* %0, %class.Image** %4, align 8
  store float %2, float* %5, align 4
  %17 = bitcast float* %5 to i8*
  call void @llvm.var.annotation(i8* %17, i8* getelementptr inbounds ([26 x i8], [26 x i8]* @.str.6, i32 0, i32 0), i8* getelementptr inbounds ([18 x i8], [18 x i8]* @.str.5, i32 0, i32 0), i32 104)
  %18 = load %class.Image*, %class.Image** %4, align 8
  call void @_ZNSt14basic_ofstreamIcSt11char_traitsIcEEC1Ev(%"class.std::basic_ofstream"* %6)
  %19 = call i8* @_ZNKSt7__cxx1112basic_stringIcSt11char_traitsIcESaIcEE5c_strEv(%"class.std::__cxx11::basic_string"* %1) #3
  invoke void @_ZNSt14basic_ofstreamIcSt11char_traitsIcEE4openEPKcSt13_Ios_Openmode(%"class.std::basic_ofstream"* %6, i8* %19, i32 16)
          to label %20 unwind label %110

; <label>:20:                                     ; preds = %3
  %21 = bitcast %"class.std::basic_ofstream"* %6 to %"class.std::basic_ostream"*
  %22 = getelementptr inbounds %class.Image, %class.Image* %18, i32 0, i32 0
  %23 = load i32, i32* %22, align 8
  %24 = invoke dereferenceable(272) %"class.std::basic_ostream"* @_ZNSolsEi(%"class.std::basic_ostream"* %21, i32 %23)
          to label %25 unwind label %110

; <label>:25:                                     ; preds = %20
  %26 = invoke dereferenceable(272) %"class.std::basic_ostream"* @_ZStlsISt11char_traitsIcEERSt13basic_ostreamIcT_ES5_PKc(%"class.std::basic_ostream"* dereferenceable(272) %24, i8* getelementptr inbounds ([2 x i8], [2 x i8]* @.str.7, i32 0, i32 0))
          to label %27 unwind label %110

; <label>:27:                                     ; preds = %25
  %28 = getelementptr inbounds %class.Image, %class.Image* %18, i32 0, i32 1
  %29 = load i32, i32* %28, align 4
  %30 = invoke dereferenceable(272) %"class.std::basic_ostream"* @_ZNSolsEi(%"class.std::basic_ostream"* %26, i32 %29)
          to label %31 unwind label %110

; <label>:31:                                     ; preds = %27
  %32 = invoke dereferenceable(272) %"class.std::basic_ostream"* @_ZNSolsEPFRSoS_E(%"class.std::basic_ostream"* %30, %"class.std::basic_ostream"* (%"class.std::basic_ostream"*)* @_ZSt4endlIcSt11char_traitsIcEERSt13basic_ostreamIT_T0_ES6_)
          to label %33 unwind label %110

; <label>:33:                                     ; preds = %31
  store i32 0, i32* %9, align 4
  br label %34

; <label>:34:                                     ; preds = %181, %33
  %35 = load i32, i32* %9, align 4
  %36 = getelementptr inbounds %class.Image, %class.Image* %18, i32 0, i32 1
  %37 = load i32, i32* %36, align 4
  %38 = icmp slt i32 %35, %37
  br i1 %38, label %39, label %184

; <label>:39:                                     ; preds = %34
  store i32 0, i32* %10, align 4
  br label %40

; <label>:40:                                     ; preds = %107, %39
  %41 = load i32, i32* %10, align 4
  %42 = getelementptr inbounds %class.Image, %class.Image* %18, i32 0, i32 0
  %43 = load i32, i32* %42, align 8
  %44 = sub nsw i32 %43, 1
  %45 = icmp slt i32 %41, %44
  br i1 %45, label %46, label %114

; <label>:46:                                     ; preds = %40
  %47 = getelementptr inbounds %class.Image, %class.Image* %18, i32 0, i32 2
  %48 = load %class.Pixel**, %class.Pixel*** %47, align 8
  %49 = load i32, i32* %9, align 4
  %50 = sext i32 %49 to i64
  %51 = getelementptr inbounds %class.Pixel*, %class.Pixel** %48, i64 %50
  %52 = load %class.Pixel*, %class.Pixel** %51, align 8
  %53 = load i32, i32* %10, align 4
  %54 = sext i32 %53 to i64
  %55 = getelementptr inbounds %class.Pixel, %class.Pixel* %52, i64 %54
  %56 = getelementptr inbounds %class.Pixel, %class.Pixel* %55, i32 0, i32 0
  %57 = load float, float* %56, align 4
  %58 = load float, float* %5, align 4
  %59 = fmul float %57, %58
  %60 = fptosi float %59 to i32
  store i32 %60, i32* %11, align 4
  %61 = getelementptr inbounds %class.Image, %class.Image* %18, i32 0, i32 2
  %62 = load %class.Pixel**, %class.Pixel*** %61, align 8
  %63 = load i32, i32* %9, align 4
  %64 = sext i32 %63 to i64
  %65 = getelementptr inbounds %class.Pixel*, %class.Pixel** %62, i64 %64
  %66 = load %class.Pixel*, %class.Pixel** %65, align 8
  %67 = load i32, i32* %10, align 4
  %68 = sext i32 %67 to i64
  %69 = getelementptr inbounds %class.Pixel, %class.Pixel* %66, i64 %68
  %70 = getelementptr inbounds %class.Pixel, %class.Pixel* %69, i32 0, i32 1
  %71 = load float, float* %70, align 4
  %72 = load float, float* %5, align 4
  %73 = fmul float %71, %72
  %74 = fptosi float %73 to i32
  store i32 %74, i32* %12, align 4
  %75 = getelementptr inbounds %class.Image, %class.Image* %18, i32 0, i32 2
  %76 = load %class.Pixel**, %class.Pixel*** %75, align 8
  %77 = load i32, i32* %9, align 4
  %78 = sext i32 %77 to i64
  %79 = getelementptr inbounds %class.Pixel*, %class.Pixel** %76, i64 %78
  %80 = load %class.Pixel*, %class.Pixel** %79, align 8
  %81 = load i32, i32* %10, align 4
  %82 = sext i32 %81 to i64
  %83 = getelementptr inbounds %class.Pixel, %class.Pixel* %80, i64 %82
  %84 = getelementptr inbounds %class.Pixel, %class.Pixel* %83, i32 0, i32 2
  %85 = load float, float* %84, align 4
  %86 = load float, float* %5, align 4
  %87 = fmul float %85, %86
  %88 = fptosi float %87 to i32
  store i32 %88, i32* %13, align 4
  %89 = bitcast %"class.std::basic_ofstream"* %6 to %"class.std::basic_ostream"*
  %90 = load i32, i32* %11, align 4
  %91 = invoke dereferenceable(272) %"class.std::basic_ostream"* @_ZNSolsEi(%"class.std::basic_ostream"* %89, i32 %90)
          to label %92 unwind label %110

; <label>:92:                                     ; preds = %46
  %93 = invoke dereferenceable(272) %"class.std::basic_ostream"* @_ZStlsISt11char_traitsIcEERSt13basic_ostreamIcT_ES5_PKc(%"class.std::basic_ostream"* dereferenceable(272) %91, i8* getelementptr inbounds ([2 x i8], [2 x i8]* @.str.7, i32 0, i32 0))
          to label %94 unwind label %110

; <label>:94:                                     ; preds = %92
  %95 = bitcast %"class.std::basic_ofstream"* %6 to %"class.std::basic_ostream"*
  %96 = load i32, i32* %12, align 4
  %97 = invoke dereferenceable(272) %"class.std::basic_ostream"* @_ZNSolsEi(%"class.std::basic_ostream"* %95, i32 %96)
          to label %98 unwind label %110

; <label>:98:                                     ; preds = %94
  %99 = invoke dereferenceable(272) %"class.std::basic_ostream"* @_ZStlsISt11char_traitsIcEERSt13basic_ostreamIcT_ES5_PKc(%"class.std::basic_ostream"* dereferenceable(272) %97, i8* getelementptr inbounds ([2 x i8], [2 x i8]* @.str.7, i32 0, i32 0))
          to label %100 unwind label %110

; <label>:100:                                    ; preds = %98
  %101 = bitcast %"class.std::basic_ofstream"* %6 to %"class.std::basic_ostream"*
  %102 = load i32, i32* %13, align 4
  %103 = invoke dereferenceable(272) %"class.std::basic_ostream"* @_ZNSolsEi(%"class.std::basic_ostream"* %101, i32 %102)
          to label %104 unwind label %110

; <label>:104:                                    ; preds = %100
  %105 = invoke dereferenceable(272) %"class.std::basic_ostream"* @_ZStlsISt11char_traitsIcEERSt13basic_ostreamIcT_ES5_PKc(%"class.std::basic_ostream"* dereferenceable(272) %103, i8* getelementptr inbounds ([2 x i8], [2 x i8]* @.str.7, i32 0, i32 0))
          to label %106 unwind label %110

; <label>:106:                                    ; preds = %104
  br label %107

; <label>:107:                                    ; preds = %106
  %108 = load i32, i32* %10, align 4
  %109 = add nsw i32 %108, 1
  store i32 %109, i32* %10, align 4
  br label %40

; <label>:110:                                    ; preds = %188, %184, %178, %174, %172, %168, %166, %114, %104, %100, %98, %94, %92, %46, %31, %27, %25, %20, %3
  %111 = landingpad { i8*, i32 }
          cleanup
  %112 = extractvalue { i8*, i32 } %111, 0
  store i8* %112, i8** %7, align 8
  %113 = extractvalue { i8*, i32 } %111, 1
  store i32 %113, i32* %8, align 4
  call void @_ZNSt14basic_ofstreamIcSt11char_traitsIcEED1Ev(%"class.std::basic_ofstream"* %6) #3
  br label %190

; <label>:114:                                    ; preds = %40
  %115 = getelementptr inbounds %class.Image, %class.Image* %18, i32 0, i32 2
  %116 = load %class.Pixel**, %class.Pixel*** %115, align 8
  %117 = load i32, i32* %9, align 4
  %118 = sext i32 %117 to i64
  %119 = getelementptr inbounds %class.Pixel*, %class.Pixel** %116, i64 %118
  %120 = load %class.Pixel*, %class.Pixel** %119, align 8
  %121 = getelementptr inbounds %class.Image, %class.Image* %18, i32 0, i32 0
  %122 = load i32, i32* %121, align 8
  %123 = sub nsw i32 %122, 1
  %124 = sext i32 %123 to i64
  %125 = getelementptr inbounds %class.Pixel, %class.Pixel* %120, i64 %124
  %126 = getelementptr inbounds %class.Pixel, %class.Pixel* %125, i32 0, i32 0
  %127 = load float, float* %126, align 4
  %128 = load float, float* %5, align 4
  %129 = fmul float %127, %128
  %130 = fptosi float %129 to i32
  store i32 %130, i32* %14, align 4
  %131 = getelementptr inbounds %class.Image, %class.Image* %18, i32 0, i32 2
  %132 = load %class.Pixel**, %class.Pixel*** %131, align 8
  %133 = load i32, i32* %9, align 4
  %134 = sext i32 %133 to i64
  %135 = getelementptr inbounds %class.Pixel*, %class.Pixel** %132, i64 %134
  %136 = load %class.Pixel*, %class.Pixel** %135, align 8
  %137 = getelementptr inbounds %class.Image, %class.Image* %18, i32 0, i32 0
  %138 = load i32, i32* %137, align 8
  %139 = sub nsw i32 %138, 1
  %140 = sext i32 %139 to i64
  %141 = getelementptr inbounds %class.Pixel, %class.Pixel* %136, i64 %140
  %142 = getelementptr inbounds %class.Pixel, %class.Pixel* %141, i32 0, i32 1
  %143 = load float, float* %142, align 4
  %144 = load float, float* %5, align 4
  %145 = fmul float %143, %144
  %146 = fptosi float %145 to i32
  store i32 %146, i32* %15, align 4
  %147 = getelementptr inbounds %class.Image, %class.Image* %18, i32 0, i32 2
  %148 = load %class.Pixel**, %class.Pixel*** %147, align 8
  %149 = load i32, i32* %9, align 4
  %150 = sext i32 %149 to i64
  %151 = getelementptr inbounds %class.Pixel*, %class.Pixel** %148, i64 %150
  %152 = load %class.Pixel*, %class.Pixel** %151, align 8
  %153 = getelementptr inbounds %class.Image, %class.Image* %18, i32 0, i32 0
  %154 = load i32, i32* %153, align 8
  %155 = sub nsw i32 %154, 1
  %156 = sext i32 %155 to i64
  %157 = getelementptr inbounds %class.Pixel, %class.Pixel* %152, i64 %156
  %158 = getelementptr inbounds %class.Pixel, %class.Pixel* %157, i32 0, i32 2
  %159 = load float, float* %158, align 4
  %160 = load float, float* %5, align 4
  %161 = fmul float %159, %160
  %162 = fptosi float %161 to i32
  store i32 %162, i32* %16, align 4
  %163 = bitcast %"class.std::basic_ofstream"* %6 to %"class.std::basic_ostream"*
  %164 = load i32, i32* %14, align 4
  %165 = invoke dereferenceable(272) %"class.std::basic_ostream"* @_ZNSolsEi(%"class.std::basic_ostream"* %163, i32 %164)
          to label %166 unwind label %110

; <label>:166:                                    ; preds = %114
  %167 = invoke dereferenceable(272) %"class.std::basic_ostream"* @_ZStlsISt11char_traitsIcEERSt13basic_ostreamIcT_ES5_PKc(%"class.std::basic_ostream"* dereferenceable(272) %165, i8* getelementptr inbounds ([2 x i8], [2 x i8]* @.str.7, i32 0, i32 0))
          to label %168 unwind label %110

; <label>:168:                                    ; preds = %166
  %169 = bitcast %"class.std::basic_ofstream"* %6 to %"class.std::basic_ostream"*
  %170 = load i32, i32* %15, align 4
  %171 = invoke dereferenceable(272) %"class.std::basic_ostream"* @_ZNSolsEi(%"class.std::basic_ostream"* %169, i32 %170)
          to label %172 unwind label %110

; <label>:172:                                    ; preds = %168
  %173 = invoke dereferenceable(272) %"class.std::basic_ostream"* @_ZStlsISt11char_traitsIcEERSt13basic_ostreamIcT_ES5_PKc(%"class.std::basic_ostream"* dereferenceable(272) %171, i8* getelementptr inbounds ([2 x i8], [2 x i8]* @.str.7, i32 0, i32 0))
          to label %174 unwind label %110

; <label>:174:                                    ; preds = %172
  %175 = bitcast %"class.std::basic_ofstream"* %6 to %"class.std::basic_ostream"*
  %176 = load i32, i32* %16, align 4
  %177 = invoke dereferenceable(272) %"class.std::basic_ostream"* @_ZNSolsEi(%"class.std::basic_ostream"* %175, i32 %176)
          to label %178 unwind label %110

; <label>:178:                                    ; preds = %174
  %179 = invoke dereferenceable(272) %"class.std::basic_ostream"* @_ZNSolsEPFRSoS_E(%"class.std::basic_ostream"* %177, %"class.std::basic_ostream"* (%"class.std::basic_ostream"*)* @_ZSt4endlIcSt11char_traitsIcEERSt13basic_ostreamIT_T0_ES6_)
          to label %180 unwind label %110

; <label>:180:                                    ; preds = %178
  br label %181

; <label>:181:                                    ; preds = %180
  %182 = load i32, i32* %9, align 4
  %183 = add nsw i32 %182, 1
  store i32 %183, i32* %9, align 4
  br label %34

; <label>:184:                                    ; preds = %34
  %185 = bitcast %"class.std::basic_ofstream"* %6 to %"class.std::basic_ostream"*
  %186 = getelementptr inbounds %class.Image, %class.Image* %18, i32 0, i32 3
  %187 = invoke dereferenceable(272) %"class.std::basic_ostream"* @_ZStlsIcSt11char_traitsIcESaIcEERSt13basic_ostreamIT_T0_ES7_RKNSt7__cxx1112basic_stringIS4_S5_T1_EE(%"class.std::basic_ostream"* dereferenceable(272) %185, %"class.std::__cxx11::basic_string"* dereferenceable(32) %186)
          to label %188 unwind label %110

; <label>:188:                                    ; preds = %184
  invoke void @_ZNSt14basic_ofstreamIcSt11char_traitsIcEE5closeEv(%"class.std::basic_ofstream"* %6)
          to label %189 unwind label %110

; <label>:189:                                    ; preds = %188
  call void @_ZNSt14basic_ofstreamIcSt11char_traitsIcEED1Ev(%"class.std::basic_ofstream"* %6) #3
  ret i32 1

; <label>:190:                                    ; preds = %110
  %191 = load i8*, i8** %7, align 8
  %192 = load i32, i32* %8, align 4
  %193 = insertvalue { i8*, i32 } undef, i8* %191, 0
  %194 = insertvalue { i8*, i32 } %193, i32 %192, 1
  resume { i8*, i32 } %194
}

declare dso_local void @_ZNSt14basic_ofstreamIcSt11char_traitsIcEEC1Ev(%"class.std::basic_ofstream"*) unnamed_addr #1

declare dso_local void @_ZNSt14basic_ofstreamIcSt11char_traitsIcEE4openEPKcSt13_Ios_Openmode(%"class.std::basic_ofstream"*, i8*, i32) #1

declare dso_local dereferenceable(272) %"class.std::basic_ostream"* @_ZNSolsEi(%"class.std::basic_ostream"*, i32) #1

declare dso_local dereferenceable(272) %"class.std::basic_ostream"* @_ZStlsIcSt11char_traitsIcESaIcEERSt13basic_ostreamIT_T0_ES7_RKNSt7__cxx1112basic_stringIS4_S5_T1_EE(%"class.std::basic_ostream"* dereferenceable(272), %"class.std::__cxx11::basic_string"* dereferenceable(32)) #1

declare dso_local void @_ZNSt14basic_ofstreamIcSt11char_traitsIcEE5closeEv(%"class.std::basic_ofstream"*) #1

; Function Attrs: nounwind
declare dso_local void @_ZNSt14basic_ofstreamIcSt11char_traitsIcEED1Ev(%"class.std::basic_ofstream"*) unnamed_addr #2

; Function Attrs: noinline nounwind optnone uwtable
define dso_local void @_ZN5Image13makeGrayscaleEv(%class.Image*) #5 align 2 {
  %2 = alloca %class.Image*, align 8
  %3 = alloca float, align 4
  %4 = alloca float, align 4
  %5 = alloca float, align 4
  %6 = alloca float, align 4
  %7 = alloca i32, align 4
  %8 = alloca i32, align 4
  store %class.Image* %0, %class.Image** %2, align 8
  %9 = load %class.Image*, %class.Image** %2, align 8
  %10 = bitcast float* %3 to i8*
  call void @llvm.var.annotation(i8* %10, i8* getelementptr inbounds ([9 x i8], [9 x i8]* @.str.8, i32 0, i32 0), i8* getelementptr inbounds ([18 x i8], [18 x i8]* @.str.5, i32 0, i32 0), i32 160)
  %11 = bitcast float* %4 to i8*
  call void @llvm.var.annotation(i8* %11, i8* getelementptr inbounds ([9 x i8], [9 x i8]* @.str.8, i32 0, i32 0), i8* getelementptr inbounds ([18 x i8], [18 x i8]* @.str.5, i32 0, i32 0), i32 162)
  store float 0x3F53333340000000, float* %4, align 4
  %12 = bitcast float* %5 to i8*
  call void @llvm.var.annotation(i8* %12, i8* getelementptr inbounds ([9 x i8], [9 x i8]* @.str.8, i32 0, i32 0), i8* getelementptr inbounds ([18 x i8], [18 x i8]* @.str.5, i32 0, i32 0), i32 163)
  store float 0x3F62E147A0000000, float* %5, align 4
  %13 = bitcast float* %6 to i8*
  call void @llvm.var.annotation(i8* %13, i8* getelementptr inbounds ([9 x i8], [9 x i8]* @.str.8, i32 0, i32 0), i8* getelementptr inbounds ([18 x i8], [18 x i8]* @.str.5, i32 0, i32 0), i32 164)
  store float 0x3F3C28F5C0000000, float* %6, align 4
  store i32 0, i32* %7, align 4
  br label %14

; <label>:14:                                     ; preds = %104, %1
  %15 = load i32, i32* %7, align 4
  %16 = getelementptr inbounds %class.Image, %class.Image* %9, i32 0, i32 1
  %17 = load i32, i32* %16, align 4
  %18 = icmp slt i32 %15, %17
  br i1 %18, label %19, label %107

; <label>:19:                                     ; preds = %14
  store i32 0, i32* %8, align 4
  br label %20

; <label>:20:                                     ; preds = %100, %19
  %21 = load i32, i32* %8, align 4
  %22 = getelementptr inbounds %class.Image, %class.Image* %9, i32 0, i32 0
  %23 = load i32, i32* %22, align 8
  %24 = icmp slt i32 %21, %23
  br i1 %24, label %25, label %103

; <label>:25:                                     ; preds = %20
  %26 = load float, float* %4, align 4
  %27 = getelementptr inbounds %class.Image, %class.Image* %9, i32 0, i32 2
  %28 = load %class.Pixel**, %class.Pixel*** %27, align 8
  %29 = load i32, i32* %7, align 4
  %30 = sext i32 %29 to i64
  %31 = getelementptr inbounds %class.Pixel*, %class.Pixel** %28, i64 %30
  %32 = load %class.Pixel*, %class.Pixel** %31, align 8
  %33 = load i32, i32* %8, align 4
  %34 = sext i32 %33 to i64
  %35 = getelementptr inbounds %class.Pixel, %class.Pixel* %32, i64 %34
  %36 = getelementptr inbounds %class.Pixel, %class.Pixel* %35, i32 0, i32 0
  %37 = load float, float* %36, align 4
  %38 = fmul float %26, %37
  %39 = load float, float* %5, align 4
  %40 = getelementptr inbounds %class.Image, %class.Image* %9, i32 0, i32 2
  %41 = load %class.Pixel**, %class.Pixel*** %40, align 8
  %42 = load i32, i32* %7, align 4
  %43 = sext i32 %42 to i64
  %44 = getelementptr inbounds %class.Pixel*, %class.Pixel** %41, i64 %43
  %45 = load %class.Pixel*, %class.Pixel** %44, align 8
  %46 = load i32, i32* %8, align 4
  %47 = sext i32 %46 to i64
  %48 = getelementptr inbounds %class.Pixel, %class.Pixel* %45, i64 %47
  %49 = getelementptr inbounds %class.Pixel, %class.Pixel* %48, i32 0, i32 1
  %50 = load float, float* %49, align 4
  %51 = fmul float %39, %50
  %52 = fadd float %38, %51
  %53 = load float, float* %6, align 4
  %54 = getelementptr inbounds %class.Image, %class.Image* %9, i32 0, i32 2
  %55 = load %class.Pixel**, %class.Pixel*** %54, align 8
  %56 = load i32, i32* %7, align 4
  %57 = sext i32 %56 to i64
  %58 = getelementptr inbounds %class.Pixel*, %class.Pixel** %55, i64 %57
  %59 = load %class.Pixel*, %class.Pixel** %58, align 8
  %60 = load i32, i32* %8, align 4
  %61 = sext i32 %60 to i64
  %62 = getelementptr inbounds %class.Pixel, %class.Pixel* %59, i64 %61
  %63 = getelementptr inbounds %class.Pixel, %class.Pixel* %62, i32 0, i32 2
  %64 = load float, float* %63, align 4
  %65 = fmul float %53, %64
  %66 = fadd float %52, %65
  store float %66, float* %3, align 4
  %67 = load float, float* %3, align 4
  %68 = getelementptr inbounds %class.Image, %class.Image* %9, i32 0, i32 2
  %69 = load %class.Pixel**, %class.Pixel*** %68, align 8
  %70 = load i32, i32* %7, align 4
  %71 = sext i32 %70 to i64
  %72 = getelementptr inbounds %class.Pixel*, %class.Pixel** %69, i64 %71
  %73 = load %class.Pixel*, %class.Pixel** %72, align 8
  %74 = load i32, i32* %8, align 4
  %75 = sext i32 %74 to i64
  %76 = getelementptr inbounds %class.Pixel, %class.Pixel* %73, i64 %75
  %77 = getelementptr inbounds %class.Pixel, %class.Pixel* %76, i32 0, i32 0
  store float %67, float* %77, align 4
  %78 = load float, float* %3, align 4
  %79 = getelementptr inbounds %class.Image, %class.Image* %9, i32 0, i32 2
  %80 = load %class.Pixel**, %class.Pixel*** %79, align 8
  %81 = load i32, i32* %7, align 4
  %82 = sext i32 %81 to i64
  %83 = getelementptr inbounds %class.Pixel*, %class.Pixel** %80, i64 %82
  %84 = load %class.Pixel*, %class.Pixel** %83, align 8
  %85 = load i32, i32* %8, align 4
  %86 = sext i32 %85 to i64
  %87 = getelementptr inbounds %class.Pixel, %class.Pixel* %84, i64 %86
  %88 = getelementptr inbounds %class.Pixel, %class.Pixel* %87, i32 0, i32 1
  store float %78, float* %88, align 4
  %89 = load float, float* %3, align 4
  %90 = getelementptr inbounds %class.Image, %class.Image* %9, i32 0, i32 2
  %91 = load %class.Pixel**, %class.Pixel*** %90, align 8
  %92 = load i32, i32* %7, align 4
  %93 = sext i32 %92 to i64
  %94 = getelementptr inbounds %class.Pixel*, %class.Pixel** %91, i64 %93
  %95 = load %class.Pixel*, %class.Pixel** %94, align 8
  %96 = load i32, i32* %8, align 4
  %97 = sext i32 %96 to i64
  %98 = getelementptr inbounds %class.Pixel, %class.Pixel* %95, i64 %97
  %99 = getelementptr inbounds %class.Pixel, %class.Pixel* %98, i32 0, i32 2
  store float %89, float* %99, align 4
  br label %100

; <label>:100:                                    ; preds = %25
  %101 = load i32, i32* %8, align 4
  %102 = add nsw i32 %101, 1
  store i32 %102, i32* %8, align 4
  br label %20

; <label>:103:                                    ; preds = %20
  br label %104

; <label>:104:                                    ; preds = %103
  %105 = load i32, i32* %7, align 4
  %106 = add nsw i32 %105, 1
  store i32 %106, i32* %7, align 4
  br label %14

; <label>:107:                                    ; preds = %14
  ret void
}

; Function Attrs: noinline nounwind optnone uwtable
define linkonce_odr dso_local void @_ZNSt12_Vector_baseIiSaIiEEC2Ev(%"struct.std::_Vector_base"*) unnamed_addr #5 comdat align 2 {
  %2 = alloca %"struct.std::_Vector_base"*, align 8
  store %"struct.std::_Vector_base"* %0, %"struct.std::_Vector_base"** %2, align 8
  %3 = load %"struct.std::_Vector_base"*, %"struct.std::_Vector_base"** %2, align 8
  %4 = getelementptr inbounds %"struct.std::_Vector_base", %"struct.std::_Vector_base"* %3, i32 0, i32 0
  call void @_ZNSt12_Vector_baseIiSaIiEE12_Vector_implC2Ev(%"struct.std::_Vector_base<int, std::allocator<int> >::_Vector_impl"* %4) #3
  ret void
}

; Function Attrs: noinline nounwind optnone uwtable
define linkonce_odr dso_local void @_ZNSt12_Vector_baseIiSaIiEE12_Vector_implC2Ev(%"struct.std::_Vector_base<int, std::allocator<int> >::_Vector_impl"*) unnamed_addr #5 comdat align 2 {
  %2 = alloca %"struct.std::_Vector_base<int, std::allocator<int> >::_Vector_impl"*, align 8
  store %"struct.std::_Vector_base<int, std::allocator<int> >::_Vector_impl"* %0, %"struct.std::_Vector_base<int, std::allocator<int> >::_Vector_impl"** %2, align 8
  %3 = load %"struct.std::_Vector_base<int, std::allocator<int> >::_Vector_impl"*, %"struct.std::_Vector_base<int, std::allocator<int> >::_Vector_impl"** %2, align 8
  %4 = bitcast %"struct.std::_Vector_base<int, std::allocator<int> >::_Vector_impl"* %3 to %"class.std::allocator.0"*
  call void @_ZNSaIiEC2Ev(%"class.std::allocator.0"* %4) #3
  %5 = bitcast %"struct.std::_Vector_base<int, std::allocator<int> >::_Vector_impl"* %3 to %"struct.std::_Vector_base<int, std::allocator<int> >::_Vector_impl_data"*
  call void @_ZNSt12_Vector_baseIiSaIiEE17_Vector_impl_dataC2Ev(%"struct.std::_Vector_base<int, std::allocator<int> >::_Vector_impl_data"* %5) #3
  ret void
}

; Function Attrs: noinline nounwind optnone uwtable
define linkonce_odr dso_local void @_ZNSaIiEC2Ev(%"class.std::allocator.0"*) unnamed_addr #5 comdat align 2 {
  %2 = alloca %"class.std::allocator.0"*, align 8
  store %"class.std::allocator.0"* %0, %"class.std::allocator.0"** %2, align 8
  %3 = load %"class.std::allocator.0"*, %"class.std::allocator.0"** %2, align 8
  %4 = bitcast %"class.std::allocator.0"* %3 to %"class.__gnu_cxx::new_allocator.1"*
  call void @_ZN9__gnu_cxx13new_allocatorIiEC2Ev(%"class.__gnu_cxx::new_allocator.1"* %4) #3
  ret void
}

; Function Attrs: noinline nounwind optnone uwtable
define linkonce_odr dso_local void @_ZNSt12_Vector_baseIiSaIiEE17_Vector_impl_dataC2Ev(%"struct.std::_Vector_base<int, std::allocator<int> >::_Vector_impl_data"*) unnamed_addr #5 comdat align 2 {
  %2 = alloca %"struct.std::_Vector_base<int, std::allocator<int> >::_Vector_impl_data"*, align 8
  store %"struct.std::_Vector_base<int, std::allocator<int> >::_Vector_impl_data"* %0, %"struct.std::_Vector_base<int, std::allocator<int> >::_Vector_impl_data"** %2, align 8
  %3 = load %"struct.std::_Vector_base<int, std::allocator<int> >::_Vector_impl_data"*, %"struct.std::_Vector_base<int, std::allocator<int> >::_Vector_impl_data"** %2, align 8
  %4 = getelementptr inbounds %"struct.std::_Vector_base<int, std::allocator<int> >::_Vector_impl_data", %"struct.std::_Vector_base<int, std::allocator<int> >::_Vector_impl_data"* %3, i32 0, i32 0
  store i32* null, i32** %4, align 8
  %5 = getelementptr inbounds %"struct.std::_Vector_base<int, std::allocator<int> >::_Vector_impl_data", %"struct.std::_Vector_base<int, std::allocator<int> >::_Vector_impl_data"* %3, i32 0, i32 1
  store i32* null, i32** %5, align 8
  %6 = getelementptr inbounds %"struct.std::_Vector_base<int, std::allocator<int> >::_Vector_impl_data", %"struct.std::_Vector_base<int, std::allocator<int> >::_Vector_impl_data"* %3, i32 0, i32 2
  store i32* null, i32** %6, align 8
  ret void
}

; Function Attrs: noinline nounwind optnone uwtable
define linkonce_odr dso_local void @_ZN9__gnu_cxx13new_allocatorIiEC2Ev(%"class.__gnu_cxx::new_allocator.1"*) unnamed_addr #5 comdat align 2 {
  %2 = alloca %"class.__gnu_cxx::new_allocator.1"*, align 8
  store %"class.__gnu_cxx::new_allocator.1"* %0, %"class.__gnu_cxx::new_allocator.1"** %2, align 8
  %3 = load %"class.__gnu_cxx::new_allocator.1"*, %"class.__gnu_cxx::new_allocator.1"** %2, align 8
  ret void
}

; Function Attrs: noinline nounwind optnone uwtable
define linkonce_odr dso_local void @_ZNSt16allocator_traitsISaIiEE9constructIiJRKiEEEvRS0_PT_DpOT0_(%"class.std::allocator.0"* dereferenceable(1), i32*, i32* dereferenceable(4)) #5 comdat align 2 {
  %4 = alloca %"class.std::allocator.0"*, align 8
  %5 = alloca i32*, align 8
  %6 = alloca i32*, align 8
  store %"class.std::allocator.0"* %0, %"class.std::allocator.0"** %4, align 8
  store i32* %1, i32** %5, align 8
  store i32* %2, i32** %6, align 8
  %7 = load %"class.std::allocator.0"*, %"class.std::allocator.0"** %4, align 8
  %8 = bitcast %"class.std::allocator.0"* %7 to %"class.__gnu_cxx::new_allocator.1"*
  %9 = load i32*, i32** %5, align 8
  %10 = load i32*, i32** %6, align 8
  %11 = call dereferenceable(4) i32* @_ZSt7forwardIRKiEOT_RNSt16remove_referenceIS2_E4typeE(i32* dereferenceable(4) %10) #3
  call void @_ZN9__gnu_cxx13new_allocatorIiE9constructIiJRKiEEEvPT_DpOT0_(%"class.__gnu_cxx::new_allocator.1"* %8, i32* %9, i32* dereferenceable(4) %11) #3
  ret void
}

; Function Attrs: noinline optnone uwtable
define linkonce_odr dso_local void @_ZNSt6vectorIiSaIiEE17_M_realloc_insertIJRKiEEEvN9__gnu_cxx17__normal_iteratorIPiS1_EEDpOT_(%"class.std::vector"*, i32*, i32* dereferenceable(4)) #4 comdat align 2 {
  %4 = alloca %"class.__gnu_cxx::__normal_iterator", align 8
  %5 = alloca %"class.std::vector"*, align 8
  %6 = alloca i32*, align 8
  %7 = alloca i64, align 8
  %8 = alloca i32*, align 8
  %9 = alloca i32*, align 8
  %10 = alloca i64, align 8
  %11 = alloca %"class.__gnu_cxx::__normal_iterator", align 8
  %12 = alloca i32*, align 8
  %13 = alloca i32*, align 8
  %14 = getelementptr inbounds %"class.__gnu_cxx::__normal_iterator", %"class.__gnu_cxx::__normal_iterator"* %4, i32 0, i32 0
  store i32* %1, i32** %14, align 8
  store %"class.std::vector"* %0, %"class.std::vector"** %5, align 8
  store i32* %2, i32** %6, align 8
  %15 = load %"class.std::vector"*, %"class.std::vector"** %5, align 8
  %16 = call i64 @_ZNKSt6vectorIiSaIiEE12_M_check_lenEmPKc(%"class.std::vector"* %15, i64 1, i8* getelementptr inbounds ([26 x i8], [26 x i8]* @.str.9, i32 0, i32 0))
  store i64 %16, i64* %7, align 8
  %17 = bitcast %"class.std::vector"* %15 to %"struct.std::_Vector_base"*
  %18 = getelementptr inbounds %"struct.std::_Vector_base", %"struct.std::_Vector_base"* %17, i32 0, i32 0
  %19 = bitcast %"struct.std::_Vector_base<int, std::allocator<int> >::_Vector_impl"* %18 to %"struct.std::_Vector_base<int, std::allocator<int> >::_Vector_impl_data"*
  %20 = getelementptr inbounds %"struct.std::_Vector_base<int, std::allocator<int> >::_Vector_impl_data", %"struct.std::_Vector_base<int, std::allocator<int> >::_Vector_impl_data"* %19, i32 0, i32 0
  %21 = load i32*, i32** %20, align 8
  store i32* %21, i32** %8, align 8
  %22 = bitcast %"class.std::vector"* %15 to %"struct.std::_Vector_base"*
  %23 = getelementptr inbounds %"struct.std::_Vector_base", %"struct.std::_Vector_base"* %22, i32 0, i32 0
  %24 = bitcast %"struct.std::_Vector_base<int, std::allocator<int> >::_Vector_impl"* %23 to %"struct.std::_Vector_base<int, std::allocator<int> >::_Vector_impl_data"*
  %25 = getelementptr inbounds %"struct.std::_Vector_base<int, std::allocator<int> >::_Vector_impl_data", %"struct.std::_Vector_base<int, std::allocator<int> >::_Vector_impl_data"* %24, i32 0, i32 1
  %26 = load i32*, i32** %25, align 8
  store i32* %26, i32** %9, align 8
  %27 = call i32* @_ZNSt6vectorIiSaIiEE5beginEv(%"class.std::vector"* %15) #3
  %28 = getelementptr inbounds %"class.__gnu_cxx::__normal_iterator", %"class.__gnu_cxx::__normal_iterator"* %11, i32 0, i32 0
  store i32* %27, i32** %28, align 8
  %29 = call i64 @_ZN9__gnu_cxxmiIPiSt6vectorIiSaIiEEEENS_17__normal_iteratorIT_T0_E15difference_typeERKS8_SB_(%"class.__gnu_cxx::__normal_iterator"* dereferenceable(8) %4, %"class.__gnu_cxx::__normal_iterator"* dereferenceable(8) %11) #3
  store i64 %29, i64* %10, align 8
  %30 = bitcast %"class.std::vector"* %15 to %"struct.std::_Vector_base"*
  %31 = load i64, i64* %7, align 8
  %32 = call i32* @_ZNSt12_Vector_baseIiSaIiEE11_M_allocateEm(%"struct.std::_Vector_base"* %30, i64 %31)
  store i32* %32, i32** %12, align 8
  %33 = load i32*, i32** %12, align 8
  store i32* %33, i32** %13, align 8
  %34 = bitcast %"class.std::vector"* %15 to %"struct.std::_Vector_base"*
  %35 = getelementptr inbounds %"struct.std::_Vector_base", %"struct.std::_Vector_base"* %34, i32 0, i32 0
  %36 = bitcast %"struct.std::_Vector_base<int, std::allocator<int> >::_Vector_impl"* %35 to %"class.std::allocator.0"*
  %37 = load i32*, i32** %12, align 8
  %38 = load i64, i64* %10, align 8
  %39 = getelementptr inbounds i32, i32* %37, i64 %38
  %40 = load i32*, i32** %6, align 8
  %41 = call dereferenceable(4) i32* @_ZSt7forwardIRKiEOT_RNSt16remove_referenceIS2_E4typeE(i32* dereferenceable(4) %40) #3
  call void @_ZNSt16allocator_traitsISaIiEE9constructIiJRKiEEEvRS0_PT_DpOT0_(%"class.std::allocator.0"* dereferenceable(1) %36, i32* %39, i32* dereferenceable(4) %41) #3
  store i32* null, i32** %13, align 8
  %42 = load i32*, i32** %8, align 8
  %43 = call dereferenceable(8) i32** @_ZNK9__gnu_cxx17__normal_iteratorIPiSt6vectorIiSaIiEEE4baseEv(%"class.__gnu_cxx::__normal_iterator"* %4) #3
  %44 = load i32*, i32** %43, align 8
  %45 = load i32*, i32** %12, align 8
  %46 = bitcast %"class.std::vector"* %15 to %"struct.std::_Vector_base"*
  %47 = call dereferenceable(1) %"class.std::allocator.0"* @_ZNSt12_Vector_baseIiSaIiEE19_M_get_Tp_allocatorEv(%"struct.std::_Vector_base"* %46) #3
  %48 = call i32* @_ZNSt6vectorIiSaIiEE11_S_relocateEPiS2_S2_RS0_(i32* %42, i32* %44, i32* %45, %"class.std::allocator.0"* dereferenceable(1) %47) #3
  store i32* %48, i32** %13, align 8
  %49 = load i32*, i32** %13, align 8
  %50 = getelementptr inbounds i32, i32* %49, i32 1
  store i32* %50, i32** %13, align 8
  %51 = call dereferenceable(8) i32** @_ZNK9__gnu_cxx17__normal_iteratorIPiSt6vectorIiSaIiEEE4baseEv(%"class.__gnu_cxx::__normal_iterator"* %4) #3
  %52 = load i32*, i32** %51, align 8
  %53 = load i32*, i32** %9, align 8
  %54 = load i32*, i32** %13, align 8
  %55 = bitcast %"class.std::vector"* %15 to %"struct.std::_Vector_base"*
  %56 = call dereferenceable(1) %"class.std::allocator.0"* @_ZNSt12_Vector_baseIiSaIiEE19_M_get_Tp_allocatorEv(%"struct.std::_Vector_base"* %55) #3
  %57 = call i32* @_ZNSt6vectorIiSaIiEE11_S_relocateEPiS2_S2_RS0_(i32* %52, i32* %53, i32* %54, %"class.std::allocator.0"* dereferenceable(1) %56) #3
  store i32* %57, i32** %13, align 8
  %58 = bitcast %"class.std::vector"* %15 to %"struct.std::_Vector_base"*
  %59 = load i32*, i32** %8, align 8
  %60 = bitcast %"class.std::vector"* %15 to %"struct.std::_Vector_base"*
  %61 = getelementptr inbounds %"struct.std::_Vector_base", %"struct.std::_Vector_base"* %60, i32 0, i32 0
  %62 = bitcast %"struct.std::_Vector_base<int, std::allocator<int> >::_Vector_impl"* %61 to %"struct.std::_Vector_base<int, std::allocator<int> >::_Vector_impl_data"*
  %63 = getelementptr inbounds %"struct.std::_Vector_base<int, std::allocator<int> >::_Vector_impl_data", %"struct.std::_Vector_base<int, std::allocator<int> >::_Vector_impl_data"* %62, i32 0, i32 2
  %64 = load i32*, i32** %63, align 8
  %65 = load i32*, i32** %8, align 8
  %66 = ptrtoint i32* %64 to i64
  %67 = ptrtoint i32* %65 to i64
  %68 = sub i64 %66, %67
  %69 = sdiv exact i64 %68, 4
  call void @_ZNSt12_Vector_baseIiSaIiEE13_M_deallocateEPim(%"struct.std::_Vector_base"* %58, i32* %59, i64 %69)
  %70 = load i32*, i32** %12, align 8
  %71 = bitcast %"class.std::vector"* %15 to %"struct.std::_Vector_base"*
  %72 = getelementptr inbounds %"struct.std::_Vector_base", %"struct.std::_Vector_base"* %71, i32 0, i32 0
  %73 = bitcast %"struct.std::_Vector_base<int, std::allocator<int> >::_Vector_impl"* %72 to %"struct.std::_Vector_base<int, std::allocator<int> >::_Vector_impl_data"*
  %74 = getelementptr inbounds %"struct.std::_Vector_base<int, std::allocator<int> >::_Vector_impl_data", %"struct.std::_Vector_base<int, std::allocator<int> >::_Vector_impl_data"* %73, i32 0, i32 0
  store i32* %70, i32** %74, align 8
  %75 = load i32*, i32** %13, align 8
  %76 = bitcast %"class.std::vector"* %15 to %"struct.std::_Vector_base"*
  %77 = getelementptr inbounds %"struct.std::_Vector_base", %"struct.std::_Vector_base"* %76, i32 0, i32 0
  %78 = bitcast %"struct.std::_Vector_base<int, std::allocator<int> >::_Vector_impl"* %77 to %"struct.std::_Vector_base<int, std::allocator<int> >::_Vector_impl_data"*
  %79 = getelementptr inbounds %"struct.std::_Vector_base<int, std::allocator<int> >::_Vector_impl_data", %"struct.std::_Vector_base<int, std::allocator<int> >::_Vector_impl_data"* %78, i32 0, i32 1
  store i32* %75, i32** %79, align 8
  %80 = load i32*, i32** %12, align 8
  %81 = load i64, i64* %7, align 8
  %82 = getelementptr inbounds i32, i32* %80, i64 %81
  %83 = bitcast %"class.std::vector"* %15 to %"struct.std::_Vector_base"*
  %84 = getelementptr inbounds %"struct.std::_Vector_base", %"struct.std::_Vector_base"* %83, i32 0, i32 0
  %85 = bitcast %"struct.std::_Vector_base<int, std::allocator<int> >::_Vector_impl"* %84 to %"struct.std::_Vector_base<int, std::allocator<int> >::_Vector_impl_data"*
  %86 = getelementptr inbounds %"struct.std::_Vector_base<int, std::allocator<int> >::_Vector_impl_data", %"struct.std::_Vector_base<int, std::allocator<int> >::_Vector_impl_data"* %85, i32 0, i32 2
  store i32* %82, i32** %86, align 8
  ret void
}

; Function Attrs: noinline nounwind optnone uwtable
define linkonce_odr dso_local i32* @_ZNSt6vectorIiSaIiEE3endEv(%"class.std::vector"*) #5 comdat align 2 {
  %2 = alloca %"class.__gnu_cxx::__normal_iterator", align 8
  %3 = alloca %"class.std::vector"*, align 8
  store %"class.std::vector"* %0, %"class.std::vector"** %3, align 8
  %4 = load %"class.std::vector"*, %"class.std::vector"** %3, align 8
  %5 = bitcast %"class.std::vector"* %4 to %"struct.std::_Vector_base"*
  %6 = getelementptr inbounds %"struct.std::_Vector_base", %"struct.std::_Vector_base"* %5, i32 0, i32 0
  %7 = bitcast %"struct.std::_Vector_base<int, std::allocator<int> >::_Vector_impl"* %6 to %"struct.std::_Vector_base<int, std::allocator<int> >::_Vector_impl_data"*
  %8 = getelementptr inbounds %"struct.std::_Vector_base<int, std::allocator<int> >::_Vector_impl_data", %"struct.std::_Vector_base<int, std::allocator<int> >::_Vector_impl_data"* %7, i32 0, i32 1
  call void @_ZN9__gnu_cxx17__normal_iteratorIPiSt6vectorIiSaIiEEEC2ERKS1_(%"class.__gnu_cxx::__normal_iterator"* %2, i32** dereferenceable(8) %8) #3
  %9 = getelementptr inbounds %"class.__gnu_cxx::__normal_iterator", %"class.__gnu_cxx::__normal_iterator"* %2, i32 0, i32 0
  %10 = load i32*, i32** %9, align 8
  ret i32* %10
}

; Function Attrs: noinline nounwind optnone uwtable
define linkonce_odr dso_local void @_ZN9__gnu_cxx13new_allocatorIiE9constructIiJRKiEEEvPT_DpOT0_(%"class.__gnu_cxx::new_allocator.1"*, i32*, i32* dereferenceable(4)) #5 comdat align 2 {
  %4 = alloca %"class.__gnu_cxx::new_allocator.1"*, align 8
  %5 = alloca i32*, align 8
  %6 = alloca i32*, align 8
  store %"class.__gnu_cxx::new_allocator.1"* %0, %"class.__gnu_cxx::new_allocator.1"** %4, align 8
  store i32* %1, i32** %5, align 8
  store i32* %2, i32** %6, align 8
  %7 = load %"class.__gnu_cxx::new_allocator.1"*, %"class.__gnu_cxx::new_allocator.1"** %4, align 8
  %8 = load i32*, i32** %5, align 8
  %9 = bitcast i32* %8 to i8*
  %10 = bitcast i8* %9 to i32*
  %11 = load i32*, i32** %6, align 8
  %12 = call dereferenceable(4) i32* @_ZSt7forwardIRKiEOT_RNSt16remove_referenceIS2_E4typeE(i32* dereferenceable(4) %11) #3
  %13 = load i32, i32* %12, align 4
  store i32 %13, i32* %10, align 4
  ret void
}

; Function Attrs: noinline nounwind optnone uwtable
define linkonce_odr dso_local dereferenceable(4) i32* @_ZSt7forwardIRKiEOT_RNSt16remove_referenceIS2_E4typeE(i32* dereferenceable(4)) #5 comdat {
  %2 = alloca i32*, align 8
  store i32* %0, i32** %2, align 8
  %3 = load i32*, i32** %2, align 8
  ret i32* %3
}

; Function Attrs: noinline optnone uwtable
define linkonce_odr dso_local i64 @_ZNKSt6vectorIiSaIiEE12_M_check_lenEmPKc(%"class.std::vector"*, i64, i8*) #4 comdat align 2 {
  %4 = alloca %"class.std::vector"*, align 8
  %5 = alloca i64, align 8
  %6 = alloca i8*, align 8
  %7 = alloca i64, align 8
  %8 = alloca i64, align 8
  store %"class.std::vector"* %0, %"class.std::vector"** %4, align 8
  store i64 %1, i64* %5, align 8
  store i8* %2, i8** %6, align 8
  %9 = load %"class.std::vector"*, %"class.std::vector"** %4, align 8
  %10 = call i64 @_ZNKSt6vectorIiSaIiEE8max_sizeEv(%"class.std::vector"* %9) #3
  %11 = call i64 @_ZNKSt6vectorIiSaIiEE4sizeEv(%"class.std::vector"* %9) #3
  %12 = sub i64 %10, %11
  %13 = load i64, i64* %5, align 8
  %14 = icmp ult i64 %12, %13
  br i1 %14, label %15, label %17

; <label>:15:                                     ; preds = %3
  %16 = load i8*, i8** %6, align 8
  call void @_ZSt20__throw_length_errorPKc(i8* %16) #15
  unreachable

; <label>:17:                                     ; preds = %3
  %18 = call i64 @_ZNKSt6vectorIiSaIiEE4sizeEv(%"class.std::vector"* %9) #3
  %19 = call i64 @_ZNKSt6vectorIiSaIiEE4sizeEv(%"class.std::vector"* %9) #3
  store i64 %19, i64* %8, align 8
  %20 = call dereferenceable(8) i64* @_ZSt3maxImERKT_S2_S2_(i64* dereferenceable(8) %8, i64* dereferenceable(8) %5)
  %21 = load i64, i64* %20, align 8
  %22 = add i64 %18, %21
  store i64 %22, i64* %7, align 8
  %23 = load i64, i64* %7, align 8
  %24 = call i64 @_ZNKSt6vectorIiSaIiEE4sizeEv(%"class.std::vector"* %9) #3
  %25 = icmp ult i64 %23, %24
  br i1 %25, label %30, label %26

; <label>:26:                                     ; preds = %17
  %27 = load i64, i64* %7, align 8
  %28 = call i64 @_ZNKSt6vectorIiSaIiEE8max_sizeEv(%"class.std::vector"* %9) #3
  %29 = icmp ugt i64 %27, %28
  br i1 %29, label %30, label %32

; <label>:30:                                     ; preds = %26, %17
  %31 = call i64 @_ZNKSt6vectorIiSaIiEE8max_sizeEv(%"class.std::vector"* %9) #3
  br label %34

; <label>:32:                                     ; preds = %26
  %33 = load i64, i64* %7, align 8
  br label %34

; <label>:34:                                     ; preds = %32, %30
  %35 = phi i64 [ %31, %30 ], [ %33, %32 ]
  ret i64 %35
}

; Function Attrs: noinline nounwind optnone uwtable
define linkonce_odr dso_local i64 @_ZN9__gnu_cxxmiIPiSt6vectorIiSaIiEEEENS_17__normal_iteratorIT_T0_E15difference_typeERKS8_SB_(%"class.__gnu_cxx::__normal_iterator"* dereferenceable(8), %"class.__gnu_cxx::__normal_iterator"* dereferenceable(8)) #5 comdat {
  %3 = alloca %"class.__gnu_cxx::__normal_iterator"*, align 8
  %4 = alloca %"class.__gnu_cxx::__normal_iterator"*, align 8
  store %"class.__gnu_cxx::__normal_iterator"* %0, %"class.__gnu_cxx::__normal_iterator"** %3, align 8
  store %"class.__gnu_cxx::__normal_iterator"* %1, %"class.__gnu_cxx::__normal_iterator"** %4, align 8
  %5 = load %"class.__gnu_cxx::__normal_iterator"*, %"class.__gnu_cxx::__normal_iterator"** %3, align 8
  %6 = call dereferenceable(8) i32** @_ZNK9__gnu_cxx17__normal_iteratorIPiSt6vectorIiSaIiEEE4baseEv(%"class.__gnu_cxx::__normal_iterator"* %5) #3
  %7 = load i32*, i32** %6, align 8
  %8 = load %"class.__gnu_cxx::__normal_iterator"*, %"class.__gnu_cxx::__normal_iterator"** %4, align 8
  %9 = call dereferenceable(8) i32** @_ZNK9__gnu_cxx17__normal_iteratorIPiSt6vectorIiSaIiEEE4baseEv(%"class.__gnu_cxx::__normal_iterator"* %8) #3
  %10 = load i32*, i32** %9, align 8
  %11 = ptrtoint i32* %7 to i64
  %12 = ptrtoint i32* %10 to i64
  %13 = sub i64 %11, %12
  %14 = sdiv exact i64 %13, 4
  ret i64 %14
}

; Function Attrs: noinline nounwind optnone uwtable
define linkonce_odr dso_local i32* @_ZNSt6vectorIiSaIiEE5beginEv(%"class.std::vector"*) #5 comdat align 2 {
  %2 = alloca %"class.__gnu_cxx::__normal_iterator", align 8
  %3 = alloca %"class.std::vector"*, align 8
  store %"class.std::vector"* %0, %"class.std::vector"** %3, align 8
  %4 = load %"class.std::vector"*, %"class.std::vector"** %3, align 8
  %5 = bitcast %"class.std::vector"* %4 to %"struct.std::_Vector_base"*
  %6 = getelementptr inbounds %"struct.std::_Vector_base", %"struct.std::_Vector_base"* %5, i32 0, i32 0
  %7 = bitcast %"struct.std::_Vector_base<int, std::allocator<int> >::_Vector_impl"* %6 to %"struct.std::_Vector_base<int, std::allocator<int> >::_Vector_impl_data"*
  %8 = getelementptr inbounds %"struct.std::_Vector_base<int, std::allocator<int> >::_Vector_impl_data", %"struct.std::_Vector_base<int, std::allocator<int> >::_Vector_impl_data"* %7, i32 0, i32 0
  call void @_ZN9__gnu_cxx17__normal_iteratorIPiSt6vectorIiSaIiEEEC2ERKS1_(%"class.__gnu_cxx::__normal_iterator"* %2, i32** dereferenceable(8) %8) #3
  %9 = getelementptr inbounds %"class.__gnu_cxx::__normal_iterator", %"class.__gnu_cxx::__normal_iterator"* %2, i32 0, i32 0
  %10 = load i32*, i32** %9, align 8
  ret i32* %10
}

; Function Attrs: noinline optnone uwtable
define linkonce_odr dso_local i32* @_ZNSt12_Vector_baseIiSaIiEE11_M_allocateEm(%"struct.std::_Vector_base"*, i64) #4 comdat align 2 {
  %3 = alloca %"struct.std::_Vector_base"*, align 8
  %4 = alloca i64, align 8
  store %"struct.std::_Vector_base"* %0, %"struct.std::_Vector_base"** %3, align 8
  store i64 %1, i64* %4, align 8
  %5 = load %"struct.std::_Vector_base"*, %"struct.std::_Vector_base"** %3, align 8
  %6 = load i64, i64* %4, align 8
  %7 = icmp ne i64 %6, 0
  br i1 %7, label %8, label %13

; <label>:8:                                      ; preds = %2
  %9 = getelementptr inbounds %"struct.std::_Vector_base", %"struct.std::_Vector_base"* %5, i32 0, i32 0
  %10 = bitcast %"struct.std::_Vector_base<int, std::allocator<int> >::_Vector_impl"* %9 to %"class.std::allocator.0"*
  %11 = load i64, i64* %4, align 8
  %12 = call i32* @_ZNSt16allocator_traitsISaIiEE8allocateERS0_m(%"class.std::allocator.0"* dereferenceable(1) %10, i64 %11)
  br label %14

; <label>:13:                                     ; preds = %2
  br label %14

; <label>:14:                                     ; preds = %13, %8
  %15 = phi i32* [ %12, %8 ], [ null, %13 ]
  ret i32* %15
}

; Function Attrs: noinline nounwind optnone uwtable
define linkonce_odr dso_local i32* @_ZNSt6vectorIiSaIiEE11_S_relocateEPiS2_S2_RS0_(i32*, i32*, i32*, %"class.std::allocator.0"* dereferenceable(1)) #5 comdat align 2 {
  %5 = alloca i32*, align 8
  %6 = alloca i32*, align 8
  %7 = alloca i32*, align 8
  %8 = alloca %"class.std::allocator.0"*, align 8
  %9 = alloca %"struct.std::integral_constant", align 1
  store i32* %0, i32** %5, align 8
  store i32* %1, i32** %6, align 8
  store i32* %2, i32** %7, align 8
  store %"class.std::allocator.0"* %3, %"class.std::allocator.0"** %8, align 8
  %10 = load i32*, i32** %5, align 8
  %11 = load i32*, i32** %6, align 8
  %12 = load i32*, i32** %7, align 8
  %13 = load %"class.std::allocator.0"*, %"class.std::allocator.0"** %8, align 8
  %14 = call i32* @_ZNSt6vectorIiSaIiEE14_S_do_relocateEPiS2_S2_RS0_St17integral_constantIbLb1EE(i32* %10, i32* %11, i32* %12, %"class.std::allocator.0"* dereferenceable(1) %13) #3
  ret i32* %14
}

; Function Attrs: noinline nounwind optnone uwtable
define linkonce_odr dso_local dereferenceable(8) i32** @_ZNK9__gnu_cxx17__normal_iteratorIPiSt6vectorIiSaIiEEE4baseEv(%"class.__gnu_cxx::__normal_iterator"*) #5 comdat align 2 {
  %2 = alloca %"class.__gnu_cxx::__normal_iterator"*, align 8
  store %"class.__gnu_cxx::__normal_iterator"* %0, %"class.__gnu_cxx::__normal_iterator"** %2, align 8
  %3 = load %"class.__gnu_cxx::__normal_iterator"*, %"class.__gnu_cxx::__normal_iterator"** %2, align 8
  %4 = getelementptr inbounds %"class.__gnu_cxx::__normal_iterator", %"class.__gnu_cxx::__normal_iterator"* %3, i32 0, i32 0
  ret i32** %4
}

; Function Attrs: noinline nounwind optnone uwtable
define linkonce_odr dso_local dereferenceable(1) %"class.std::allocator.0"* @_ZNSt12_Vector_baseIiSaIiEE19_M_get_Tp_allocatorEv(%"struct.std::_Vector_base"*) #5 comdat align 2 {
  %2 = alloca %"struct.std::_Vector_base"*, align 8
  store %"struct.std::_Vector_base"* %0, %"struct.std::_Vector_base"** %2, align 8
  %3 = load %"struct.std::_Vector_base"*, %"struct.std::_Vector_base"** %2, align 8
  %4 = getelementptr inbounds %"struct.std::_Vector_base", %"struct.std::_Vector_base"* %3, i32 0, i32 0
  %5 = bitcast %"struct.std::_Vector_base<int, std::allocator<int> >::_Vector_impl"* %4 to %"class.std::allocator.0"*
  ret %"class.std::allocator.0"* %5
}

; Function Attrs: noinline optnone uwtable
define linkonce_odr dso_local void @_ZNSt12_Vector_baseIiSaIiEE13_M_deallocateEPim(%"struct.std::_Vector_base"*, i32*, i64) #4 comdat align 2 {
  %4 = alloca %"struct.std::_Vector_base"*, align 8
  %5 = alloca i32*, align 8
  %6 = alloca i64, align 8
  store %"struct.std::_Vector_base"* %0, %"struct.std::_Vector_base"** %4, align 8
  store i32* %1, i32** %5, align 8
  store i64 %2, i64* %6, align 8
  %7 = load %"struct.std::_Vector_base"*, %"struct.std::_Vector_base"** %4, align 8
  %8 = load i32*, i32** %5, align 8
  %9 = icmp ne i32* %8, null
  br i1 %9, label %10, label %15

; <label>:10:                                     ; preds = %3
  %11 = getelementptr inbounds %"struct.std::_Vector_base", %"struct.std::_Vector_base"* %7, i32 0, i32 0
  %12 = bitcast %"struct.std::_Vector_base<int, std::allocator<int> >::_Vector_impl"* %11 to %"class.std::allocator.0"*
  %13 = load i32*, i32** %5, align 8
  %14 = load i64, i64* %6, align 8
  call void @_ZNSt16allocator_traitsISaIiEE10deallocateERS0_Pim(%"class.std::allocator.0"* dereferenceable(1) %12, i32* %13, i64 %14)
  br label %15

; <label>:15:                                     ; preds = %10, %3
  ret void
}

; Function Attrs: noinline nounwind optnone uwtable
define linkonce_odr dso_local i64 @_ZNKSt6vectorIiSaIiEE8max_sizeEv(%"class.std::vector"*) #5 comdat align 2 {
  %2 = alloca %"class.std::vector"*, align 8
  store %"class.std::vector"* %0, %"class.std::vector"** %2, align 8
  %3 = load %"class.std::vector"*, %"class.std::vector"** %2, align 8
  %4 = bitcast %"class.std::vector"* %3 to %"struct.std::_Vector_base"*
  %5 = call dereferenceable(1) %"class.std::allocator.0"* @_ZNKSt12_Vector_baseIiSaIiEE19_M_get_Tp_allocatorEv(%"struct.std::_Vector_base"* %4) #3
  %6 = call i64 @_ZNSt6vectorIiSaIiEE11_S_max_sizeERKS0_(%"class.std::allocator.0"* dereferenceable(1) %5) #3
  ret i64 %6
}

; Function Attrs: noinline nounwind optnone uwtable
define linkonce_odr dso_local i64 @_ZNKSt6vectorIiSaIiEE4sizeEv(%"class.std::vector"*) #5 comdat align 2 {
  %2 = alloca %"class.std::vector"*, align 8
  store %"class.std::vector"* %0, %"class.std::vector"** %2, align 8
  %3 = load %"class.std::vector"*, %"class.std::vector"** %2, align 8
  %4 = bitcast %"class.std::vector"* %3 to %"struct.std::_Vector_base"*
  %5 = getelementptr inbounds %"struct.std::_Vector_base", %"struct.std::_Vector_base"* %4, i32 0, i32 0
  %6 = bitcast %"struct.std::_Vector_base<int, std::allocator<int> >::_Vector_impl"* %5 to %"struct.std::_Vector_base<int, std::allocator<int> >::_Vector_impl_data"*
  %7 = getelementptr inbounds %"struct.std::_Vector_base<int, std::allocator<int> >::_Vector_impl_data", %"struct.std::_Vector_base<int, std::allocator<int> >::_Vector_impl_data"* %6, i32 0, i32 1
  %8 = load i32*, i32** %7, align 8
  %9 = bitcast %"class.std::vector"* %3 to %"struct.std::_Vector_base"*
  %10 = getelementptr inbounds %"struct.std::_Vector_base", %"struct.std::_Vector_base"* %9, i32 0, i32 0
  %11 = bitcast %"struct.std::_Vector_base<int, std::allocator<int> >::_Vector_impl"* %10 to %"struct.std::_Vector_base<int, std::allocator<int> >::_Vector_impl_data"*
  %12 = getelementptr inbounds %"struct.std::_Vector_base<int, std::allocator<int> >::_Vector_impl_data", %"struct.std::_Vector_base<int, std::allocator<int> >::_Vector_impl_data"* %11, i32 0, i32 0
  %13 = load i32*, i32** %12, align 8
  %14 = ptrtoint i32* %8 to i64
  %15 = ptrtoint i32* %13 to i64
  %16 = sub i64 %14, %15
  %17 = sdiv exact i64 %16, 4
  ret i64 %17
}

; Function Attrs: noreturn
declare dso_local void @_ZSt20__throw_length_errorPKc(i8*) #9

; Function Attrs: noinline nounwind optnone uwtable
define linkonce_odr dso_local dereferenceable(8) i64* @_ZSt3maxImERKT_S2_S2_(i64* dereferenceable(8), i64* dereferenceable(8)) #5 comdat {
  %3 = alloca i64*, align 8
  %4 = alloca i64*, align 8
  %5 = alloca i64*, align 8
  store i64* %0, i64** %4, align 8
  store i64* %1, i64** %5, align 8
  %6 = load i64*, i64** %4, align 8
  %7 = load i64, i64* %6, align 8
  %8 = load i64*, i64** %5, align 8
  %9 = load i64, i64* %8, align 8
  %10 = icmp ult i64 %7, %9
  br i1 %10, label %11, label %13

; <label>:11:                                     ; preds = %2
  %12 = load i64*, i64** %5, align 8
  store i64* %12, i64** %3, align 8
  br label %15

; <label>:13:                                     ; preds = %2
  %14 = load i64*, i64** %4, align 8
  store i64* %14, i64** %3, align 8
  br label %15

; <label>:15:                                     ; preds = %13, %11
  %16 = load i64*, i64** %3, align 8
  ret i64* %16
}

; Function Attrs: noinline nounwind optnone uwtable
define linkonce_odr dso_local i64 @_ZNSt6vectorIiSaIiEE11_S_max_sizeERKS0_(%"class.std::allocator.0"* dereferenceable(1)) #5 comdat align 2 personality i8* bitcast (i32 (...)* @__gxx_personality_v0 to i8*) {
  %2 = alloca %"class.std::allocator.0"*, align 8
  %3 = alloca i64, align 8
  %4 = alloca i64, align 8
  store %"class.std::allocator.0"* %0, %"class.std::allocator.0"** %2, align 8
  store i64 2305843009213693951, i64* %3, align 8
  %5 = load %"class.std::allocator.0"*, %"class.std::allocator.0"** %2, align 8
  %6 = call i64 @_ZNSt16allocator_traitsISaIiEE8max_sizeERKS0_(%"class.std::allocator.0"* dereferenceable(1) %5) #3
  store i64 %6, i64* %4, align 8
  %7 = invoke dereferenceable(8) i64* @_ZSt3minImERKT_S2_S2_(i64* dereferenceable(8) %3, i64* dereferenceable(8) %4)
          to label %8 unwind label %10

; <label>:8:                                      ; preds = %1
  %9 = load i64, i64* %7, align 8
  ret i64 %9

; <label>:10:                                     ; preds = %1
  %11 = landingpad { i8*, i32 }
          catch i8* null
  %12 = extractvalue { i8*, i32 } %11, 0
  call void @__clang_call_terminate(i8* %12) #14
  unreachable
}

; Function Attrs: noinline nounwind optnone uwtable
define linkonce_odr dso_local dereferenceable(1) %"class.std::allocator.0"* @_ZNKSt12_Vector_baseIiSaIiEE19_M_get_Tp_allocatorEv(%"struct.std::_Vector_base"*) #5 comdat align 2 {
  %2 = alloca %"struct.std::_Vector_base"*, align 8
  store %"struct.std::_Vector_base"* %0, %"struct.std::_Vector_base"** %2, align 8
  %3 = load %"struct.std::_Vector_base"*, %"struct.std::_Vector_base"** %2, align 8
  %4 = getelementptr inbounds %"struct.std::_Vector_base", %"struct.std::_Vector_base"* %3, i32 0, i32 0
  %5 = bitcast %"struct.std::_Vector_base<int, std::allocator<int> >::_Vector_impl"* %4 to %"class.std::allocator.0"*
  ret %"class.std::allocator.0"* %5
}

; Function Attrs: noinline nounwind optnone uwtable
define linkonce_odr dso_local i64 @_ZNSt16allocator_traitsISaIiEE8max_sizeERKS0_(%"class.std::allocator.0"* dereferenceable(1)) #5 comdat align 2 {
  %2 = alloca %"class.std::allocator.0"*, align 8
  store %"class.std::allocator.0"* %0, %"class.std::allocator.0"** %2, align 8
  %3 = load %"class.std::allocator.0"*, %"class.std::allocator.0"** %2, align 8
  %4 = bitcast %"class.std::allocator.0"* %3 to %"class.__gnu_cxx::new_allocator.1"*
  %5 = call i64 @_ZNK9__gnu_cxx13new_allocatorIiE8max_sizeEv(%"class.__gnu_cxx::new_allocator.1"* %4) #3
  ret i64 %5
}

; Function Attrs: noinline nounwind optnone uwtable
define linkonce_odr dso_local dereferenceable(8) i64* @_ZSt3minImERKT_S2_S2_(i64* dereferenceable(8), i64* dereferenceable(8)) #5 comdat {
  %3 = alloca i64*, align 8
  %4 = alloca i64*, align 8
  %5 = alloca i64*, align 8
  store i64* %0, i64** %4, align 8
  store i64* %1, i64** %5, align 8
  %6 = load i64*, i64** %5, align 8
  %7 = load i64, i64* %6, align 8
  %8 = load i64*, i64** %4, align 8
  %9 = load i64, i64* %8, align 8
  %10 = icmp ult i64 %7, %9
  br i1 %10, label %11, label %13

; <label>:11:                                     ; preds = %2
  %12 = load i64*, i64** %5, align 8
  store i64* %12, i64** %3, align 8
  br label %15

; <label>:13:                                     ; preds = %2
  %14 = load i64*, i64** %4, align 8
  store i64* %14, i64** %3, align 8
  br label %15

; <label>:15:                                     ; preds = %13, %11
  %16 = load i64*, i64** %3, align 8
  ret i64* %16
}

; Function Attrs: noinline noreturn nounwind
define linkonce_odr hidden void @__clang_call_terminate(i8*) #10 comdat {
  %2 = call i8* @__cxa_begin_catch(i8* %0) #3
  call void @_ZSt9terminatev() #14
  unreachable
}

declare dso_local i8* @__cxa_begin_catch(i8*)

declare dso_local void @_ZSt9terminatev()

; Function Attrs: noinline nounwind optnone uwtable
define linkonce_odr dso_local i64 @_ZNK9__gnu_cxx13new_allocatorIiE8max_sizeEv(%"class.__gnu_cxx::new_allocator.1"*) #5 comdat align 2 {
  %2 = alloca %"class.__gnu_cxx::new_allocator.1"*, align 8
  store %"class.__gnu_cxx::new_allocator.1"* %0, %"class.__gnu_cxx::new_allocator.1"** %2, align 8
  %3 = load %"class.__gnu_cxx::new_allocator.1"*, %"class.__gnu_cxx::new_allocator.1"** %2, align 8
  ret i64 2305843009213693951
}

; Function Attrs: noinline nounwind optnone uwtable
define linkonce_odr dso_local void @_ZN9__gnu_cxx17__normal_iteratorIPiSt6vectorIiSaIiEEEC2ERKS1_(%"class.__gnu_cxx::__normal_iterator"*, i32** dereferenceable(8)) unnamed_addr #5 comdat align 2 {
  %3 = alloca %"class.__gnu_cxx::__normal_iterator"*, align 8
  %4 = alloca i32**, align 8
  store %"class.__gnu_cxx::__normal_iterator"* %0, %"class.__gnu_cxx::__normal_iterator"** %3, align 8
  store i32** %1, i32*** %4, align 8
  %5 = load %"class.__gnu_cxx::__normal_iterator"*, %"class.__gnu_cxx::__normal_iterator"** %3, align 8
  %6 = getelementptr inbounds %"class.__gnu_cxx::__normal_iterator", %"class.__gnu_cxx::__normal_iterator"* %5, i32 0, i32 0
  %7 = load i32**, i32*** %4, align 8
  %8 = load i32*, i32** %7, align 8
  store i32* %8, i32** %6, align 8
  ret void
}

; Function Attrs: noinline optnone uwtable
define linkonce_odr dso_local i32* @_ZNSt16allocator_traitsISaIiEE8allocateERS0_m(%"class.std::allocator.0"* dereferenceable(1), i64) #4 comdat align 2 {
  %3 = alloca %"class.std::allocator.0"*, align 8
  %4 = alloca i64, align 8
  store %"class.std::allocator.0"* %0, %"class.std::allocator.0"** %3, align 8
  store i64 %1, i64* %4, align 8
  %5 = load %"class.std::allocator.0"*, %"class.std::allocator.0"** %3, align 8
  %6 = bitcast %"class.std::allocator.0"* %5 to %"class.__gnu_cxx::new_allocator.1"*
  %7 = load i64, i64* %4, align 8
  %8 = call i32* @_ZN9__gnu_cxx13new_allocatorIiE8allocateEmPKv(%"class.__gnu_cxx::new_allocator.1"* %6, i64 %7, i8* null)
  ret i32* %8
}

; Function Attrs: noinline optnone uwtable
define linkonce_odr dso_local i32* @_ZN9__gnu_cxx13new_allocatorIiE8allocateEmPKv(%"class.__gnu_cxx::new_allocator.1"*, i64, i8*) #4 comdat align 2 {
  %4 = alloca %"class.__gnu_cxx::new_allocator.1"*, align 8
  %5 = alloca i64, align 8
  %6 = alloca i8*, align 8
  store %"class.__gnu_cxx::new_allocator.1"* %0, %"class.__gnu_cxx::new_allocator.1"** %4, align 8
  store i64 %1, i64* %5, align 8
  store i8* %2, i8** %6, align 8
  %7 = load %"class.__gnu_cxx::new_allocator.1"*, %"class.__gnu_cxx::new_allocator.1"** %4, align 8
  %8 = load i64, i64* %5, align 8
  %9 = call i64 @_ZNK9__gnu_cxx13new_allocatorIiE8max_sizeEv(%"class.__gnu_cxx::new_allocator.1"* %7) #3
  %10 = icmp ugt i64 %8, %9
  br i1 %10, label %11, label %12

; <label>:11:                                     ; preds = %3
  call void @_ZSt17__throw_bad_allocv() #15
  unreachable

; <label>:12:                                     ; preds = %3
  %13 = load i64, i64* %5, align 8
  %14 = mul i64 %13, 4
  %15 = call i8* @_Znwm(i64 %14)
  %16 = bitcast i8* %15 to i32*
  ret i32* %16
}

; Function Attrs: noreturn
declare dso_local void @_ZSt17__throw_bad_allocv() #9

; Function Attrs: nobuiltin
declare dso_local noalias i8* @_Znwm(i64) #7

; Function Attrs: noinline nounwind optnone uwtable
define linkonce_odr dso_local i32* @_ZNSt6vectorIiSaIiEE14_S_do_relocateEPiS2_S2_RS0_St17integral_constantIbLb1EE(i32*, i32*, i32*, %"class.std::allocator.0"* dereferenceable(1)) #5 comdat align 2 {
  %5 = alloca %"struct.std::integral_constant", align 1
  %6 = alloca i32*, align 8
  %7 = alloca i32*, align 8
  %8 = alloca i32*, align 8
  %9 = alloca %"class.std::allocator.0"*, align 8
  store i32* %0, i32** %6, align 8
  store i32* %1, i32** %7, align 8
  store i32* %2, i32** %8, align 8
  store %"class.std::allocator.0"* %3, %"class.std::allocator.0"** %9, align 8
  %10 = load i32*, i32** %6, align 8
  %11 = load i32*, i32** %7, align 8
  %12 = load i32*, i32** %8, align 8
  %13 = load %"class.std::allocator.0"*, %"class.std::allocator.0"** %9, align 8
  %14 = call i32* @_ZSt12__relocate_aIPiS0_SaIiEET0_T_S3_S2_RT1_(i32* %10, i32* %11, i32* %12, %"class.std::allocator.0"* dereferenceable(1) %13) #3
  ret i32* %14
}

; Function Attrs: noinline nounwind optnone uwtable
define linkonce_odr dso_local i32* @_ZSt12__relocate_aIPiS0_SaIiEET0_T_S3_S2_RT1_(i32*, i32*, i32*, %"class.std::allocator.0"* dereferenceable(1)) #5 comdat {
  %5 = alloca i32*, align 8
  %6 = alloca i32*, align 8
  %7 = alloca i32*, align 8
  %8 = alloca %"class.std::allocator.0"*, align 8
  store i32* %0, i32** %5, align 8
  store i32* %1, i32** %6, align 8
  store i32* %2, i32** %7, align 8
  store %"class.std::allocator.0"* %3, %"class.std::allocator.0"** %8, align 8
  %9 = load i32*, i32** %5, align 8
  %10 = call i32* @_ZSt12__niter_baseIPiET_S1_(i32* %9) #3
  %11 = load i32*, i32** %6, align 8
  %12 = call i32* @_ZSt12__niter_baseIPiET_S1_(i32* %11) #3
  %13 = load i32*, i32** %7, align 8
  %14 = call i32* @_ZSt12__niter_baseIPiET_S1_(i32* %13) #3
  %15 = load %"class.std::allocator.0"*, %"class.std::allocator.0"** %8, align 8
  %16 = call i32* @_ZSt14__relocate_a_1IiiENSt9enable_ifIXsr3std24__is_bitwise_relocatableIT_EE5valueEPS1_E4typeES2_S2_S2_RSaIT0_E(i32* %10, i32* %12, i32* %14, %"class.std::allocator.0"* dereferenceable(1) %15) #3
  ret i32* %16
}

; Function Attrs: noinline nounwind optnone uwtable
define linkonce_odr dso_local i32* @_ZSt14__relocate_a_1IiiENSt9enable_ifIXsr3std24__is_bitwise_relocatableIT_EE5valueEPS1_E4typeES2_S2_S2_RSaIT0_E(i32*, i32*, i32*, %"class.std::allocator.0"* dereferenceable(1)) #5 comdat {
  %5 = alloca i32*, align 8
  %6 = alloca i32*, align 8
  %7 = alloca i32*, align 8
  %8 = alloca %"class.std::allocator.0"*, align 8
  %9 = alloca i64, align 8
  store i32* %0, i32** %5, align 8
  store i32* %1, i32** %6, align 8
  store i32* %2, i32** %7, align 8
  store %"class.std::allocator.0"* %3, %"class.std::allocator.0"** %8, align 8
  %10 = load i32*, i32** %6, align 8
  %11 = load i32*, i32** %5, align 8
  %12 = ptrtoint i32* %10 to i64
  %13 = ptrtoint i32* %11 to i64
  %14 = sub i64 %12, %13
  %15 = sdiv exact i64 %14, 4
  store i64 %15, i64* %9, align 8
  %16 = load i64, i64* %9, align 8
  %17 = icmp sgt i64 %16, 0
  br i1 %17, label %18, label %25

; <label>:18:                                     ; preds = %4
  %19 = load i32*, i32** %7, align 8
  %20 = bitcast i32* %19 to i8*
  %21 = load i32*, i32** %5, align 8
  %22 = bitcast i32* %21 to i8*
  %23 = load i64, i64* %9, align 8
  %24 = mul i64 %23, 4
  call void @llvm.memmove.p0i8.p0i8.i64(i8* align 4 %20, i8* align 4 %22, i64 %24, i1 false)
  br label %25

; <label>:25:                                     ; preds = %18, %4
  %26 = load i32*, i32** %7, align 8
  %27 = load i64, i64* %9, align 8
  %28 = getelementptr inbounds i32, i32* %26, i64 %27
  ret i32* %28
}

; Function Attrs: noinline nounwind optnone uwtable
define linkonce_odr dso_local i32* @_ZSt12__niter_baseIPiET_S1_(i32*) #5 comdat {
  %2 = alloca i32*, align 8
  store i32* %0, i32** %2, align 8
  %3 = load i32*, i32** %2, align 8
  ret i32* %3
}

; Function Attrs: argmemonly nounwind
declare void @llvm.memmove.p0i8.p0i8.i64(i8* nocapture, i8* nocapture readonly, i64, i1) #11

; Function Attrs: noinline optnone uwtable
define linkonce_odr dso_local void @_ZNSt16allocator_traitsISaIiEE10deallocateERS0_Pim(%"class.std::allocator.0"* dereferenceable(1), i32*, i64) #4 comdat align 2 {
  %4 = alloca %"class.std::allocator.0"*, align 8
  %5 = alloca i32*, align 8
  %6 = alloca i64, align 8
  store %"class.std::allocator.0"* %0, %"class.std::allocator.0"** %4, align 8
  store i32* %1, i32** %5, align 8
  store i64 %2, i64* %6, align 8
  %7 = load %"class.std::allocator.0"*, %"class.std::allocator.0"** %4, align 8
  %8 = bitcast %"class.std::allocator.0"* %7 to %"class.__gnu_cxx::new_allocator.1"*
  %9 = load i32*, i32** %5, align 8
  %10 = load i64, i64* %6, align 8
  call void @_ZN9__gnu_cxx13new_allocatorIiE10deallocateEPim(%"class.__gnu_cxx::new_allocator.1"* %8, i32* %9, i64 %10)
  ret void
}

; Function Attrs: noinline nounwind optnone uwtable
define linkonce_odr dso_local void @_ZN9__gnu_cxx13new_allocatorIiE10deallocateEPim(%"class.__gnu_cxx::new_allocator.1"*, i32*, i64) #5 comdat align 2 {
  %4 = alloca %"class.__gnu_cxx::new_allocator.1"*, align 8
  %5 = alloca i32*, align 8
  %6 = alloca i64, align 8
  store %"class.__gnu_cxx::new_allocator.1"* %0, %"class.__gnu_cxx::new_allocator.1"** %4, align 8
  store i32* %1, i32** %5, align 8
  store i64 %2, i64* %6, align 8
  %7 = load %"class.__gnu_cxx::new_allocator.1"*, %"class.__gnu_cxx::new_allocator.1"** %4, align 8
  %8 = load i32*, i32** %5, align 8
  %9 = bitcast i32* %8 to i8*
  call void @_ZdlPv(i8* %9) #3
  ret void
}

; Function Attrs: nobuiltin nounwind
declare dso_local void @_ZdlPv(i8*) #8

; Function Attrs: noinline optnone uwtable
define linkonce_odr dso_local void @_ZSt8_DestroyIPiiEvT_S1_RSaIT0_E(i32*, i32*, %"class.std::allocator.0"* dereferenceable(1)) #4 comdat {
  %4 = alloca i32*, align 8
  %5 = alloca i32*, align 8
  %6 = alloca %"class.std::allocator.0"*, align 8
  store i32* %0, i32** %4, align 8
  store i32* %1, i32** %5, align 8
  store %"class.std::allocator.0"* %2, %"class.std::allocator.0"** %6, align 8
  %7 = load i32*, i32** %4, align 8
  %8 = load i32*, i32** %5, align 8
  call void @_ZSt8_DestroyIPiEvT_S1_(i32* %7, i32* %8)
  ret void
}

; Function Attrs: noinline nounwind optnone uwtable
define linkonce_odr dso_local void @_ZNSt12_Vector_baseIiSaIiEED2Ev(%"struct.std::_Vector_base"*) unnamed_addr #5 comdat align 2 personality i8* bitcast (i32 (...)* @__gxx_personality_v0 to i8*) {
  %2 = alloca %"struct.std::_Vector_base"*, align 8
  %3 = alloca i8*
  %4 = alloca i32
  store %"struct.std::_Vector_base"* %0, %"struct.std::_Vector_base"** %2, align 8
  %5 = load %"struct.std::_Vector_base"*, %"struct.std::_Vector_base"** %2, align 8
  %6 = getelementptr inbounds %"struct.std::_Vector_base", %"struct.std::_Vector_base"* %5, i32 0, i32 0
  %7 = bitcast %"struct.std::_Vector_base<int, std::allocator<int> >::_Vector_impl"* %6 to %"struct.std::_Vector_base<int, std::allocator<int> >::_Vector_impl_data"*
  %8 = getelementptr inbounds %"struct.std::_Vector_base<int, std::allocator<int> >::_Vector_impl_data", %"struct.std::_Vector_base<int, std::allocator<int> >::_Vector_impl_data"* %7, i32 0, i32 0
  %9 = load i32*, i32** %8, align 8
  %10 = getelementptr inbounds %"struct.std::_Vector_base", %"struct.std::_Vector_base"* %5, i32 0, i32 0
  %11 = bitcast %"struct.std::_Vector_base<int, std::allocator<int> >::_Vector_impl"* %10 to %"struct.std::_Vector_base<int, std::allocator<int> >::_Vector_impl_data"*
  %12 = getelementptr inbounds %"struct.std::_Vector_base<int, std::allocator<int> >::_Vector_impl_data", %"struct.std::_Vector_base<int, std::allocator<int> >::_Vector_impl_data"* %11, i32 0, i32 2
  %13 = load i32*, i32** %12, align 8
  %14 = getelementptr inbounds %"struct.std::_Vector_base", %"struct.std::_Vector_base"* %5, i32 0, i32 0
  %15 = bitcast %"struct.std::_Vector_base<int, std::allocator<int> >::_Vector_impl"* %14 to %"struct.std::_Vector_base<int, std::allocator<int> >::_Vector_impl_data"*
  %16 = getelementptr inbounds %"struct.std::_Vector_base<int, std::allocator<int> >::_Vector_impl_data", %"struct.std::_Vector_base<int, std::allocator<int> >::_Vector_impl_data"* %15, i32 0, i32 0
  %17 = load i32*, i32** %16, align 8
  %18 = ptrtoint i32* %13 to i64
  %19 = ptrtoint i32* %17 to i64
  %20 = sub i64 %18, %19
  %21 = sdiv exact i64 %20, 4
  invoke void @_ZNSt12_Vector_baseIiSaIiEE13_M_deallocateEPim(%"struct.std::_Vector_base"* %5, i32* %9, i64 %21)
          to label %22 unwind label %24

; <label>:22:                                     ; preds = %1
  %23 = getelementptr inbounds %"struct.std::_Vector_base", %"struct.std::_Vector_base"* %5, i32 0, i32 0
  call void @_ZNSt12_Vector_baseIiSaIiEE12_Vector_implD2Ev(%"struct.std::_Vector_base<int, std::allocator<int> >::_Vector_impl"* %23) #3
  ret void

; <label>:24:                                     ; preds = %1
  %25 = landingpad { i8*, i32 }
          catch i8* null
  %26 = extractvalue { i8*, i32 } %25, 0
  store i8* %26, i8** %3, align 8
  %27 = extractvalue { i8*, i32 } %25, 1
  store i32 %27, i32* %4, align 4
  %28 = getelementptr inbounds %"struct.std::_Vector_base", %"struct.std::_Vector_base"* %5, i32 0, i32 0
  call void @_ZNSt12_Vector_baseIiSaIiEE12_Vector_implD2Ev(%"struct.std::_Vector_base<int, std::allocator<int> >::_Vector_impl"* %28) #3
  br label %29

; <label>:29:                                     ; preds = %24
  %30 = load i8*, i8** %3, align 8
  call void @__clang_call_terminate(i8* %30) #14
  unreachable
}

; Function Attrs: noinline optnone uwtable
define linkonce_odr dso_local void @_ZSt8_DestroyIPiEvT_S1_(i32*, i32*) #4 comdat {
  %3 = alloca i32*, align 8
  %4 = alloca i32*, align 8
  store i32* %0, i32** %3, align 8
  store i32* %1, i32** %4, align 8
  %5 = load i32*, i32** %3, align 8
  %6 = load i32*, i32** %4, align 8
  call void @_ZNSt12_Destroy_auxILb1EE9__destroyIPiEEvT_S3_(i32* %5, i32* %6)
  ret void
}

; Function Attrs: noinline nounwind optnone uwtable
define linkonce_odr dso_local void @_ZNSt12_Destroy_auxILb1EE9__destroyIPiEEvT_S3_(i32*, i32*) #5 comdat align 2 {
  %3 = alloca i32*, align 8
  %4 = alloca i32*, align 8
  store i32* %0, i32** %3, align 8
  store i32* %1, i32** %4, align 8
  ret void
}

; Function Attrs: noinline nounwind optnone uwtable
define linkonce_odr dso_local void @_ZNSt12_Vector_baseIiSaIiEE12_Vector_implD2Ev(%"struct.std::_Vector_base<int, std::allocator<int> >::_Vector_impl"*) unnamed_addr #5 comdat align 2 {
  %2 = alloca %"struct.std::_Vector_base<int, std::allocator<int> >::_Vector_impl"*, align 8
  store %"struct.std::_Vector_base<int, std::allocator<int> >::_Vector_impl"* %0, %"struct.std::_Vector_base<int, std::allocator<int> >::_Vector_impl"** %2, align 8
  %3 = load %"struct.std::_Vector_base<int, std::allocator<int> >::_Vector_impl"*, %"struct.std::_Vector_base<int, std::allocator<int> >::_Vector_impl"** %2, align 8
  %4 = bitcast %"struct.std::_Vector_base<int, std::allocator<int> >::_Vector_impl"* %3 to %"class.std::allocator.0"*
  call void @_ZNSaIiED2Ev(%"class.std::allocator.0"* %4) #3
  ret void
}

; Function Attrs: noinline nounwind optnone uwtable
define linkonce_odr dso_local void @_ZNSaIiED2Ev(%"class.std::allocator.0"*) unnamed_addr #5 comdat align 2 {
  %2 = alloca %"class.std::allocator.0"*, align 8
  store %"class.std::allocator.0"* %0, %"class.std::allocator.0"** %2, align 8
  %3 = load %"class.std::allocator.0"*, %"class.std::allocator.0"** %2, align 8
  %4 = bitcast %"class.std::allocator.0"* %3 to %"class.__gnu_cxx::new_allocator.1"*
  call void @_ZN9__gnu_cxx13new_allocatorIiED2Ev(%"class.__gnu_cxx::new_allocator.1"* %4) #3
  ret void
}

; Function Attrs: noinline nounwind optnone uwtable
define linkonce_odr dso_local void @_ZN9__gnu_cxx13new_allocatorIiED2Ev(%"class.__gnu_cxx::new_allocator.1"*) unnamed_addr #5 comdat align 2 {
  %2 = alloca %"class.__gnu_cxx::new_allocator.1"*, align 8
  store %"class.__gnu_cxx::new_allocator.1"* %0, %"class.__gnu_cxx::new_allocator.1"** %2, align 8
  %3 = load %"class.__gnu_cxx::new_allocator.1"*, %"class.__gnu_cxx::new_allocator.1"** %2, align 8
  ret void
}

; Function Attrs: noinline uwtable
define internal void @_GLOBAL__sub_I_rgb_image.cpp() #0 section ".text.startup" {
  call void @__cxx_global_var_init()
  ret void
}

attributes #0 = { noinline uwtable "correctly-rounded-divide-sqrt-fp-math"="false" "disable-tail-calls"="false" "less-precise-fpmad"="false" "min-legal-vector-width"="0" "no-frame-pointer-elim"="true" "no-frame-pointer-elim-non-leaf" "no-infs-fp-math"="false" "no-jump-tables"="false" "no-nans-fp-math"="false" "no-signed-zeros-fp-math"="false" "no-trapping-math"="false" "stack-protector-buffer-size"="8" "target-cpu"="x86-64" "target-features"="+fxsr,+mmx,+sse,+sse2,+x87" "unsafe-fp-math"="false" "use-soft-float"="false" }
attributes #1 = { "correctly-rounded-divide-sqrt-fp-math"="false" "disable-tail-calls"="false" "less-precise-fpmad"="false" "no-frame-pointer-elim"="true" "no-frame-pointer-elim-non-leaf" "no-infs-fp-math"="false" "no-nans-fp-math"="false" "no-signed-zeros-fp-math"="false" "no-trapping-math"="false" "stack-protector-buffer-size"="8" "target-cpu"="x86-64" "target-features"="+fxsr,+mmx,+sse,+sse2,+x87" "unsafe-fp-math"="false" "use-soft-float"="false" }
attributes #2 = { nounwind "correctly-rounded-divide-sqrt-fp-math"="false" "disable-tail-calls"="false" "less-precise-fpmad"="false" "no-frame-pointer-elim"="true" "no-frame-pointer-elim-non-leaf" "no-infs-fp-math"="false" "no-nans-fp-math"="false" "no-signed-zeros-fp-math"="false" "no-trapping-math"="false" "stack-protector-buffer-size"="8" "target-cpu"="x86-64" "target-features"="+fxsr,+mmx,+sse,+sse2,+x87" "unsafe-fp-math"="false" "use-soft-float"="false" }
attributes #3 = { nounwind }
attributes #4 = { noinline optnone uwtable "correctly-rounded-divide-sqrt-fp-math"="false" "disable-tail-calls"="false" "less-precise-fpmad"="false" "min-legal-vector-width"="0" "no-frame-pointer-elim"="true" "no-frame-pointer-elim-non-leaf" "no-infs-fp-math"="false" "no-jump-tables"="false" "no-nans-fp-math"="false" "no-signed-zeros-fp-math"="false" "no-trapping-math"="false" "stack-protector-buffer-size"="8" "target-cpu"="x86-64" "target-features"="+fxsr,+mmx,+sse,+sse2,+x87" "unsafe-fp-math"="false" "use-soft-float"="false" }
attributes #5 = { noinline nounwind optnone uwtable "correctly-rounded-divide-sqrt-fp-math"="false" "disable-tail-calls"="false" "less-precise-fpmad"="false" "min-legal-vector-width"="0" "no-frame-pointer-elim"="true" "no-frame-pointer-elim-non-leaf" "no-infs-fp-math"="false" "no-jump-tables"="false" "no-nans-fp-math"="false" "no-signed-zeros-fp-math"="false" "no-trapping-math"="false" "stack-protector-buffer-size"="8" "target-cpu"="x86-64" "target-features"="+fxsr,+mmx,+sse,+sse2,+x87" "unsafe-fp-math"="false" "use-soft-float"="false" }
attributes #6 = { nounwind readnone speculatable }
attributes #7 = { nobuiltin "correctly-rounded-divide-sqrt-fp-math"="false" "disable-tail-calls"="false" "less-precise-fpmad"="false" "no-frame-pointer-elim"="true" "no-frame-pointer-elim-non-leaf" "no-infs-fp-math"="false" "no-nans-fp-math"="false" "no-signed-zeros-fp-math"="false" "no-trapping-math"="false" "stack-protector-buffer-size"="8" "target-cpu"="x86-64" "target-features"="+fxsr,+mmx,+sse,+sse2,+x87" "unsafe-fp-math"="false" "use-soft-float"="false" }
attributes #8 = { nobuiltin nounwind "correctly-rounded-divide-sqrt-fp-math"="false" "disable-tail-calls"="false" "less-precise-fpmad"="false" "no-frame-pointer-elim"="true" "no-frame-pointer-elim-non-leaf" "no-infs-fp-math"="false" "no-nans-fp-math"="false" "no-signed-zeros-fp-math"="false" "no-trapping-math"="false" "stack-protector-buffer-size"="8" "target-cpu"="x86-64" "target-features"="+fxsr,+mmx,+sse,+sse2,+x87" "unsafe-fp-math"="false" "use-soft-float"="false" }
attributes #9 = { noreturn "correctly-rounded-divide-sqrt-fp-math"="false" "disable-tail-calls"="false" "less-precise-fpmad"="false" "no-frame-pointer-elim"="true" "no-frame-pointer-elim-non-leaf" "no-infs-fp-math"="false" "no-nans-fp-math"="false" "no-signed-zeros-fp-math"="false" "no-trapping-math"="false" "stack-protector-buffer-size"="8" "target-cpu"="x86-64" "target-features"="+fxsr,+mmx,+sse,+sse2,+x87" "unsafe-fp-math"="false" "use-soft-float"="false" }
attributes #10 = { noinline noreturn nounwind }
attributes #11 = { argmemonly nounwind }
attributes #12 = { builtin }
attributes #13 = { builtin nounwind }
attributes #14 = { noreturn nounwind }
attributes #15 = { noreturn }

!llvm.module.flags = !{!0}
!llvm.ident = !{!1}

!0 = !{i32 1, !"wchar_size", i32 4}
!1 = !{!"clang version 8.0.1-3build1 (tags/RELEASE_801/final)"}
